   1              	 .syntax unified
   2              	 .cpu cortex-m4
   3              	 .eabi_attribute 27,3
   4              	 .fpu fpv4-sp-d16
   5              	 .eabi_attribute 20,1
   6              	 .eabi_attribute 21,1
   7              	 .eabi_attribute 23,3
   8              	 .eabi_attribute 24,1
   9              	 .eabi_attribute 25,1
  10              	 .eabi_attribute 26,1
  11              	 .eabi_attribute 30,6
  12              	 .eabi_attribute 34,1
  13              	 .eabi_attribute 18,4
  14              	 .thumb
  15              	 .file "bootmode.c"
  16              	 .text
  17              	.Ltext0:
  18              	 .cfi_sections .debug_frame
  19              	 .section .text.BL_Start,"ax",%progbits
  20              	 .align 2
  21              	 .global BL_Start
  22              	 .thumb
  23              	 .thumb_func
  25              	BL_Start:
  26              	.LFB128:
  27              	 .file 1 "../SSC/Src/bootmode.c"
   1:../SSC/Src/bootmode.c **** /**
   2:../SSC/Src/bootmode.c **** \addtogroup ESM EtherCAT State Machine
   3:../SSC/Src/bootmode.c **** @{
   4:../SSC/Src/bootmode.c **** */
   5:../SSC/Src/bootmode.c **** 
   6:../SSC/Src/bootmode.c **** /**
   7:../SSC/Src/bootmode.c **** \file bootmode.c
   8:../SSC/Src/bootmode.c **** \author EthercatSSC@beckhoff.com
   9:../SSC/Src/bootmode.c **** \brief Implementation
  10:../SSC/Src/bootmode.c **** 
  11:../SSC/Src/bootmode.c **** \version 4.20
  12:../SSC/Src/bootmode.c **** 
  13:../SSC/Src/bootmode.c **** <br>Changes to version - :<br>
  14:../SSC/Src/bootmode.c **** V4.20: File created
  15:../SSC/Src/bootmode.c **** */
  16:../SSC/Src/bootmode.c **** 
  17:../SSC/Src/bootmode.c **** /*--------------------------------------------------------------------------------------
  18:../SSC/Src/bootmode.c **** ------
  19:../SSC/Src/bootmode.c **** ------    Includes
  20:../SSC/Src/bootmode.c **** ------
  21:../SSC/Src/bootmode.c **** --------------------------------------------------------------------------------------*/
  22:../SSC/Src/bootmode.c **** #include "ecat_def.h"
  23:../SSC/Src/bootmode.c **** 
  24:../SSC/Src/bootmode.c **** #define    _BOOTMODE_ 1
  25:../SSC/Src/bootmode.c **** #include "bootmode.h"
  26:../SSC/Src/bootmode.c **** #undef _BOOTMODE_
  27:../SSC/Src/bootmode.c **** 
  28:../SSC/Src/bootmode.c **** /////////////////////////////////////////////////////////////////////////////////////////
  29:../SSC/Src/bootmode.c **** /**
  30:../SSC/Src/bootmode.c ****  \param    State        Current state
  31:../SSC/Src/bootmode.c **** 
  32:../SSC/Src/bootmode.c ****  \brief Dummy BL_Start function
  33:../SSC/Src/bootmode.c **** *////////////////////////////////////////////////////////////////////////////////////////
  34:../SSC/Src/bootmode.c **** void BL_Start( UINT8 State)
  35:../SSC/Src/bootmode.c **** {
  28              	 .loc 1 35 0
  29              	 .cfi_startproc
  30              	 
  31              	 
  32              	 
  33 0000 80B4     	 push {r7}
  34              	.LCFI0:
  35              	 .cfi_def_cfa_offset 4
  36              	 .cfi_offset 7,-4
  37 0002 83B0     	 sub sp,sp,#12
  38              	.LCFI1:
  39              	 .cfi_def_cfa_offset 16
  40 0004 00AF     	 add r7,sp,#0
  41              	.LCFI2:
  42              	 .cfi_def_cfa_register 7
  43 0006 0346     	 mov r3,r0
  44 0008 FB71     	 strb r3,[r7,#7]
  36:../SSC/Src/bootmode.c **** }
  45              	 .loc 1 36 0
  46 000a 0C37     	 adds r7,r7,#12
  47              	.LCFI3:
  48              	 .cfi_def_cfa_offset 4
  49 000c BD46     	 mov sp,r7
  50              	.LCFI4:
  51              	 .cfi_def_cfa_register 13
  52              	 
  53 000e 5DF8047B 	 ldr r7,[sp],#4
  54              	.LCFI5:
  55              	 .cfi_restore 7
  56              	 .cfi_def_cfa_offset 0
  57 0012 7047     	 bx lr
  58              	 .cfi_endproc
  59              	.LFE128:
  61              	 .section .text.BL_StartDownload,"ax",%progbits
  62              	 .align 2
  63              	 .global BL_StartDownload
  64              	 .thumb
  65              	 .thumb_func
  67              	BL_StartDownload:
  68              	.LFB129:
  37:../SSC/Src/bootmode.c **** 
  38:../SSC/Src/bootmode.c **** /////////////////////////////////////////////////////////////////////////////////////////
  39:../SSC/Src/bootmode.c **** /**
  40:../SSC/Src/bootmode.c ****  \param    password    download password
  41:../SSC/Src/bootmode.c **** 
  42:../SSC/Src/bootmode.c ****  \brief Dummy BL_StartDownload function
  43:../SSC/Src/bootmode.c **** *////////////////////////////////////////////////////////////////////////////////////////
  44:../SSC/Src/bootmode.c **** void BL_StartDownload(UINT32 password)
  45:../SSC/Src/bootmode.c **** {
  69              	 .loc 1 45 0
  70              	 .cfi_startproc
  71              	 
  72              	 
  73              	 
  74 0000 80B4     	 push {r7}
  75              	.LCFI6:
  76              	 .cfi_def_cfa_offset 4
  77              	 .cfi_offset 7,-4
  78 0002 83B0     	 sub sp,sp,#12
  79              	.LCFI7:
  80              	 .cfi_def_cfa_offset 16
  81 0004 00AF     	 add r7,sp,#0
  82              	.LCFI8:
  83              	 .cfi_def_cfa_register 7
  84 0006 7860     	 str r0,[r7,#4]
  46:../SSC/Src/bootmode.c **** }
  85              	 .loc 1 46 0
  86 0008 0C37     	 adds r7,r7,#12
  87              	.LCFI9:
  88              	 .cfi_def_cfa_offset 4
  89 000a BD46     	 mov sp,r7
  90              	.LCFI10:
  91              	 .cfi_def_cfa_register 13
  92              	 
  93 000c 5DF8047B 	 ldr r7,[sp],#4
  94              	.LCFI11:
  95              	 .cfi_restore 7
  96              	 .cfi_def_cfa_offset 0
  97 0010 7047     	 bx lr
  98              	 .cfi_endproc
  99              	.LFE129:
 101 0012 00BF     	 .section .text.BL_Data,"ax",%progbits
 102              	 .align 2
 103              	 .global BL_Data
 104              	 .thumb
 105              	 .thumb_func
 107              	BL_Data:
 108              	.LFB130:
  47:../SSC/Src/bootmode.c **** /////////////////////////////////////////////////////////////////////////////////////////
  48:../SSC/Src/bootmode.c **** /**
  49:../SSC/Src/bootmode.c ****  \param    pData    Data pointer
  50:../SSC/Src/bootmode.c ****  \param    Size    Data Length
  51:../SSC/Src/bootmode.c **** 
  52:../SSC/Src/bootmode.c **** 
  53:../SSC/Src/bootmode.c ****  \return    FoE error code
  54:../SSC/Src/bootmode.c **** 
  55:../SSC/Src/bootmode.c ****  \brief Dummy BL_Data function
  56:../SSC/Src/bootmode.c **** *////////////////////////////////////////////////////////////////////////////////////////
  57:../SSC/Src/bootmode.c **** UINT16 BL_Data(UINT16 *pData,UINT16 Size)
  58:../SSC/Src/bootmode.c **** {
 109              	 .loc 1 58 0
 110              	 .cfi_startproc
 111              	 
 112              	 
 113              	 
 114 0000 80B4     	 push {r7}
 115              	.LCFI12:
 116              	 .cfi_def_cfa_offset 4
 117              	 .cfi_offset 7,-4
 118 0002 83B0     	 sub sp,sp,#12
 119              	.LCFI13:
 120              	 .cfi_def_cfa_offset 16
 121 0004 00AF     	 add r7,sp,#0
 122              	.LCFI14:
 123              	 .cfi_def_cfa_register 7
 124 0006 7860     	 str r0,[r7,#4]
 125 0008 0B46     	 mov r3,r1
 126 000a 7B80     	 strh r3,[r7,#2]
  59:../SSC/Src/bootmode.c ****     return 0;
 127              	 .loc 1 59 0
 128 000c 0023     	 movs r3,#0
  60:../SSC/Src/bootmode.c **** }
 129              	 .loc 1 60 0
 130 000e 1846     	 mov r0,r3
 131 0010 0C37     	 adds r7,r7,#12
 132              	.LCFI15:
 133              	 .cfi_def_cfa_offset 4
 134 0012 BD46     	 mov sp,r7
 135              	.LCFI16:
 136              	 .cfi_def_cfa_register 13
 137              	 
 138 0014 5DF8047B 	 ldr r7,[sp],#4
 139              	.LCFI17:
 140              	 .cfi_restore 7
 141              	 .cfi_def_cfa_offset 0
 142 0018 7047     	 bx lr
 143              	 .cfi_endproc
 144              	.LFE130:
 146 001a 00BF     	 .text
 147              	.Letext0:
 148              	 .file 2 "c:\\davev4-64bit\\dave-4.3.2\\eclipse\\arm-gcc-49\\arm-none-eabi\\include\\machine\\_default_types.h"
 149              	 .file 3 "c:\\davev4-64bit\\dave-4.3.2\\eclipse\\arm-gcc-49\\arm-none-eabi\\include\\stdint.h"
 150              	 .file 4 "C:/Workspaces/SOES-FW-UPDATE/ETHCAT_FWUPDATE_SSC_APPLICATION_XMC48/Libraries/CMSIS/Include/core_cm4.h"