   1              	 .syntax unified
   2              	 .cpu cortex-m4
   3              	 .eabi_attribute 27,3
   4              	 .fpu fpv4-sp-d16
   5              	 .eabi_attribute 20,1
   6              	 .eabi_attribute 21,1
   7              	 .eabi_attribute 23,3
   8              	 .eabi_attribute 24,1
   9              	 .eabi_attribute 25,1
  10              	 .eabi_attribute 26,1
  11              	 .eabi_attribute 30,6
  12              	 .eabi_attribute 34,1
  13              	 .eabi_attribute 18,4
  14              	 .thumb
  15              	 .file "coeappl.c"
  16              	 .text
  17              	.Ltext0:
  18              	 .cfi_sections .debug_frame
  19              	 .global asEntryDesc0x1600
  20              	 .section .rodata.asEntryDesc0x1600,"a",%progbits
  21              	 .align 2
  24              	asEntryDesc0x1600:
  25 0000 0500     	 .short 5
  26 0002 0800     	 .short 8
  27 0004 0700     	 .short 7
  28 0006 0700     	 .short 7
  29 0008 2000     	 .short 32
  30 000a 0700     	 .short 7
  31 000c 0700     	 .short 7
  32 000e 2000     	 .short 32
  33 0010 0700     	 .short 7
  34 0012 0700     	 .short 7
  35 0014 2000     	 .short 32
  36 0016 0700     	 .short 7
  37 0018 0700     	 .short 7
  38 001a 2000     	 .short 32
  39 001c 0700     	 .short 7
  40 001e 0700     	 .short 7
  41 0020 2000     	 .short 32
  42 0022 0700     	 .short 7
  43 0024 0700     	 .short 7
  44 0026 2000     	 .short 32
  45 0028 0700     	 .short 7
  46 002a 0700     	 .short 7
  47 002c 2000     	 .short 32
  48 002e 0700     	 .short 7
  49 0030 0700     	 .short 7
  50 0032 2000     	 .short 32
  51 0034 0700     	 .short 7
  52 0036 0700     	 .short 7
  53 0038 2000     	 .short 32
  54 003a 0700     	 .short 7
  55 003c 0700     	 .short 7
  56 003e 2000     	 .short 32
  57 0040 0700     	 .short 7
  58 0042 0700     	 .short 7
  59 0044 2000     	 .short 32
  60 0046 0700     	 .short 7
  61 0048 0700     	 .short 7
  62 004a 2000     	 .short 32
  63 004c 0700     	 .short 7
  64              	 .global aName0x1600
  65 004e 0000     	 .section .rodata.aName0x1600,"a",%progbits
  66              	 .align 2
  69              	aName0x1600:
  70 0000 4F55545F 	 .ascii "OUT_GENERIC process data mapping\000SubIndex 001\000"
  70      47454E45 
  70      52494320 
  70      70726F63 
  70      65737320 
  71 002e 53756249 	 .ascii "SubIndex 002\000SubIndex 003\000SubIndex 004\000Sub"
  71      6E646578 
  71      20303032 
  71      00537562 
  71      496E6465 
  72 0058 496E6465 	 .ascii "Index 005\000SubIndex 006\000SubIndex 007\000SubInd"
  72      78203030 
  72      35005375 
  72      62496E64 
  72      65782030 
  73 0082 65782030 	 .ascii "ex 008\000SubIndex 009\000SubIndex 010\000SubIndex "
  73      30380053 
  73      7562496E 
  73      64657820 
  73      30303900 
  74 00ac 30313100 	 .ascii "011\000SubIndex 012\000\377\000"
  74      53756249 
  74      6E646578 
  74      20303132 
  74      00FF00
  75              	 .global asEntryDesc0x1A00
  76 00bf 00       	 .section .rodata.asEntryDesc0x1A00,"a",%progbits
  77              	 .align 2
  80              	asEntryDesc0x1A00:
  81 0000 0500     	 .short 5
  82 0002 0800     	 .short 8
  83 0004 0700     	 .short 7
  84 0006 0700     	 .short 7
  85 0008 2000     	 .short 32
  86 000a 0700     	 .short 7
  87 000c 0700     	 .short 7
  88 000e 2000     	 .short 32
  89 0010 0700     	 .short 7
  90 0012 0700     	 .short 7
  91 0014 2000     	 .short 32
  92 0016 0700     	 .short 7
  93 0018 0700     	 .short 7
  94 001a 2000     	 .short 32
  95 001c 0700     	 .short 7
  96 001e 0700     	 .short 7
  97 0020 2000     	 .short 32
  98 0022 0700     	 .short 7
  99 0024 0700     	 .short 7
 100 0026 2000     	 .short 32
 101 0028 0700     	 .short 7
 102 002a 0700     	 .short 7
 103 002c 2000     	 .short 32
 104 002e 0700     	 .short 7
 105 0030 0700     	 .short 7
 106 0032 2000     	 .short 32
 107 0034 0700     	 .short 7
 108 0036 0700     	 .short 7
 109 0038 2000     	 .short 32
 110 003a 0700     	 .short 7
 111 003c 0700     	 .short 7
 112 003e 2000     	 .short 32
 113 0040 0700     	 .short 7
 114 0042 0700     	 .short 7
 115 0044 2000     	 .short 32
 116 0046 0700     	 .short 7
 117 0048 0700     	 .short 7
 118 004a 2000     	 .short 32
 119 004c 0700     	 .short 7
 120              	 .global aName0x1A00
 121 004e 0000     	 .section .rodata.aName0x1A00,"a",%progbits
 122              	 .align 2
 125              	aName0x1A00:
 126 0000 494E5F47 	 .ascii "IN_GENERIC process data mapping\000SubIndex 001\000"
 126      454E4552 
 126      49432070 
 126      726F6365 
 126      73732064 
 127 002d 53756249 	 .ascii "SubIndex 002\000SubIndex 003\000SubIndex 004\000Sub"
 127      6E646578 
 127      20303032 
 127      00537562 
 127      496E6465 
 128 0057 496E6465 	 .ascii "Index 005\000SubIndex 006\000SubIndex 007\000SubInd"
 128      78203030 
 128      35005375 
 128      62496E64 
 128      65782030 
 129 0081 65782030 	 .ascii "ex 008\000SubIndex 009\000SubIndex 010\000SubIndex "
 129      30380053 
 129      7562496E 
 129      64657820 
 129      30303900 
 130 00ab 30313100 	 .ascii "011\000SubIndex 012\000\377\000"
 130      53756249 
 130      6E646578 
 130      20303132 
 130      00FF00
 131              	 .global asEntryDesc0x1C12
 132 00be 0000     	 .section .rodata.asEntryDesc0x1C12,"a",%progbits
 133              	 .align 2
 136              	asEntryDesc0x1C12:
 137 0000 0500     	 .short 5
 138 0002 0800     	 .short 8
 139 0004 0700     	 .short 7
 140 0006 0600     	 .short 6
 141 0008 1000     	 .short 16
 142 000a 0700     	 .short 7
 143              	 .global aName0x1C12
 144              	 .section .rodata.aName0x1C12,"a",%progbits
 145              	 .align 2
 148              	aName0x1C12:
 149 0000 53796E63 	 .ascii "SyncManager 2 assignment\000\377\000"
 149      4D616E61 
 149      67657220 
 149      32206173 
 149      7369676E 
 150              	 .global asEntryDesc0x1C13
 151 001b 00       	 .section .rodata.asEntryDesc0x1C13,"a",%progbits
 152              	 .align 2
 155              	asEntryDesc0x1C13:
 156 0000 0500     	 .short 5
 157 0002 0800     	 .short 8
 158 0004 0700     	 .short 7
 159 0006 0600     	 .short 6
 160 0008 1000     	 .short 16
 161 000a 0700     	 .short 7
 162              	 .global aName0x1C13
 163              	 .section .rodata.aName0x1C13,"a",%progbits
 164              	 .align 2
 167              	aName0x1C13:
 168 0000 53796E63 	 .ascii "SyncManager 3 assignment\000\377\000"
 168      4D616E61 
 168      67657220 
 168      33206173 
 168      7369676E 
 169              	 .global asEntryDesc0x6000
 170 001b 00       	 .section .rodata.asEntryDesc0x6000,"a",%progbits
 171              	 .align 2
 174              	asEntryDesc0x6000:
 175 0000 0500     	 .short 5
 176 0002 0800     	 .short 8
 177 0004 0700     	 .short 7
 178 0006 0600     	 .short 6
 179 0008 1000     	 .short 16
 180 000a 0700     	 .short 7
 181 000c 0600     	 .short 6
 182 000e 1000     	 .short 16
 183 0010 0700     	 .short 7
 184 0012 0600     	 .short 6
 185 0014 1000     	 .short 16
 186 0016 0700     	 .short 7
 187 0018 0600     	 .short 6
 188 001a 1000     	 .short 16
 189 001c 0700     	 .short 7
 190 001e 0100     	 .short 1
 191 0020 0100     	 .short 1
 192 0022 0700     	 .short 7
 193 0024 0100     	 .short 1
 194 0026 0100     	 .short 1
 195 0028 0700     	 .short 7
 196 002a 0100     	 .short 1
 197 002c 0100     	 .short 1
 198 002e 0700     	 .short 7
 199 0030 0100     	 .short 1
 200 0032 0100     	 .short 1
 201 0034 0700     	 .short 7
 202 0036 0100     	 .short 1
 203 0038 0100     	 .short 1
 204 003a 0700     	 .short 7
 205 003c 0100     	 .short 1
 206 003e 0100     	 .short 1
 207 0040 0700     	 .short 7
 208 0042 0100     	 .short 1
 209 0044 0100     	 .short 1
 210 0046 0700     	 .short 7
 211 0048 0100     	 .short 1
 212 004a 0100     	 .short 1
 213 004c 0700     	 .short 7
 214              	 .global aName0x6000
 215 004e 0000     	 .section .rodata.aName0x6000,"a",%progbits
 216              	 .align 2
 219              	aName0x6000:
 220 0000 494E5F47 	 .ascii "IN_GENERIC\000IN_GEN_INT1\000IN_GEN_INT2\000IN_GEN_"
 220      454E4552 
 220      49430049 
 220      4E5F4745 
 220      4E5F494E 
 221 002a 494E5433 	 .ascii "INT3\000IN_GEN_INT4\000IN_GEN_Bit1\000IN_GEN_Bit2\000"
 221      00494E5F 
 221      47454E5F 
 221      494E5434 
 221      00494E5F 
 222 0053 494E5F47 	 .ascii "IN_GEN_Bit3\000IN_GEN_Bit4\000IN_GEN_Bit5\000IN_GEN"
 222      454E5F42 
 222      69743300 
 222      494E5F47 
 222      454E5F42 
 223 007d 5F426974 	 .ascii "_Bit6\000IN_GEN_Bit7\000IN_GEN_Bit8\000\377\000"
 223      3600494E 
 223      5F47454E 
 223      5F426974 
 223      3700494E 
 224              	 .global asEntryDesc0x7000
 225 009d 000000   	 .section .rodata.asEntryDesc0x7000,"a",%progbits
 226              	 .align 2
 229              	asEntryDesc0x7000:
 230 0000 0500     	 .short 5
 231 0002 0800     	 .short 8
 232 0004 0700     	 .short 7
 233 0006 0600     	 .short 6
 234 0008 1000     	 .short 16
 235 000a 3F00     	 .short 63
 236 000c 0600     	 .short 6
 237 000e 1000     	 .short 16
 238 0010 3F00     	 .short 63
 239 0012 0600     	 .short 6
 240 0014 1000     	 .short 16
 241 0016 3F00     	 .short 63
 242 0018 0600     	 .short 6
 243 001a 1000     	 .short 16
 244 001c 3F00     	 .short 63
 245 001e 0100     	 .short 1
 246 0020 0100     	 .short 1
 247 0022 3F00     	 .short 63
 248 0024 0100     	 .short 1
 249 0026 0100     	 .short 1
 250 0028 3F00     	 .short 63
 251 002a 0100     	 .short 1
 252 002c 0100     	 .short 1
 253 002e 3F00     	 .short 63
 254 0030 0100     	 .short 1
 255 0032 0100     	 .short 1
 256 0034 3F00     	 .short 63
 257 0036 0100     	 .short 1
 258 0038 0100     	 .short 1
 259 003a 3F00     	 .short 63
 260 003c 0100     	 .short 1
 261 003e 0100     	 .short 1
 262 0040 3F00     	 .short 63
 263 0042 0100     	 .short 1
 264 0044 0100     	 .short 1
 265 0046 3F00     	 .short 63
 266 0048 0100     	 .short 1
 267 004a 0100     	 .short 1
 268 004c 3F00     	 .short 63
 269              	 .global aName0x7000
 270 004e 0000     	 .section .rodata.aName0x7000,"a",%progbits
 271              	 .align 2
 274              	aName0x7000:
 275 0000 4F55545F 	 .ascii "OUT_GENERIC\000OUT_GEN_INT1\000OUT_GEN_INT2\000OUT_"
 275      47454E45 
 275      52494300 
 275      4F55545F 
 275      47454E5F 
 276 002a 47454E5F 	 .ascii "GEN_INT3\000OUT_GEN_INT4\000OUT_GEN_Bit1\000OUT_GEN"
 276      494E5433 
 276      004F5554 
 276      5F47454E 
 276      5F494E54 
 277 0054 5F426974 	 .ascii "_Bit2\000OUT_GEN_Bit3\000OUT_GEN_Bit4\000OUT_GEN_Bi"
 277      32004F55 
 277      545F4745 
 277      4E5F4269 
 277      7433004F 
 278 007e 7435004F 	 .ascii "t5\000OUT_GEN_Bit6\000OUT_GEN_Bit7\000OUT_GEN_Bit8\000"
 278      55545F47 
 278      454E5F42 
 278      69743600 
 278      4F55545F 
 279 00a8 FF00     	 .ascii "\377\000"
 280              	 .global ApplicationObjDic
 281 00aa 0000     	 .section .data.ApplicationObjDic,"aw",%progbits
 282              	 .align 2
 285              	ApplicationObjDic:
 286 0000 00000000 	 .word 0
 287 0004 00000000 	 .word 0
 288 0008 0016     	 .short 5632
 289 000a 2100     	 .short 33
 290 000c 0C09     	 .short 2316
 291 000e 0000     	 .space 2
 292 0010 00000000 	 .word asEntryDesc0x1600
 293 0014 00000000 	 .word aName0x1600
 294 0018 00000000 	 .word OUT_GENERICProcessDataMapping0x1600
 295 001c 00000000 	 .word 0
 296 0020 00000000 	 .word 0
 297 0024 0000     	 .short 0
 298 0026 0000     	 .space 2
 299 0028 00000000 	 .word 0
 300 002c 00000000 	 .word 0
 301 0030 001A     	 .short 6656
 302 0032 2100     	 .short 33
 303 0034 0C09     	 .short 2316
 304 0036 0000     	 .space 2
 305 0038 00000000 	 .word asEntryDesc0x1A00
 306 003c 00000000 	 .word aName0x1A00
 307 0040 00000000 	 .word IN_GENERICProcessDataMapping0x1A00
 308 0044 00000000 	 .word 0
 309 0048 00000000 	 .word 0
 310 004c 0000     	 .short 0
 311 004e 0000     	 .space 2
 312 0050 00000000 	 .word 0
 313 0054 00000000 	 .word 0
 314 0058 121C     	 .short 7186
 315 005a 0600     	 .short 6
 316 005c 0108     	 .short 2049
 317 005e 0000     	 .space 2
 318 0060 00000000 	 .word asEntryDesc0x1C12
 319 0064 00000000 	 .word aName0x1C12
 320 0068 00000000 	 .word sRxPDOassign
 321 006c 00000000 	 .word 0
 322 0070 00000000 	 .word 0
 323 0074 0000     	 .short 0
 324 0076 0000     	 .space 2
 325 0078 00000000 	 .word 0
 326 007c 00000000 	 .word 0
 327 0080 131C     	 .short 7187
 328 0082 0600     	 .short 6
 329 0084 0108     	 .short 2049
 330 0086 0000     	 .space 2
 331 0088 00000000 	 .word asEntryDesc0x1C13
 332 008c 00000000 	 .word aName0x1C13
 333 0090 00000000 	 .word sTxPDOassign
 334 0094 00000000 	 .word 0
 335 0098 00000000 	 .word 0
 336 009c 0000     	 .short 0
 337 009e 0000     	 .space 2
 338 00a0 00000000 	 .word 0
 339 00a4 00000000 	 .word 0
 340 00a8 0060     	 .short 24576
 341 00aa 2A00     	 .short 42
 342 00ac 0C09     	 .short 2316
 343 00ae 0000     	 .space 2
 344 00b0 00000000 	 .word asEntryDesc0x6000
 345 00b4 00000000 	 .word aName0x6000
 346 00b8 00000000 	 .word IN_GENERIC0x6000
 347 00bc 00000000 	 .word 0
 348 00c0 00000000 	 .word 0
 349 00c4 0000     	 .short 0
 350 00c6 0000     	 .space 2
 351 00c8 00000000 	 .word 0
 352 00cc 00000000 	 .word 0
 353 00d0 0070     	 .short 28672
 354 00d2 2A00     	 .short 42
 355 00d4 0C09     	 .short 2316
 356 00d6 0000     	 .space 2
 357 00d8 00000000 	 .word asEntryDesc0x7000
 358 00dc 00000000 	 .word aName0x7000
 359 00e0 00000000 	 .word OUT_GENERIC0x7000
 360 00e4 00000000 	 .word 0
 361 00e8 00000000 	 .word 0
 362 00ec 0000     	 .short 0
 363 00ee 0000     	 .space 2
 364 00f0 00000000 	 .word 0
 365 00f4 00000000 	 .word 0
 366 00f8 FFFF     	 .short -1
 367 00fa 0000     	 .short 0
 368 00fc 0000     	 .short 0
 369 00fe 0000     	 .space 2
 370 0100 00000000 	 .word 0
 371 0104 00000000 	 .word 0
 372 0108 00000000 	 .word 0
 373 010c 00000000 	 .word 0
 374 0110 00000000 	 .space 8
 374      00000000 
 375              	 .global u32Devicetype
 376              	 .section .data.u32Devicetype,"aw",%progbits
 377              	 .align 2
 380              	u32Devicetype:
 381 0000 89130000 	 .word 5001
 382              	 .global sEntryDesc0x1000
 383              	 .section .rodata.sEntryDesc0x1000,"a",%progbits
 384              	 .align 2
 387              	sEntryDesc0x1000:
 388 0000 0700     	 .short 7
 389 0002 2000     	 .short 32
 390 0004 0700     	 .short 7
 391              	 .global aName0x1000
 392 0006 0000     	 .section .rodata.aName0x1000,"a",%progbits
 393              	 .align 2
 396              	aName0x1000:
 397 0000 44657669 	 .ascii "Device type\000"
 397      63652074 
 397      79706500 
 398              	 .global u16ErrorRegister
 399              	 .section .bss.u16ErrorRegister,"aw",%nobits
 400              	 .align 1
 403              	u16ErrorRegister:
 404 0000 0000     	 .space 2
 405              	 .global sEntryDesc0x1001
 406              	 .section .rodata.sEntryDesc0x1001,"a",%progbits
 407              	 .align 2
 410              	sEntryDesc0x1001:
 411 0000 0500     	 .short 5
 412 0002 0800     	 .short 8
 413 0004 0700     	 .short 7
 414              	 .global aName0x1001
 415 0006 0000     	 .section .rodata.aName0x1001,"a",%progbits
 416              	 .align 2
 419              	aName0x1001:
 420 0000 4572726F 	 .ascii "Error register\000"
 420      72207265 
 420      67697374 
 420      657200
 421              	 .global acDevicename
 422 000f 00       	 .section .data.acDevicename,"aw",%progbits
 423              	 .align 2
 426              	acDevicename:
 427 0000 584D435F 	 .ascii "XMC_ESC\000"
 427      45534300 
 428              	 .global sEntryDesc0x1008
 429              	 .section .rodata.sEntryDesc0x1008,"a",%progbits
 430              	 .align 2
 433              	sEntryDesc0x1008:
 434 0000 0900     	 .short 9
 435 0002 3800     	 .short 56
 436 0004 0700     	 .short 7
 437              	 .global aName0x1008
 438 0006 0000     	 .section .rodata.aName0x1008,"a",%progbits
 439              	 .align 2
 442              	aName0x1008:
 443 0000 44657669 	 .ascii "Device name\000"
 443      6365206E 
 443      616D6500 
 444              	 .global acHardwareversion
 445              	 .section .data.acHardwareversion,"aw",%progbits
 446              	 .align 2
 449              	acHardwareversion:
 450 0000 312E3000 	 .ascii "1.0\000"
 451              	 .global sEntryDesc0x1009
 452              	 .section .rodata.sEntryDesc0x1009,"a",%progbits
 453              	 .align 2
 456              	sEntryDesc0x1009:
 457 0000 0900     	 .short 9
 458 0002 1800     	 .short 24
 459 0004 0700     	 .short 7
 460              	 .global aName0x1009
 461 0006 0000     	 .section .rodata.aName0x1009,"a",%progbits
 462              	 .align 2
 465              	aName0x1009:
 466 0000 48617264 	 .ascii "Hardware version\000"
 466      77617265 
 466      20766572 
 466      73696F6E 
 466      00
 467              	 .global acSoftwareversion
 468 0011 000000   	 .section .data.acSoftwareversion,"aw",%progbits
 469              	 .align 2
 472              	acSoftwareversion:
 473 0000 352E3131 	 .ascii "5.11\000"
 473      00
 474              	 .global sEntryDesc0x100A
 475 0005 000000   	 .section .rodata.sEntryDesc0x100A,"a",%progbits
 476              	 .align 2
 479              	sEntryDesc0x100A:
 480 0000 0900     	 .short 9
 481 0002 2000     	 .short 32
 482 0004 0700     	 .short 7
 483              	 .global aName0x100A
 484 0006 0000     	 .section .rodata.aName0x100A,"a",%progbits
 485              	 .align 2
 488              	aName0x100A:
 489 0000 536F6674 	 .ascii "Software version\000"
 489      77617265 
 489      20766572 
 489      73696F6E 
 489      00
 490              	 .global sIdentity
 491 0011 000000   	 .section .data.sIdentity,"aw",%progbits
 492              	 .align 2
 495              	sIdentity:
 496 0000 0400     	 .short 4
 497 0002 0000     	 .space 2
 498 0004 34120000 	 .word 4660
 499 0008 00000000 	 .word 0
 500 000c 00000000 	 .word 0
 501 0010 00000000 	 .word 0
 502              	 .global asEntryDesc0x1018
 503              	 .section .rodata.asEntryDesc0x1018,"a",%progbits
 504              	 .align 2
 507              	asEntryDesc0x1018:
 508 0000 0500     	 .short 5
 509 0002 0800     	 .short 8
 510 0004 0700     	 .short 7
 511 0006 0700     	 .short 7
 512 0008 2000     	 .short 32
 513 000a 0700     	 .short 7
 514 000c 0700     	 .short 7
 515 000e 2000     	 .short 32
 516 0010 0700     	 .short 7
 517 0012 0700     	 .short 7
 518 0014 2000     	 .short 32
 519 0016 0700     	 .short 7
 520 0018 0700     	 .short 7
 521 001a 2000     	 .short 32
 522 001c 0700     	 .short 7
 523              	 .global aName0x1018
 524 001e 0000     	 .section .rodata.aName0x1018,"a",%progbits
 525              	 .align 2
 528              	aName0x1018:
 529 0000 4964656E 	 .ascii "Identity\000Vendor ID\000Product code\000Revision\000"
 529      74697479 
 529      0056656E 
 529      646F7220 
 529      49440050 
 530 0029 53657269 	 .ascii "Serial number\000\377\000"
 530      616C206E 
 530      756D6265 
 530      7200FF00 
 531              	 .global asEntryDesc0x10F1
 532 0039 000000   	 .section .rodata.asEntryDesc0x10F1,"a",%progbits
 533              	 .align 2
 536              	asEntryDesc0x10F1:
 537 0000 0500     	 .short 5
 538 0002 0800     	 .short 8
 539 0004 0700     	 .short 7
 540 0006 0700     	 .short 7
 541 0008 2000     	 .short 32
 542 000a 3F00     	 .short 63
 543 000c 0600     	 .short 6
 544 000e 1000     	 .short 16
 545 0010 3F00     	 .short 63
 546              	 .global aName0x10F1
 547 0012 0000     	 .section .rodata.aName0x10F1,"a",%progbits
 548              	 .align 2
 551              	aName0x10F1:
 552 0000 4572726F 	 .ascii "Error Settings\000Local Error Reaction\000Sync Erro"
 552      72205365 
 552      7474696E 
 552      6773004C 
 552      6F63616C 
 553 002d 7220436F 	 .ascii "r Counter Limit\000\377\000"
 553      756E7465 
 553      72204C69 
 553      6D697400 
 553      FF00
 554              	 .global sSyncmanagertype
 555 003f 00       	 .section .data.sSyncmanagertype,"aw",%progbits
 556              	 .align 2
 559              	sSyncmanagertype:
 560 0000 0400     	 .short 4
 561 0002 01       	 .byte 1
 562 0003 02       	 .byte 2
 563 0004 03       	 .byte 3
 564 0005 04       	 .byte 4
 565              	 .global asEntryDesc0x1C00
 566 0006 0000     	 .section .rodata.asEntryDesc0x1C00,"a",%progbits
 567              	 .align 2
 570              	asEntryDesc0x1C00:
 571 0000 0500     	 .short 5
 572 0002 0800     	 .short 8
 573 0004 0700     	 .short 7
 574 0006 0500     	 .short 5
 575 0008 0800     	 .short 8
 576 000a 0700     	 .short 7
 577              	 .global aName0x1C00
 578              	 .section .rodata.aName0x1C00,"a",%progbits
 579              	 .align 2
 582              	aName0x1C00:
 583 0000 53796E63 	 .ascii "Sync manager type\000"
 583      206D616E 
 583      61676572 
 583      20747970 
 583      6500
 584              	 .global asEntryDesc0x1C3x
 585 0012 0000     	 .section .rodata.asEntryDesc0x1C3x,"a",%progbits
 586              	 .align 2
 589              	asEntryDesc0x1C3x:
 590 0000 0500     	 .short 5
 591 0002 0800     	 .short 8
 592 0004 0700     	 .short 7
 593 0006 0600     	 .short 6
 594 0008 1000     	 .short 16
 595 000a 0F00     	 .short 15
 596 000c 0700     	 .short 7
 597 000e 2000     	 .short 32
 598 0010 0700     	 .short 7
 599 0012 0000     	 .short 0
 600 0014 2000     	 .short 32
 601 0016 0000     	 .short 0
 602 0018 0600     	 .short 6
 603 001a 1000     	 .short 16
 604 001c 0700     	 .short 7
 605 001e 0700     	 .short 7
 606 0020 2000     	 .short 32
 607 0022 0700     	 .short 7
 608 0024 0700     	 .short 7
 609 0026 2000     	 .short 32
 610 0028 0700     	 .short 7
 611 002a 0000     	 .short 0
 612 002c 2000     	 .short 32
 613 002e 0000     	 .short 0
 614 0030 0600     	 .short 6
 615 0032 1000     	 .short 16
 616 0034 3F00     	 .short 63
 617 0036 0700     	 .short 7
 618 0038 2000     	 .short 32
 619 003a 0700     	 .short 7
 620 003c 0700     	 .short 7
 621 003e 2000     	 .short 32
 622 0040 3F00     	 .short 63
 623 0042 0600     	 .short 6
 624 0044 1000     	 .short 16
 625 0046 0700     	 .short 7
 626 0048 0600     	 .short 6
 627 004a 1000     	 .short 16
 628 004c 0700     	 .short 7
 629 004e 0000     	 .short 0
 630 0050 1000     	 .short 16
 631 0052 0000     	 .short 0
 632 0054 0000     	 .short 0
 633 0056 1000     	 .short 16
 634 0058 0000     	 .short 0
 635 005a 0000     	 .short 0
 636 005c 2000     	 .short 32
 637 005e 0000     	 .short 0
 638 0060 0000     	 .short 0
 639 0062 2000     	 .short 32
 640 0064 0000     	 .short 0
 641 0066 0000     	 .short 0
 642 0068 2000     	 .short 32
 643 006a 0000     	 .short 0
 644 006c 0000     	 .short 0
 645 006e 2000     	 .short 32
 646 0070 0000     	 .short 0
 647 0072 0000     	 .short 0
 648 0074 0000     	 .short 0
 649 0076 0000     	 .short 0
 650 0078 0000     	 .short 0
 651 007a 0000     	 .short 0
 652 007c 0000     	 .short 0
 653 007e 0000     	 .short 0
 654 0080 0000     	 .short 0
 655 0082 0000     	 .short 0
 656 0084 0000     	 .short 0
 657 0086 0000     	 .short 0
 658 0088 0000     	 .short 0
 659 008a 0000     	 .short 0
 660 008c 0000     	 .short 0
 661 008e 0000     	 .short 0
 662 0090 0000     	 .short 0
 663 0092 0000     	 .short 0
 664 0094 0000     	 .short 0
 665 0096 0000     	 .short 0
 666 0098 0000     	 .short 0
 667 009a 0000     	 .short 0
 668 009c 0000     	 .short 0
 669 009e 0000     	 .short 0
 670 00a0 0000     	 .short 0
 671 00a2 0000     	 .short 0
 672 00a4 0000     	 .short 0
 673 00a6 0000     	 .short 0
 674 00a8 0000     	 .short 0
 675 00aa 0000     	 .short 0
 676 00ac 0000     	 .short 0
 677 00ae 0000     	 .short 0
 678 00b0 0000     	 .short 0
 679 00b2 0000     	 .short 0
 680 00b4 0000     	 .short 0
 681 00b6 0000     	 .short 0
 682 00b8 0000     	 .short 0
 683 00ba 0000     	 .short 0
 684 00bc 0000     	 .short 0
 685 00be 0000     	 .short 0
 686 00c0 0100     	 .short 1
 687 00c2 0100     	 .short 1
 688 00c4 0700     	 .short 7
 689              	 .global aName0x1C32
 690 00c6 0000     	 .section .rodata.aName0x1C32,"a",%progbits
 691              	 .align 2
 694              	aName0x1C32:
 695 0000 534D206F 	 .ascii "SM output parameter\000Synchronization Type\000Cycl"
 695      75747075 
 695      74207061 
 695      72616D65 
 695      74657200 
 696 002d 65205469 	 .ascii "e Time\000\000Synchronization Types supported\000Mi"
 696      6D650000 
 696      53796E63 
 696      68726F6E 
 696      697A6174 
 697 0057 6E696D75 	 .ascii "nimum Cycle Time\000Calc and Copy Time\000\000Get C"
 697      6D204379 
 697      636C6520 
 697      54696D65 
 697      0043616C 
 698 0081 79636C65 	 .ascii "ycle Time\000Delay Time\000Sync0 Cycle Time\000SM-E"
 698      2054696D 
 698      65004465 
 698      6C617920 
 698      54696D65 
 699 00ab 76656E74 	 .ascii "vent Missed\000Cycle Time Too Small\000Shift Time T"
 699      204D6973 
 699      73656400 
 699      4379636C 
 699      65205469 
 700 00d8 6F6F2053 	 .ascii "oo Short\000\000\000\000\000\000\000\000\000\000\000"
 700      686F7274 
 700      00000000 
 700      00000000 
 700      000000
 701 00eb 00000000 	 .ascii "\000\000\000\000\000\000\000\000Sync Error\000\377\000"
 701      00000000 
 701      53796E63 
 701      20457272 
 701      6F7200FF 
 702              	 .global aName0x1C33
 703              	 .section .rodata.aName0x1C33,"a",%progbits
 704              	 .align 2
 707              	aName0x1C33:
 708 0000 534D2069 	 .ascii "SM input parameter\000Synchronization Type\000Cycle"
 708      6E707574 
 708      20706172 
 708      616D6574 
 708      65720053 
 709 002d 2054696D 	 .ascii " Time\000\000Synchronization Types supported\000Min"
 709      65000053 
 709      796E6368 
 709      726F6E69 
 709      7A617469 
 710 0057 696D756D 	 .ascii "imum Cycle Time\000Calc and Copy Time\000\000Get Cy"
 710      20437963 
 710      6C652054 
 710      696D6500 
 710      43616C63 
 711 0081 636C6520 	 .ascii "cle Time\000Delay Time\000Sync0 Cycle Time\000SM-Ev"
 711      54696D65 
 711      0044656C 
 711      61792054 
 711      696D6500 
 712 00ab 656E7420 	 .ascii "ent Missed\000Cycle Time Too Small\000Shift Time To"
 712      4D697373 
 712      65640043 
 712      79636C65 
 712      2054696D 
 713 00d8 6F205368 	 .ascii "o Short\000\000\000\000\000\000\000\000\000\000\000"
 713      6F727400 
 713      00000000 
 713      00000000 
 713      0000
 714 00ea 00000000 	 .ascii "\000\000\000\000\000\000\000\000Sync Error\000\377\000"
 714      00000000 
 714      53796E63 
 714      20457272 
 714      6F7200FF 
 715              	 .global ObjDicList
 716 00ff 00       	 .section .bss.ObjDicList,"aw",%nobits
 717              	 .align 2
 720              	ObjDicList:
 721 0000 00000000 	 .space 4
 722              	 .global GenObjDic
 723              	 .section .data.GenObjDic,"aw",%progbits
 724              	 .align 2
 727              	GenObjDic:
 728 0000 00000000 	 .word 0
 729 0004 00000000 	 .word 0
 730 0008 0010     	 .short 4096
 731 000a 0700     	 .short 7
 732 000c 0007     	 .short 1792
 733 000e 0000     	 .space 2
 734 0010 00000000 	 .word sEntryDesc0x1000
 735 0014 00000000 	 .word aName0x1000
 736 0018 00000000 	 .word u32Devicetype
 737 001c 00000000 	 .word 0
 738 0020 00000000 	 .word 0
 739 0024 0000     	 .short 0
 740 0026 0000     	 .space 2
 741 0028 00000000 	 .word 0
 742 002c 00000000 	 .word 0
 743 0030 0110     	 .short 4097
 744 0032 0500     	 .short 5
 745 0034 0007     	 .short 1792
 746 0036 0000     	 .space 2
 747 0038 00000000 	 .word sEntryDesc0x1001
 748 003c 00000000 	 .word aName0x1001
 749 0040 00000000 	 .word u16ErrorRegister
 750 0044 00000000 	 .word 0
 751 0048 00000000 	 .word 0
 752 004c 0000     	 .short 0
 753 004e 0000     	 .space 2
 754 0050 00000000 	 .word 0
 755 0054 00000000 	 .word 0
 756 0058 0810     	 .short 4104
 757 005a 0900     	 .short 9
 758 005c 0007     	 .short 1792
 759 005e 0000     	 .space 2
 760 0060 00000000 	 .word sEntryDesc0x1008
 761 0064 00000000 	 .word aName0x1008
 762 0068 00000000 	 .word acDevicename
 763 006c 00000000 	 .word 0
 764 0070 00000000 	 .word 0
 765 0074 0000     	 .short 0
 766 0076 0000     	 .space 2
 767 0078 00000000 	 .word 0
 768 007c 00000000 	 .word 0
 769 0080 0910     	 .short 4105
 770 0082 0900     	 .short 9
 771 0084 0007     	 .short 1792
 772 0086 0000     	 .space 2
 773 0088 00000000 	 .word sEntryDesc0x1009
 774 008c 00000000 	 .word aName0x1009
 775 0090 00000000 	 .word acHardwareversion
 776 0094 00000000 	 .word 0
 777 0098 00000000 	 .word 0
 778 009c 0000     	 .short 0
 779 009e 0000     	 .space 2
 780 00a0 00000000 	 .word 0
 781 00a4 00000000 	 .word 0
 782 00a8 0A10     	 .short 4106
 783 00aa 0900     	 .short 9
 784 00ac 0007     	 .short 1792
 785 00ae 0000     	 .space 2
 786 00b0 00000000 	 .word sEntryDesc0x100A
 787 00b4 00000000 	 .word aName0x100A
 788 00b8 00000000 	 .word acSoftwareversion
 789 00bc 00000000 	 .word 0
 790 00c0 00000000 	 .word 0
 791 00c4 0000     	 .short 0
 792 00c6 0000     	 .space 2
 793 00c8 00000000 	 .word 0
 794 00cc 00000000 	 .word 0
 795 00d0 1810     	 .short 4120
 796 00d2 2300     	 .short 35
 797 00d4 0409     	 .short 2308
 798 00d6 0000     	 .space 2
 799 00d8 00000000 	 .word asEntryDesc0x1018
 800 00dc 00000000 	 .word aName0x1018
 801 00e0 00000000 	 .word sIdentity
 802 00e4 00000000 	 .word 0
 803 00e8 00000000 	 .word 0
 804 00ec 0000     	 .short 0
 805 00ee 0000     	 .space 2
 806 00f0 00000000 	 .word 0
 807 00f4 00000000 	 .word 0
 808 00f8 F110     	 .short 4337
 809 00fa 2A00     	 .short 42
 810 00fc 0209     	 .short 2306
 811 00fe 0000     	 .space 2
 812 0100 00000000 	 .word asEntryDesc0x10F1
 813 0104 00000000 	 .word aName0x10F1
 814 0108 00000000 	 .word sErrorSettings
 815 010c 00000000 	 .word 0
 816 0110 00000000 	 .word 0
 817 0114 0000     	 .short 0
 818 0116 0000     	 .space 2
 819 0118 00000000 	 .word 0
 820 011c 00000000 	 .word 0
 821 0120 001C     	 .short 7168
 822 0122 0500     	 .short 5
 823 0124 0408     	 .short 2052
 824 0126 0000     	 .space 2
 825 0128 00000000 	 .word asEntryDesc0x1C00
 826 012c 00000000 	 .word aName0x1C00
 827 0130 00000000 	 .word sSyncmanagertype
 828 0134 00000000 	 .word 0
 829 0138 00000000 	 .word 0
 830 013c 0000     	 .short 0
 831 013e 0000     	 .space 2
 832 0140 00000000 	 .word 0
 833 0144 00000000 	 .word 0
 834 0148 321C     	 .short 7218
 835 014a 2900     	 .short 41
 836 014c 2009     	 .short 2336
 837 014e 0000     	 .space 2
 838 0150 00000000 	 .word asEntryDesc0x1C3x
 839 0154 00000000 	 .word aName0x1C32
 840 0158 00000000 	 .word sSyncManOutPar
 841 015c 00000000 	 .word 0
 842 0160 00000000 	 .word 0
 843 0164 0000     	 .short 0
 844 0166 0000     	 .space 2
 845 0168 00000000 	 .word 0
 846 016c 00000000 	 .word 0
 847 0170 331C     	 .short 7219
 848 0172 2900     	 .short 41
 849 0174 2009     	 .short 2336
 850 0176 0000     	 .space 2
 851 0178 00000000 	 .word asEntryDesc0x1C3x
 852 017c 00000000 	 .word aName0x1C33
 853 0180 00000000 	 .word sSyncManInPar
 854 0184 00000000 	 .word 0
 855 0188 00000000 	 .word 0
 856 018c 0000     	 .short 0
 857 018e 0000     	 .space 2
 858 0190 00000000 	 .word 0
 859 0194 00000000 	 .word 0
 860 0198 FFFF     	 .short -1
 861 019a 0000     	 .short 0
 862 019c 0000     	 .short 0
 863 019e 0000     	 .space 2
 864 01a0 00000000 	 .word 0
 865 01a4 00000000 	 .word 0
 866 01a8 00000000 	 .word 0
 867 01ac 00000000 	 .word 0
 868 01b0 00000000 	 .word 0
 869 01b4 0000     	 .short 0
 870 01b6 0000     	 .space 2
 871              	 .section .text.COE_GetObjectDictionary,"ax",%progbits
 872              	 .align 2
 873              	 .global COE_GetObjectDictionary
 874              	 .thumb
 875              	 .thumb_func
 877              	COE_GetObjectDictionary:
 878              	.LFB172:
 879              	 .file 1 "../SSC/Src/coeappl.c"
   1:../SSC/Src/coeappl.c **** /**
   2:../SSC/Src/coeappl.c **** \addtogroup CoE CAN Application Profile over EtherCAT
   3:../SSC/Src/coeappl.c **** @{
   4:../SSC/Src/coeappl.c **** */
   5:../SSC/Src/coeappl.c **** 
   6:../SSC/Src/coeappl.c **** /**
   7:../SSC/Src/coeappl.c **** \file coeappl.c
   8:../SSC/Src/coeappl.c **** \author EthercatSSC@beckhoff.com
   9:../SSC/Src/coeappl.c **** \brief Implementation
  10:../SSC/Src/coeappl.c **** This file contains an example for CoE services and the CoE object dictionary
  11:../SSC/Src/coeappl.c **** 
  12:../SSC/Src/coeappl.c **** \version 5.11
  13:../SSC/Src/coeappl.c **** 
  14:../SSC/Src/coeappl.c **** <br>Changes to version V5.10:<br>
  15:../SSC/Src/coeappl.c **** V5.11 COE1: update invalid end entry in the object dictionaries (error with some compilers)<br>
  16:../SSC/Src/coeappl.c **** V5.11 COE3: change 0x10F3.2 (Sync Error limit) from UINT32 to UINT16 (according to the ETG.1020)<br
  17:../SSC/Src/coeappl.c **** V5.11 ECAT10: change PROTO handling to prevent compiler errors<br>
  18:../SSC/Src/coeappl.c **** V5.11 ECAT4: enhance SM/Sync monitoring for input/output only slaves<br>
  19:../SSC/Src/coeappl.c **** <br>Changes to version V5.01:<br>
  20:../SSC/Src/coeappl.c **** V5.10 COE1: Define one entry description for all 0x1C3x objects and change data type of SI11,12,13 
  21:../SSC/Src/coeappl.c **** V5.10 COE2: Change return value of Get ObjectSize to UINT32<br>
  22:../SSC/Src/coeappl.c ****             Change object size to UINT32<br>
  23:../SSC/Src/coeappl.c **** V5.10 ECAT13: Update Synchronisation handling (FreeRun,SM Sync, Sync0, Sync1)<br>
  24:../SSC/Src/coeappl.c ****               Compare DC UINT configuration (by ESC Config data) vs. DC activation register setting
  25:../SSC/Src/coeappl.c ****               Update 0x1C3x entries<br>
  26:../SSC/Src/coeappl.c **** <br>Changes to version V5.0:<br>
  27:../SSC/Src/coeappl.c **** V5.01 APPL3: Include library demo application<br>
  28:../SSC/Src/coeappl.c **** V5.01 COE1: Remove alignment entry (SI33) from objects 0x1C32/0x1C33<br>
  29:../SSC/Src/coeappl.c **** V5.01 EL9800 1: Read/Write functions for setting object 0x8020 moved to el9800appl.c<br>
  30:../SSC/Src/coeappl.c **** V5.01 EL9800 2: Add TxPdo Parameter object 0x1802<br>
  31:../SSC/Src/coeappl.c **** V5.01 SDO6: Update SDO response interface handling. (used if the object access function returns "AB
  32:../SSC/Src/coeappl.c **** <br>Changes to version V4.40:<br>
  33:../SSC/Src/coeappl.c **** V5.0 TEST1: Add test application. See Application Note ET9300 for more details.<br>
  34:../SSC/Src/coeappl.c **** V5.0 COE1: Add reserved Subindex7 to object 0x1C32 and 0x1C33.<br>
  35:../SSC/Src/coeappl.c **** V5.0 COE4: Create object dictionary on device startup.<br>
  36:../SSC/Src/coeappl.c **** V5.0 COE6: Update entry descriptions for object with the code ARRAY.<br>
  37:../SSC/Src/coeappl.c **** V5.0 ECAT2: Reference to application specific object dictionary is set to "ApplicationObjDic".<br>
  38:../SSC/Src/coeappl.c **** <br>Changes to version V4.30:<br>
  39:../SSC/Src/coeappl.c **** V4.40 COE 6: change dynamic object dictionary handling<br>
  40:../SSC/Src/coeappl.c **** V4.40 CiA402 2: enable freerun Sync Mode for CiA402 Device (The motion controller application will 
  41:../SSC/Src/coeappl.c **** V4.40 COE5: move identification and synchronisation object values to ecat_def.h<br>
  42:../SSC/Src/coeappl.c **** V4.40 DIAG1: Add diagnosis object 0x10F3<br>
  43:../SSC/Src/coeappl.c **** V4.40 OBJ3: Update the global object dictionary pointer if a new list head is added<br>
  44:../SSC/Src/coeappl.c **** V4.40 COE4: Prevent access NULL pointer<br>
  45:../SSC/Src/coeappl.c **** V4.40 SYNC1: Initialize 0x1C3x objects<br>
  46:../SSC/Src/coeappl.c **** V4.40 HW1: Add (adapt) objects for FC1100 support<br>
  47:../SSC/Src/coeappl.c **** <br>Changes to version V4.20:<br>
  48:../SSC/Src/coeappl.c **** V4.30 OBJ 3: Handle object dictionary in double link list<br>
  49:../SSC/Src/coeappl.c **** V4.30 OBJ 2: General EtherCAT device objects are moved from chnappl.h to coeappl.c<br>
  50:../SSC/Src/coeappl.c **** V4.30 SYNC: set 0x1C32:05; 0x1C33:05 (minCyleTime) to MIN_PD_CYCLE_TIME
  51:../SSC/Src/coeappl.c ****                     (should be set dynamic if required)<br>
  52:../SSC/Src/coeappl.c **** V4.30 PDO: rename PDO specific function calls
  53:../SSC/Src/coeappl.c ****                     (PDO specific functions are moved to ecatappl.c)<br>
  54:../SSC/Src/coeappl.c **** V4.20 PIC24: Add EL9800_4 (PIC24) required source code<br>
  55:../SSC/Src/coeappl.c **** V4.11 ECAT 1: C166: MinDelayTime renamed in CalcAndCopyTime<br>
  56:../SSC/Src/coeappl.c **** <br>Changes to version V4.07:<br>
  57:../SSC/Src/coeappl.c **** V4.10 ECAT 1: To save and restore arrays in the object directory.<br>
  58:../SSC/Src/coeappl.c ****             The code to get the size of an array entry was changed.<br>
  59:../SSC/Src/coeappl.c **** V4.10 COE 1:  The SM-Parameter were extended<br>
  60:../SSC/Src/coeappl.c **** <br>Changes to version V4.06:<br>
  61:../SSC/Src/coeappl.c **** V4.07 COEAPPL 1: The PDO numbers were adapted according top the modular device profile,<br>
  62:../SSC/Src/coeappl.c ****            the PDO numbers increment now with every module (in chnappl.h)<br>
  63:../SSC/Src/coeappl.c **** V4.07 COEAPPL 2: The example is working for the NIOS with the evaluation board DBC2C20 V1.2<br>
  64:../SSC/Src/coeappl.c ****             which is available by Altera<br>
  65:../SSC/Src/coeappl.c **** V4.07 ECAT 1: The sources for SPI and MCI were merged (in ecat_def.h<br>
  66:../SSC/Src/coeappl.c ****             set the switch MCI_HW to 1 when using the MCI,<br>
  67:../SSC/Src/coeappl.c ****             set the switch SPI_HW to 1 when using the SPI<br>
  68:../SSC/Src/coeappl.c **** <br>Changes to version V4.03:<br>
  69:../SSC/Src/coeappl.c **** V4.04 SDO 1: The SDO interface was changed in that way that a SDO response<br>
  70:../SSC/Src/coeappl.c ****             could be sent by the application to a later time. In that case<br>
  71:../SSC/Src/coeappl.c ****             the functions OBJ_Read and OBJ_Write shall return the value<br>
  72:../SSC/Src/coeappl.c ****             ABORTIDX_WORKING. To send the SDO response the new function SDOS_SdoRes<br>
  73:../SSC/Src/coeappl.c ****             has to be called by the application. While waiting for the call<br>
  74:../SSC/Src/coeappl.c ****             of SDOS_SdoRes the SDO interface will answer to another SDO request<br>
  75:../SSC/Src/coeappl.c ****             with the error MBXERR_SERVICEINWORK in the mailbox protocol.<br>
  76:../SSC/Src/coeappl.c ****             In this example the reading and writing of object 0x8020 is delayed,<br>
  77:../SSC/Src/coeappl.c ****             the function SDOS_SdoRes will be called from COE_Main.<br>
  78:../SSC/Src/coeappl.c **** <br>Changes to version V4.00:<br>
  79:../SSC/Src/coeappl.c **** V4.01 COEAPPL 1: The object dictionary and the mapping functions are now defined<br>
  80:../SSC/Src/coeappl.c ****              in chnappl.h (chnappl.inc made problems with some developing tools)<br>
  81:../SSC/Src/coeappl.c **** <br>Changes to version V3.20:<br>
  82:../SSC/Src/coeappl.c **** V4.00 COEAPPL 1: The object dictionary and the mapping functions are now defined<br>
  83:../SSC/Src/coeappl.c ****             in chnappl.c and were adapted to the modular device profile<br>
  84:../SSC/Src/coeappl.c **** V4.00 COEAPPL 2: The handling of backup parameters was included according to<br>
  85:../SSC/Src/coeappl.c ****             the EtherCAT Guidelines and Protocol Enhancements Specification<br>
  86:../SSC/Src/coeappl.c **** V4.00 COEAPPL 3: The handling of the TxPDO Toggle was included according to<br>
  87:../SSC/Src/coeappl.c ****              the EtherCAT Guidelines and Protocol Enhancements Specification<br>
  88:../SSC/Src/coeappl.c **** V4.00 COEAPPL 4: The handling of the TxPDO State was included according to<br>
  89:../SSC/Src/coeappl.c ****             the EtherCAT Guidelines and Protocol Enhancements Specification<br>
  90:../SSC/Src/coeappl.c **** V4.00 ECAT 1: The handling of the Sync Manager Parameter was included according to<br>
  91:../SSC/Src/coeappl.c ****             the EtherCAT Guidelines and Protocol Enhancements Specification
  92:../SSC/Src/coeappl.c **** */
  93:../SSC/Src/coeappl.c **** 
  94:../SSC/Src/coeappl.c **** /*-----------------------------------------------------------------------------------------
  95:../SSC/Src/coeappl.c **** ------
  96:../SSC/Src/coeappl.c **** ------    Includes
  97:../SSC/Src/coeappl.c **** ------
  98:../SSC/Src/coeappl.c **** -----------------------------------------------------------------------------------------*/
  99:../SSC/Src/coeappl.c **** 
 100:../SSC/Src/coeappl.c **** #include "ecat_def.h"
 101:../SSC/Src/coeappl.c **** 
 102:../SSC/Src/coeappl.c **** 
 103:../SSC/Src/coeappl.c **** #include "ecatslv.h"
 104:../SSC/Src/coeappl.c **** 
 105:../SSC/Src/coeappl.c **** #define _COEAPPL_    1
 106:../SSC/Src/coeappl.c **** #include "coeappl.h"
 107:../SSC/Src/coeappl.c **** #undef _COEAPPL_
 108:../SSC/Src/coeappl.c **** /* ECATCHANGE_START(V5.11) ECAT10*/
 109:../SSC/Src/coeappl.c **** /*remove definition of _COEAPPL_ (#ifdef is used in coeappl.h)*/
 110:../SSC/Src/coeappl.c **** /* ECATCHANGE_END(V5.11) ECAT10*/
 111:../SSC/Src/coeappl.c **** 
 112:../SSC/Src/coeappl.c **** #define _OBJD_
 113:../SSC/Src/coeappl.c **** 
 114:../SSC/Src/coeappl.c **** /*Add Application specific Objects*/
 115:../SSC/Src/coeappl.c **** #include "XMC_ESC.h"
 116:../SSC/Src/coeappl.c **** 
 117:../SSC/Src/coeappl.c **** 
 118:../SSC/Src/coeappl.c **** #undef _OBJD_
 119:../SSC/Src/coeappl.c **** /*-----------------------------------------------------------------------------------------
 120:../SSC/Src/coeappl.c **** ------
 121:../SSC/Src/coeappl.c **** ------    Backup Parameter
 122:../SSC/Src/coeappl.c **** ------
 123:../SSC/Src/coeappl.c **** -----------------------------------------------------------------------------------------*/
 124:../SSC/Src/coeappl.c **** 
 125:../SSC/Src/coeappl.c **** /*-----------------------------------------------------------------------------------------
 126:../SSC/Src/coeappl.c **** ------
 127:../SSC/Src/coeappl.c **** ------    Generic EtherCAT device object
 128:../SSC/Src/coeappl.c **** ------
 129:../SSC/Src/coeappl.c **** -----------------------------------------------------------------------------------------*/
 130:../SSC/Src/coeappl.c **** 
 131:../SSC/Src/coeappl.c **** /*---------------------------------------------
 132:../SSC/Src/coeappl.c **** -    0x1000
 133:../SSC/Src/coeappl.c **** -----------------------------------------------*/
 134:../SSC/Src/coeappl.c **** /**
 135:../SSC/Src/coeappl.c ****  * \brief 0x1000 (Device type) variable to handle the object data
 136:../SSC/Src/coeappl.c ****  */
 137:../SSC/Src/coeappl.c **** UINT32 u32Devicetype = (DEVICE_PROFILE_TYPE);
 138:../SSC/Src/coeappl.c **** 
 139:../SSC/Src/coeappl.c **** /**
 140:../SSC/Src/coeappl.c ****  * \brief 0x1000 (Device type) entry description
 141:../SSC/Src/coeappl.c ****  */
 142:../SSC/Src/coeappl.c **** OBJCONST TSDOINFOENTRYDESC    OBJMEM sEntryDesc0x1000 = {DEFTYPE_UNSIGNED32, 0x20, ACCESS_READ};
 143:../SSC/Src/coeappl.c **** 
 144:../SSC/Src/coeappl.c **** /**
 145:../SSC/Src/coeappl.c ****  * \brief 0x1000 (Device type) object name
 146:../SSC/Src/coeappl.c ****  */
 147:../SSC/Src/coeappl.c **** OBJCONST UCHAR OBJMEM aName0x1000[] = "Device type";
 148:../SSC/Src/coeappl.c **** 
 149:../SSC/Src/coeappl.c **** 
 150:../SSC/Src/coeappl.c **** /*---------------------------------------------
 151:../SSC/Src/coeappl.c **** -    0x1001
 152:../SSC/Src/coeappl.c **** -----------------------------------------------*/
 153:../SSC/Src/coeappl.c **** /**
 154:../SSC/Src/coeappl.c ****  * \brief 0x1001 (Error Register) variable to handle the object data
 155:../SSC/Src/coeappl.c ****  */
 156:../SSC/Src/coeappl.c **** UINT16 u16ErrorRegister = 0x0;
 157:../SSC/Src/coeappl.c **** 
 158:../SSC/Src/coeappl.c **** /**
 159:../SSC/Src/coeappl.c ****  * \brief 0x1001 (Error Register) entry description
 160:../SSC/Src/coeappl.c ****  */
 161:../SSC/Src/coeappl.c **** OBJCONST TSDOINFOENTRYDESC    OBJMEM sEntryDesc0x1001 = {DEFTYPE_UNSIGNED8, 0x08, ACCESS_READ};
 162:../SSC/Src/coeappl.c **** 
 163:../SSC/Src/coeappl.c **** /**
 164:../SSC/Src/coeappl.c ****  * \brief 0x1001 (Error Register) object name
 165:../SSC/Src/coeappl.c ****  */
 166:../SSC/Src/coeappl.c **** OBJCONST UCHAR OBJMEM aName0x1001[] = "Error register";
 167:../SSC/Src/coeappl.c **** 
 168:../SSC/Src/coeappl.c **** 
 169:../SSC/Src/coeappl.c **** /*---------------------------------------------
 170:../SSC/Src/coeappl.c **** -    0x1008
 171:../SSC/Src/coeappl.c **** -----------------------------------------------*/
 172:../SSC/Src/coeappl.c **** /**
 173:../SSC/Src/coeappl.c ****  * \brief 0x1008 (Device name) variable to handle the object data
 174:../SSC/Src/coeappl.c ****  */
 175:../SSC/Src/coeappl.c **** CHAR acDevicename[] = DEVICE_NAME;
 176:../SSC/Src/coeappl.c **** 
 177:../SSC/Src/coeappl.c **** /**
 178:../SSC/Src/coeappl.c ****  * \brief 0x1008 (Device name) entry description
 179:../SSC/Src/coeappl.c ****  */
 180:../SSC/Src/coeappl.c **** OBJCONST TSDOINFOENTRYDESC    OBJMEM sEntryDesc0x1008 = {DEFTYPE_VISIBLESTRING, BYTE2BIT(DEVICE_NAM
 181:../SSC/Src/coeappl.c **** 
 182:../SSC/Src/coeappl.c **** /**
 183:../SSC/Src/coeappl.c ****  * \brief 0x1008 (Device name) object name
 184:../SSC/Src/coeappl.c ****  */
 185:../SSC/Src/coeappl.c **** OBJCONST UCHAR OBJMEM aName0x1008[] = "Device name";
 186:../SSC/Src/coeappl.c **** 
 187:../SSC/Src/coeappl.c **** 
 188:../SSC/Src/coeappl.c **** /*---------------------------------------------
 189:../SSC/Src/coeappl.c **** -    0x1009
 190:../SSC/Src/coeappl.c **** -----------------------------------------------*/
 191:../SSC/Src/coeappl.c **** /**
 192:../SSC/Src/coeappl.c ****  * \brief 0x1009 (Hardware version) variable to handle the object data
 193:../SSC/Src/coeappl.c ****  */
 194:../SSC/Src/coeappl.c **** CHAR acHardwareversion[] = DEVICE_HW_VERSION;
 195:../SSC/Src/coeappl.c **** 
 196:../SSC/Src/coeappl.c **** /**
 197:../SSC/Src/coeappl.c ****  * \brief 0x1009 (Hardware version) entry description
 198:../SSC/Src/coeappl.c ****  */
 199:../SSC/Src/coeappl.c **** OBJCONST TSDOINFOENTRYDESC    OBJMEM sEntryDesc0x1009 = {DEFTYPE_VISIBLESTRING,BYTE2BIT(DEVICE_HW_V
 200:../SSC/Src/coeappl.c **** 
 201:../SSC/Src/coeappl.c **** /**
 202:../SSC/Src/coeappl.c ****  * \brief 0x1009 (Hardware version) object name
 203:../SSC/Src/coeappl.c ****  */
 204:../SSC/Src/coeappl.c **** OBJCONST UCHAR OBJMEM aName0x1009[] = "Hardware version";
 205:../SSC/Src/coeappl.c **** 
 206:../SSC/Src/coeappl.c **** 
 207:../SSC/Src/coeappl.c **** /*---------------------------------------------
 208:../SSC/Src/coeappl.c **** -    0x100A
 209:../SSC/Src/coeappl.c **** -----------------------------------------------*/
 210:../SSC/Src/coeappl.c **** /**
 211:../SSC/Src/coeappl.c ****  * \brief 0x100A (Software version) variable to handle the object data
 212:../SSC/Src/coeappl.c ****  */
 213:../SSC/Src/coeappl.c **** CHAR acSoftwareversion[] = DEVICE_SW_VERSION;
 214:../SSC/Src/coeappl.c **** 
 215:../SSC/Src/coeappl.c **** /**
 216:../SSC/Src/coeappl.c ****  * \brief 0x1009 (Hardware version) entry description
 217:../SSC/Src/coeappl.c ****  */
 218:../SSC/Src/coeappl.c **** OBJCONST TSDOINFOENTRYDESC    OBJMEM sEntryDesc0x100A = {DEFTYPE_VISIBLESTRING,BYTE2BIT(DEVICE_SW_V
 219:../SSC/Src/coeappl.c **** 
 220:../SSC/Src/coeappl.c **** /**
 221:../SSC/Src/coeappl.c ****  * \brief 0x1009 (Hardware version) object name
 222:../SSC/Src/coeappl.c ****  */
 223:../SSC/Src/coeappl.c **** OBJCONST UCHAR OBJMEM aName0x100A[] = "Software version";
 224:../SSC/Src/coeappl.c **** 
 225:../SSC/Src/coeappl.c **** 
 226:../SSC/Src/coeappl.c **** 
 227:../SSC/Src/coeappl.c **** 
 228:../SSC/Src/coeappl.c **** /*---------------------------------------------
 229:../SSC/Src/coeappl.c **** -    0x1018
 230:../SSC/Src/coeappl.c **** -----------------------------------------------*/
 231:../SSC/Src/coeappl.c **** /**
 232:../SSC/Src/coeappl.c ****  * \brief 0x1018 (Identity) object structure
 233:../SSC/Src/coeappl.c ****  */
 234:../SSC/Src/coeappl.c **** typedef struct OBJ_STRUCT_PACKED_START {
 235:../SSC/Src/coeappl.c ****    UINT16   u16SubIndex0; /**< \brief SubIndex 0*/
 236:../SSC/Src/coeappl.c ****    UINT32   u32VendorID; /**< \brief EtherCAT vendor ID */
 237:../SSC/Src/coeappl.c ****    UINT32   u32Productcode; /**< \brief Product code*/
 238:../SSC/Src/coeappl.c ****    UINT32   u32Revision; /**< \brief Revision number*/
 239:../SSC/Src/coeappl.c ****    UINT32   u32Serialnumber; /**< \brief Serial number*/
 240:../SSC/Src/coeappl.c **** } OBJ_STRUCT_PACKED_END
 241:../SSC/Src/coeappl.c **** TOBJ1018;
 242:../SSC/Src/coeappl.c **** 
 243:../SSC/Src/coeappl.c **** /**
 244:../SSC/Src/coeappl.c ****  * \brief 0x1018 (Identity) variable to handle the object data
 245:../SSC/Src/coeappl.c ****  */
 246:../SSC/Src/coeappl.c **** TOBJ1018 sIdentity = {4, (VENDOR_ID), (PRODUCT_CODE), (REVISION_NUMBER), (SERIAL_NUMBER)};
 247:../SSC/Src/coeappl.c **** 
 248:../SSC/Src/coeappl.c **** /**
 249:../SSC/Src/coeappl.c ****  * \brief 0x1018 (Identity) entry descriptions
 250:../SSC/Src/coeappl.c ****  * 
 251:../SSC/Src/coeappl.c ****  * Subindex 000
 252:../SSC/Src/coeappl.c ****  * SubIndex 001: Vendor ID
 253:../SSC/Src/coeappl.c ****  * SubIndex 002: Product code
 254:../SSC/Src/coeappl.c ****  * SubIndex 003: Revision
 255:../SSC/Src/coeappl.c ****  * SubIndex 004: Serial number
 256:../SSC/Src/coeappl.c ****  */
 257:../SSC/Src/coeappl.c **** OBJCONST TSDOINFOENTRYDESC    OBJMEM asEntryDesc0x1018[] = {
 258:../SSC/Src/coeappl.c ****    {DEFTYPE_UNSIGNED8, 0x8, ACCESS_READ },
 259:../SSC/Src/coeappl.c ****    {DEFTYPE_UNSIGNED32, 0x20, ACCESS_READ}, 
 260:../SSC/Src/coeappl.c ****    {DEFTYPE_UNSIGNED32, 0x20, ACCESS_READ}, 
 261:../SSC/Src/coeappl.c ****    {DEFTYPE_UNSIGNED32, 0x20, ACCESS_READ}, 
 262:../SSC/Src/coeappl.c ****    {DEFTYPE_UNSIGNED32, 0x20, ACCESS_READ}};
 263:../SSC/Src/coeappl.c **** 
 264:../SSC/Src/coeappl.c **** /**
 265:../SSC/Src/coeappl.c ****  * \brief 0x1018 (Identity) object and entry names
 266:../SSC/Src/coeappl.c ****  */
 267:../SSC/Src/coeappl.c **** OBJCONST UCHAR OBJMEM aName0x1018[] = "Identity\000Vendor ID\000Product code\000Revision\000Serial 
 268:../SSC/Src/coeappl.c **** 
 269:../SSC/Src/coeappl.c **** 
 270:../SSC/Src/coeappl.c **** 
 271:../SSC/Src/coeappl.c **** /*---------------------------------------------
 272:../SSC/Src/coeappl.c **** -    0x10F1
 273:../SSC/Src/coeappl.c **** -----------------------------------------------*/
 274:../SSC/Src/coeappl.c **** /**
 275:../SSC/Src/coeappl.c ****  * \brief 0x10F1 (Error settings) entry description
 276:../SSC/Src/coeappl.c ****  * Subindex 000
 277:../SSC/Src/coeappl.c ****  * SubIndex 001: Local Error Reaction
 278:../SSC/Src/coeappl.c ****  * SubIndex 002: Sync Error Counter Limit
 279:../SSC/Src/coeappl.c ****  */
 280:../SSC/Src/coeappl.c **** OBJCONST TSDOINFOENTRYDESC    OBJMEM asEntryDesc0x10F1[] = {
 281:../SSC/Src/coeappl.c ****    {DEFTYPE_UNSIGNED8, 0x8, ACCESS_READ },
 282:../SSC/Src/coeappl.c ****    {DEFTYPE_UNSIGNED32, 0x20, ACCESS_READWRITE}, 
 283:../SSC/Src/coeappl.c **** /*ECATCHANGE_START(V5.11) COE3*/
 284:../SSC/Src/coeappl.c ****    {DEFTYPE_UNSIGNED16, 0x10, ACCESS_READWRITE}};
 285:../SSC/Src/coeappl.c **** /*ECATCHANGE_END(V5.11) COE3*/
 286:../SSC/Src/coeappl.c **** 
 287:../SSC/Src/coeappl.c **** /**
 288:../SSC/Src/coeappl.c ****  * \brief 0x10F1 (Error settings) object and entry names
 289:../SSC/Src/coeappl.c ****  */   
 290:../SSC/Src/coeappl.c **** OBJCONST UCHAR OBJMEM aName0x10F1[] = "Error Settings\000Local Error Reaction\000Sync Error Counter
 291:../SSC/Src/coeappl.c **** 
 292:../SSC/Src/coeappl.c **** 
 293:../SSC/Src/coeappl.c **** //object declaration and initialization in objdef.h
 294:../SSC/Src/coeappl.c **** 
 295:../SSC/Src/coeappl.c **** 
 296:../SSC/Src/coeappl.c **** /*---------------------------------------------
 297:../SSC/Src/coeappl.c **** -    0x1C00
 298:../SSC/Src/coeappl.c **** -----------------------------------------------*/
 299:../SSC/Src/coeappl.c **** /**
 300:../SSC/Src/coeappl.c ****  * \brief 0x1C00 (Sync manager type) object structure
 301:../SSC/Src/coeappl.c ****  */
 302:../SSC/Src/coeappl.c **** typedef struct OBJ_STRUCT_PACKED_START {
 303:../SSC/Src/coeappl.c ****    UINT16   u16SubIndex0; /**< \brief SubIndex 0*/
 304:../SSC/Src/coeappl.c ****    UINT8   aEntries[4]; /**< \brief Entry buffer (one for each SyncManager)*/
 305:../SSC/Src/coeappl.c **** } OBJ_STRUCT_PACKED_END
 306:../SSC/Src/coeappl.c **** TOBJ1C00;
 307:../SSC/Src/coeappl.c **** 
 308:../SSC/Src/coeappl.c **** /**
 309:../SSC/Src/coeappl.c ****  * \brief 0x1C00 (Sync manager type) variable to handle the object data
 310:../SSC/Src/coeappl.c ****  *
 311:../SSC/Src/coeappl.c ****  * SI 0 : 4 (4 SyncManagers available)
 312:../SSC/Src/coeappl.c ****  * SI1 (SM0): Mailbox Out (0x1)
 313:../SSC/Src/coeappl.c ****  * SI2 (SM1): Mailbox In (0x2)
 314:../SSC/Src/coeappl.c ****  * SI3 (SM2): Process data Out (0x3)
 315:../SSC/Src/coeappl.c ****  * SI4 (SM3): Process data In (0x4)
 316:../SSC/Src/coeappl.c ****  *
 317:../SSC/Src/coeappl.c ****  */
 318:../SSC/Src/coeappl.c **** TOBJ1C00 sSyncmanagertype = {0x04, {0x01, 0x02, 0x03, 0x04}};
 319:../SSC/Src/coeappl.c **** 
 320:../SSC/Src/coeappl.c **** 
 321:../SSC/Src/coeappl.c **** /**
 322:../SSC/Src/coeappl.c ****  * \brief 0x1C00 (Sync manager type) entry descriptions
 323:../SSC/Src/coeappl.c ****  *
 324:../SSC/Src/coeappl.c ****  * The object is an array so only the first entry is described (which is used for all entries).
 325:../SSC/Src/coeappl.c ****  */
 326:../SSC/Src/coeappl.c **** OBJCONST TSDOINFOENTRYDESC    OBJMEM asEntryDesc0x1C00[2] = {
 327:../SSC/Src/coeappl.c ****    {DEFTYPE_UNSIGNED8, 0x08, ACCESS_READ},
 328:../SSC/Src/coeappl.c ****    {DEFTYPE_UNSIGNED8, 0x08, ACCESS_READ}};
 329:../SSC/Src/coeappl.c **** 
 330:../SSC/Src/coeappl.c **** /**
 331:../SSC/Src/coeappl.c ****  * \brief 0x1C00 (Sync manager type) object name
 332:../SSC/Src/coeappl.c ****  */
 333:../SSC/Src/coeappl.c **** OBJCONST UCHAR OBJMEM aName0x1C00[] = "Sync manager type";
 334:../SSC/Src/coeappl.c **** 
 335:../SSC/Src/coeappl.c **** 
 336:../SSC/Src/coeappl.c **** /*---------------------------------------------
 337:../SSC/Src/coeappl.c **** -    0x1C3x
 338:../SSC/Src/coeappl.c **** -----------------------------------------------*/
 339:../SSC/Src/coeappl.c **** /**
 340:../SSC/Src/coeappl.c ****  * \brief 0x1C3x (SyncManager parameter) entry description
 341:../SSC/Src/coeappl.c ****  *
 342:../SSC/Src/coeappl.c ****  * The entry descriptions are used for 0x1C32 and 0x1C33
 343:../SSC/Src/coeappl.c ****  */
 344:../SSC/Src/coeappl.c **** OBJCONST TSDOINFOENTRYDESC    OBJMEM asEntryDesc0x1C3x[] = {
 345:../SSC/Src/coeappl.c ****    {DEFTYPE_UNSIGNED8, 0x8, ACCESS_READ }, /* Subindex 000 */
 346:../SSC/Src/coeappl.c ****    {DEFTYPE_UNSIGNED16, 0x10, (ACCESS_READ | ACCESS_WRITE_PREOP)}, /* SubIndex 001: Synchronization
 347:../SSC/Src/coeappl.c ****    {DEFTYPE_UNSIGNED32, 0x20, ACCESS_READ}, /* SubIndex 002: Cycle Time */
 348:../SSC/Src/coeappl.c ****    {0x0000, 0x20, 0}, /* SubIndex 003: Shift Time (not supported)*/
 349:../SSC/Src/coeappl.c ****    {DEFTYPE_UNSIGNED16, 0x10, ACCESS_READ}, /* SubIndex 004: Synchronization Types supported */
 350:../SSC/Src/coeappl.c ****    {DEFTYPE_UNSIGNED32, 0x20, ACCESS_READ}, /* SubIndex 005: Minimum Cycle Time */
 351:../SSC/Src/coeappl.c ****    {DEFTYPE_UNSIGNED32, 0x20, ACCESS_READ}, /* SubIndex 006: Calc and Copy Time */
 352:../SSC/Src/coeappl.c ****    {0x0000, 0x20, 0}, /* Subindex 007 Minimum Delay Time (not supported)*/
 353:../SSC/Src/coeappl.c ****    {DEFTYPE_UNSIGNED16, 0x10, ACCESS_READWRITE}, /* SubIndex 008: Get Cycle Time */
 354:../SSC/Src/coeappl.c ****    {DEFTYPE_UNSIGNED32, 0x20, ACCESS_READ}, /* SubIndex 009: Delay Time */
 355:../SSC/Src/coeappl.c ****    {DEFTYPE_UNSIGNED32, 0x20, ACCESS_READWRITE}, /* SubIndex 010: Sync0 Cycle Time */
 356:../SSC/Src/coeappl.c ****    {DEFTYPE_UNSIGNED16, 0x10, ACCESS_READ}, /* SubIndex 011: SM-Event Missed */
 357:../SSC/Src/coeappl.c ****    {DEFTYPE_UNSIGNED16, 0x10, ACCESS_READ}, /* SubIndex 012: Cycle Time Too Small */
 358:../SSC/Src/coeappl.c ****    {0x0000, 0x10, 0}, /* SubIndex 013: Shift Too Short Counter (not supported)*/
 359:../SSC/Src/coeappl.c ****    {0x0000, 0x10, 0}, /* Subindex 014: RxPDO Toggle Failed (not supported)*/
 360:../SSC/Src/coeappl.c ****    {0x0000, 0x20, 0}, /* Subindex 015: Minimum Cycle Distance (not supported)*/
 361:../SSC/Src/coeappl.c ****    {0x0000, 0x20, 0}, /* Subindex 016: Maximum Cycle Distance (not supported)*/
 362:../SSC/Src/coeappl.c ****    {0x0000, 0x20, 0}, /* Subindex 017: Minimum SM Sync Distance (not supported)*/
 363:../SSC/Src/coeappl.c ****    {0x0000, 0x20, 0}, /* Subindex 018: Maximum SM Sync Distance (not supported)*/
 364:../SSC/Src/coeappl.c ****    {0x0000, 0, 0}, /* Subindex 019 doesn't exist */
 365:../SSC/Src/coeappl.c ****    {0x0000, 0, 0}, /* Subindex 020 doesn't exist */
 366:../SSC/Src/coeappl.c ****    {0x0000, 0, 0}, /* Subindex 021 doesn't exist */
 367:../SSC/Src/coeappl.c ****    {0x0000, 0, 0}, /* Subindex 022 doesn't exist */
 368:../SSC/Src/coeappl.c ****    {0x0000, 0, 0}, /* Subindex 023 doesn't exist */
 369:../SSC/Src/coeappl.c ****    {0x0000, 0, 0}, /* Subindex 024 doesn't exist */
 370:../SSC/Src/coeappl.c ****    {0x0000, 0, 0}, /* Subindex 025 doesn't exist */
 371:../SSC/Src/coeappl.c ****    {0x0000, 0, 0}, /* Subindex 026 doesn't exist */
 372:../SSC/Src/coeappl.c ****    {0x0000, 0, 0}, /* Subindex 027 doesn't exist */
 373:../SSC/Src/coeappl.c ****    {0x0000, 0, 0}, /* Subindex 028 doesn't exist */
 374:../SSC/Src/coeappl.c ****    {0x0000, 0, 0}, /* Subindex 029 doesn't exist */
 375:../SSC/Src/coeappl.c ****    {0x0000, 0, 0}, /* Subindex 030 doesn't exist */
 376:../SSC/Src/coeappl.c ****    {0x0000, 0, 0}, /* Subindex 031 doesn't exist */
 377:../SSC/Src/coeappl.c ****    {DEFTYPE_BOOLEAN, 0x01, ACCESS_READ}}; /* SubIndex 032: Sync error */
 378:../SSC/Src/coeappl.c **** 
 379:../SSC/Src/coeappl.c **** /*ECATCHANGE_START(V5.11) ECAT4*/
 380:../SSC/Src/coeappl.c **** /**
 381:../SSC/Src/coeappl.c ****  * \brief 0x1C32 (SyncManager 2 parameter) object and entry names
 382:../SSC/Src/coeappl.c ****  */
 383:../SSC/Src/coeappl.c **** OBJCONST UCHAR OBJMEM aName0x1C32[] = "SM output parameter\000Synchronization Type\000Cycle Time\00
 384:../SSC/Src/coeappl.c **** /*ECATCHANGE_END(V5.11) ECAT4*/
 385:../SSC/Src/coeappl.c **** 
 386:../SSC/Src/coeappl.c **** /*ECATCHANGE_START(V5.11) ECAT4*/
 387:../SSC/Src/coeappl.c **** /**
 388:../SSC/Src/coeappl.c ****  * \brief 0x1C33 (SyncManager 3 parameter) object and entry names
 389:../SSC/Src/coeappl.c ****  */
 390:../SSC/Src/coeappl.c **** OBJCONST UCHAR OBJMEM aName0x1C33[] = "SM input parameter\000Synchronization Type\000Cycle Time\000
 391:../SSC/Src/coeappl.c **** 
 392:../SSC/Src/coeappl.c **** /******************************************************************************
 393:../SSC/Src/coeappl.c **** ** Object Dictionary
 394:../SSC/Src/coeappl.c **** ******************************************************************************/
 395:../SSC/Src/coeappl.c **** /**
 396:../SSC/Src/coeappl.c ****  * \brief Object dictionary pointer
 397:../SSC/Src/coeappl.c ****  */
 398:../SSC/Src/coeappl.c **** TOBJECT    OBJMEM * ObjDicList = NULL;
 399:../SSC/Src/coeappl.c **** 
 400:../SSC/Src/coeappl.c **** /**
 401:../SSC/Src/coeappl.c ****  * \brief List of generic application independent objects
 402:../SSC/Src/coeappl.c ****  */
 403:../SSC/Src/coeappl.c **** TOBJECT    OBJMEM GenObjDic[] = {
 404:../SSC/Src/coeappl.c ****     /* Object 0x1000 */
 405:../SSC/Src/coeappl.c ****    {NULL,NULL,  0x1000, {DEFTYPE_UNSIGNED32, 0 | (OBJCODE_VAR << 8)}, &sEntryDesc0x1000, aName0x100
 406:../SSC/Src/coeappl.c ****    /* Object 0x1001 */
 407:../SSC/Src/coeappl.c ****    {NULL,NULL,  0x1001, {DEFTYPE_UNSIGNED8, 0 | (OBJCODE_VAR << 8)}, &sEntryDesc0x1001, aName0x1001
 408:../SSC/Src/coeappl.c **** /* Object 0x1008 */
 409:../SSC/Src/coeappl.c ****    {NULL,NULL,  0x1008, {DEFTYPE_VISIBLESTRING, 0 | (OBJCODE_VAR << 8)}, &sEntryDesc0x1008, aName0x
 410:../SSC/Src/coeappl.c ****    /* Object 0x1009 */
 411:../SSC/Src/coeappl.c ****    {NULL,NULL,  0x1009, {DEFTYPE_VISIBLESTRING, 0 | (OBJCODE_VAR << 8)}, &sEntryDesc0x1009, aName0x
 412:../SSC/Src/coeappl.c ****    /* Object 0x100A */
 413:../SSC/Src/coeappl.c ****    {NULL,NULL,  0x100A, {DEFTYPE_VISIBLESTRING, 0 | (OBJCODE_VAR << 8)}, &sEntryDesc0x100A, aName0x
 414:../SSC/Src/coeappl.c ****    /* Object 0x1018 */
 415:../SSC/Src/coeappl.c ****    {NULL,NULL,  0x1018, {DEFTYPE_IDENTITY, 4 | (OBJCODE_REC << 8)}, asEntryDesc0x1018, aName0x1018,
 416:../SSC/Src/coeappl.c ****     /* Object 0x10F1 */
 417:../SSC/Src/coeappl.c ****    {NULL,NULL,  0x10F1, {DEFTYPE_RECORD, 2 | (OBJCODE_REC << 8)}, asEntryDesc0x10F1, aName0x10F1, &
 418:../SSC/Src/coeappl.c ****    /* Object 0x1C00 */
 419:../SSC/Src/coeappl.c ****    {NULL,NULL, 0x1C00, {DEFTYPE_UNSIGNED8, 4 | (OBJCODE_ARR << 8)}, asEntryDesc0x1C00, aName0x1C00,
 420:../SSC/Src/coeappl.c ****    /* Object 0x1C32 */
 421:../SSC/Src/coeappl.c ****    {NULL,NULL, 0x1C32, {DEFTYPE_SMPAR, 32 | (OBJCODE_REC << 8)}, asEntryDesc0x1C3x, aName0x1C32, &s
 422:../SSC/Src/coeappl.c ****    /* Object 0x1C33 */
 423:../SSC/Src/coeappl.c ****    {NULL,NULL, 0x1C33, {DEFTYPE_SMPAR, 32 | (OBJCODE_REC << 8)}, asEntryDesc0x1C3x, aName0x1C33, &s
 424:../SSC/Src/coeappl.c ****    
 425:../SSC/Src/coeappl.c ****   /*end of entries*/
 426:../SSC/Src/coeappl.c **** /*ECATCHANGE_START(V5.11) COE1*/
 427:../SSC/Src/coeappl.c ****   {NULL,NULL, 0xFFFF, {0, 0}, NULL, NULL, NULL, NULL, NULL, 0x000}};
 428:../SSC/Src/coeappl.c **** /*ECATCHANGE_END(V5.11) COE1*/
 429:../SSC/Src/coeappl.c **** 
 430:../SSC/Src/coeappl.c **** 
 431:../SSC/Src/coeappl.c **** /*-----------------------------------------------------------------------------------------
 432:../SSC/Src/coeappl.c **** ------
 433:../SSC/Src/coeappl.c **** ------    Functions
 434:../SSC/Src/coeappl.c **** ------
 435:../SSC/Src/coeappl.c **** -----------------------------------------------------------------------------------------*/
 436:../SSC/Src/coeappl.c **** 
 437:../SSC/Src/coeappl.c **** /////////////////////////////////////////////////////////////////////////////////////////
 438:../SSC/Src/coeappl.c **** /**
 439:../SSC/Src/coeappl.c **** 
 440:../SSC/Src/coeappl.c ****  \brief    returns the pointer to the object dictionary
 441:../SSC/Src/coeappl.c **** *////////////////////////////////////////////////////////////////////////////////////////
 442:../SSC/Src/coeappl.c **** OBJCONST TOBJECT OBJMEM * COE_GetObjectDictionary(void)
 443:../SSC/Src/coeappl.c **** {
 880              	 .loc 1 443 0
 881              	 .cfi_startproc
 882              	 
 883              	 
 884              	 
 885 0000 80B4     	 push {r7}
 886              	.LCFI0:
 887              	 .cfi_def_cfa_offset 4
 888              	 .cfi_offset 7,-4
 889 0002 00AF     	 add r7,sp,#0
 890              	.LCFI1:
 891              	 .cfi_def_cfa_register 7
 444:../SSC/Src/coeappl.c ****     return (OBJCONST TOBJECT OBJMEM *) ObjDicList;
 892              	 .loc 1 444 0
 893 0004 034B     	 ldr r3,.L3
 894 0006 1B68     	 ldr r3,[r3]
 445:../SSC/Src/coeappl.c **** }
 895              	 .loc 1 445 0
 896 0008 1846     	 mov r0,r3
 897 000a BD46     	 mov sp,r7
 898              	.LCFI2:
 899              	 .cfi_def_cfa_register 13
 900              	 
 901 000c 5DF8047B 	 ldr r7,[sp],#4
 902              	.LCFI3:
 903              	 .cfi_restore 7
 904              	 .cfi_def_cfa_offset 0
 905 0010 7047     	 bx lr
 906              	.L4:
 907 0012 00BF     	 .align 2
 908              	.L3:
 909 0014 00000000 	 .word ObjDicList
 910              	 .cfi_endproc
 911              	.LFE172:
 913              	 .section .text.COE_ObjInit,"ax",%progbits
 914              	 .align 2
 915              	 .global COE_ObjInit
 916              	 .thumb
 917              	 .thumb_func
 919              	COE_ObjInit:
 920              	.LFB173:
 446:../SSC/Src/coeappl.c **** 
 447:../SSC/Src/coeappl.c **** 
 448:../SSC/Src/coeappl.c **** /////////////////////////////////////////////////////////////////////////////////////////
 449:../SSC/Src/coeappl.c **** /**
 450:../SSC/Src/coeappl.c ****  \brief     This function initialize the several objects
 451:../SSC/Src/coeappl.c **** *////////////////////////////////////////////////////////////////////////////////////////
 452:../SSC/Src/coeappl.c **** 
 453:../SSC/Src/coeappl.c **** void COE_ObjInit(void)
 454:../SSC/Src/coeappl.c **** {
 921              	 .loc 1 454 0
 922              	 .cfi_startproc
 923              	 
 924              	 
 925 0000 80B5     	 push {r7,lr}
 926              	.LCFI4:
 927              	 .cfi_def_cfa_offset 8
 928              	 .cfi_offset 7,-8
 929              	 .cfi_offset 14,-4
 930 0002 82B0     	 sub sp,sp,#8
 931              	.LCFI5:
 932              	 .cfi_def_cfa_offset 16
 933 0004 00AF     	 add r7,sp,#0
 934              	.LCFI6:
 935              	 .cfi_def_cfa_register 7
 455:../SSC/Src/coeappl.c **** 
 456:../SSC/Src/coeappl.c ****     /* initialize the Sync Manager Output parameter object 0x1C32 */
 457:../SSC/Src/coeappl.c **** 
 458:../SSC/Src/coeappl.c ****     sSyncManOutPar.subindex0         = 32;
 936              	 .loc 1 458 0
 937 0006 344B     	 ldr r3,.L7
 938 0008 2022     	 movs r2,#32
 939 000a 1A80     	 strh r2,[r3]
 459:../SSC/Src/coeappl.c ****     /*
 460:../SSC/Src/coeappl.c ****     subindex 1 contains the actual synchronization mode, it could be written
 461:../SSC/Src/coeappl.c ****       from the master to switch between ECAT FreeRun and ECAT Synchron Mode
 462:../SSC/Src/coeappl.c ****         if the slave supports both modes,
 463:../SSC/Src/coeappl.c ****         in DC mode (selected by the DC registers) this value will be overwritten
 464:../SSC/Src/coeappl.c ****         with SYNCTYPE_DCSYNC0 or SYNCTYPE_DCSYNC1 */
 465:../SSC/Src/coeappl.c ****      /*default mode is ECAT Synchron Mode */
 466:../SSC/Src/coeappl.c ****     sSyncManOutPar.u16SyncType     = SYNCTYPE_FREERUN;
 940              	 .loc 1 466 0
 941 000c 324B     	 ldr r3,.L7
 942 000e 0022     	 movs r2,#0
 943 0010 5A80     	 strh r2,[r3,#2]
 467:../SSC/Src/coeappl.c **** 
 468:../SSC/Src/coeappl.c ****     /* subindex 2 contains the cycle time of the application,
 469:../SSC/Src/coeappl.c ****        in ECAT FreeRun mode it could be used for a timer interrupt to run the application,
 470:../SSC/Src/coeappl.c ****         in ECAT Synchron mode it could be written from the master with its local cycle time
 471:../SSC/Src/coeappl.c ****         that the slave can check if this cycle time is supported,
 472:../SSC/Src/coeappl.c ****         in DC Mode this value will be overwritten with the DC cycle time register */
 473:../SSC/Src/coeappl.c ****     sSyncManOutPar.u32CycleTime     = 0;
 944              	 .loc 1 473 0
 945 0012 314B     	 ldr r3,.L7
 946 0014 0022     	 movs r2,#0
 947 0016 5A60     	 str r2,[r3,#4]
 474:../SSC/Src/coeappl.c ****     /* only for DC Mode important: the subindex 3 contains the time shift between the
 475:../SSC/Src/coeappl.c ****        SYNC0 (SYNC1) signal and when the outputs are put to the hardware to allow the
 476:../SSC/Src/coeappl.c ****         master a very exactly calculation of delay times*/
 477:../SSC/Src/coeappl.c ****     sSyncManOutPar.u32ShiftTime     = 0;
 948              	 .loc 1 477 0
 949 0018 2F4B     	 ldr r3,.L7
 950 001a 0022     	 movs r2,#0
 951 001c 9A60     	 str r2,[r3,#8]
 478:../SSC/Src/coeappl.c **** 
 479:../SSC/Src/coeappl.c ****     /* the subindex 4 contains the supported synchronization types */
 480:../SSC/Src/coeappl.c **** 
 481:../SSC/Src/coeappl.c ****     sSyncManOutPar.u16SyncTypesSupported    = SYNCTYPE_FREERUNSUPP            /* ECAT FreeRun Mode 
 952              	 .loc 1 481 0
 953 001e 2E4B     	 ldr r3,.L7
 954 0020 44F21F02 	 movw r2,#16415
 955 0024 9A81     	 strh r2,[r3,#12]
 482:../SSC/Src/coeappl.c ****                                               | SYNCTYPE_TIMESVARIABLE        /* the execution time
 483:../SSC/Src/coeappl.c ****                                               | SYNCTYPE_SYNCHRONSUPP         /* ECAT Synchron Mode
 484:../SSC/Src/coeappl.c ****                                               | SYNCTYPE_DCSYNC0SUPP          /* DC Sync0 Mode is s
 485:../SSC/Src/coeappl.c ****                                               | SYNCTYPE_DCSYNC1SUPP          /* DC Sync1 Mode is s
 486:../SSC/Src/coeappl.c ****                                               | SYNCTYPE_SUBCYCLESUPP         /*Subordinated applic
 487:../SSC/Src/coeappl.c ****     ;
 488:../SSC/Src/coeappl.c **** 
 489:../SSC/Src/coeappl.c ****     /* subindex 5 contains the minimum cycle time the slave is able to support,
 490:../SSC/Src/coeappl.c ****        will be calculated dynamically because it depends on the connected modules
 491:../SSC/Src/coeappl.c ****         (in this example we will make an online measurement in the ESC Interrupt Routine).
 492:../SSC/Src/coeappl.c ****         For the sample application this value is set to MIN_PD_CYCLE_TIME */
 493:../SSC/Src/coeappl.c ****     sSyncManOutPar.u32MinCycleTime = MIN_PD_CYCLE_TIME;
 956              	 .loc 1 493 0
 957 0026 2C4B     	 ldr r3,.L7
 958 0028 2C4A     	 ldr r2,.L7+4
 959 002a 1A61     	 str r2,[r3,#16]
 494:../SSC/Src/coeappl.c ****     /* only for DC Mode important: subindex 6 contains the minimum delay time the slave
 495:../SSC/Src/coeappl.c ****        needs after receiving the SM2-event before the SYNC0(SYNC1) can be received without delays
 496:../SSC/Src/coeappl.c ****        will be calculated dynamically because it depends on the connected modules
 497:../SSC/Src/coeappl.c ****         (in this example we will make an online measurement in the ESC Interrupt Routine) */
 498:../SSC/Src/coeappl.c ****     sSyncManOutPar.u32CalcAndCopyTime = (PD_OUTPUT_CALC_AND_COPY_TIME);
 960              	 .loc 1 498 0
 961 002c 2A4B     	 ldr r3,.L7
 962 002e 0022     	 movs r2,#0
 963 0030 5A61     	 str r2,[r3,#20]
 499:../SSC/Src/coeappl.c **** 
 500:../SSC/Src/coeappl.c ****     /*subindex 8: trigger cycle time measurement*/
 501:../SSC/Src/coeappl.c ****     sSyncManOutPar.u16GetCycleTime = 0;
 964              	 .loc 1 501 0
 965 0032 294B     	 ldr r3,.L7
 966 0034 0022     	 movs r2,#0
 967 0036 9A83     	 strh r2,[r3,#28]
 502:../SSC/Src/coeappl.c **** 
 503:../SSC/Src/coeappl.c ****     /*subindex 9: time from start driving outputs until outputs are valid*/
 504:../SSC/Src/coeappl.c ****     sSyncManOutPar.u32DelayTime = (PD_OUTPUT_DELAY_TIME);
 968              	 .loc 1 504 0
 969 0038 274B     	 ldr r3,.L7
 970 003a 0022     	 movs r2,#0
 971 003c 1A62     	 str r2,[r3,#32]
 505:../SSC/Src/coeappl.c **** 
 506:../SSC/Src/coeappl.c ****     /*subindex 32: indicates if a synchronisation error has occurred*/
 507:../SSC/Src/coeappl.c ****     sSyncManOutPar.u8SyncError = 0;
 972              	 .loc 1 507 0
 973 003e 264B     	 ldr r3,.L7
 974 0040 0022     	 movs r2,#0
 975 0042 83F84020 	 strb r2,[r3,#64]
 508:../SSC/Src/coeappl.c **** 
 509:../SSC/Src/coeappl.c **** /*ECATCHANGE_START(V5.11) ECAT4*/
 510:../SSC/Src/coeappl.c ****     /* initialize the Sync Manager Input parameter object 0x1C33 */
 511:../SSC/Src/coeappl.c ****     sSyncManInPar.subindex0         = 32;
 976              	 .loc 1 511 0
 977 0046 264B     	 ldr r3,.L7+8
 978 0048 2022     	 movs r2,#32
 979 004a 1A80     	 strh r2,[r3]
 512:../SSC/Src/coeappl.c ****     /* default mode is ECAT Synchron Mode, if output size > 0 the inputs are updated with the SM2-e
 513:../SSC/Src/coeappl.c ****     sSyncManInPar.u16SyncType         = SYNCTYPE_FREERUN;
 980              	 .loc 1 513 0
 981 004c 244B     	 ldr r3,.L7+8
 982 004e 0022     	 movs r2,#0
 983 0050 5A80     	 strh r2,[r3,#2]
 514:../SSC/Src/coeappl.c **** 
 515:../SSC/Src/coeappl.c ****     /* subindex 2: same as 0x1C32:02 */
 516:../SSC/Src/coeappl.c ****     sSyncManInPar.u32CycleTime     = sSyncManOutPar.u32CycleTime;
 984              	 .loc 1 516 0
 985 0052 214B     	 ldr r3,.L7
 986 0054 5B68     	 ldr r3,[r3,#4]
 987 0056 224A     	 ldr r2,.L7+8
 988 0058 5360     	 str r3,[r2,#4]
 517:../SSC/Src/coeappl.c ****     /* only for DC Mode important: subindex 3 contains the time shift between the
 518:../SSC/Src/coeappl.c ****        SYNC0 (SYNC1) signal and when the inputs are got to the hardware to allow the
 519:../SSC/Src/coeappl.c ****         master a very exactly calculation of delay times,
 520:../SSC/Src/coeappl.c ****        will be calculated dynamically because it depends on the connected modules
 521:../SSC/Src/coeappl.c ****         (in this example we will make an online measurement in the ESC Interrupt Routine) */
 522:../SSC/Src/coeappl.c ****     sSyncManInPar.u32ShiftTime     = 0;
 989              	 .loc 1 522 0
 990 005a 214B     	 ldr r3,.L7+8
 991 005c 0022     	 movs r2,#0
 992 005e 9A60     	 str r2,[r3,#8]
 523:../SSC/Src/coeappl.c ****     /* subindex 4: same as 0x1C32:04 */
 524:../SSC/Src/coeappl.c ****     sSyncManInPar.u16SyncTypesSupported    = sSyncManOutPar.u16SyncTypesSupported;
 993              	 .loc 1 524 0
 994 0060 1D4B     	 ldr r3,.L7
 995 0062 9A89     	 ldrh r2,[r3,#12]
 996 0064 1E4B     	 ldr r3,.L7+8
 997 0066 9A81     	 strh r2,[r3,#12]
 525:../SSC/Src/coeappl.c **** 
 526:../SSC/Src/coeappl.c ****     /* subindex 5: same as 0x1C32:05 */
 527:../SSC/Src/coeappl.c ****     sSyncManInPar.u32MinCycleTime = MIN_PD_CYCLE_TIME;
 998              	 .loc 1 527 0
 999 0068 1D4B     	 ldr r3,.L7+8
 1000 006a 1C4A     	 ldr r2,.L7+4
 1001 006c 1A61     	 str r2,[r3,#16]
 528:../SSC/Src/coeappl.c ****     /* subindex 6: delay read inputs, calculation and copy to SM buffer*/
 529:../SSC/Src/coeappl.c ****     sSyncManInPar.u32CalcAndCopyTime = (PD_INPUT_CALC_AND_COPY_TIME);
 1002              	 .loc 1 529 0
 1003 006e 1C4B     	 ldr r3,.L7+8
 1004 0070 0022     	 movs r2,#0
 1005 0072 5A61     	 str r2,[r3,#20]
 530:../SSC/Src/coeappl.c ****     /*subindex 8: trigger cycle time measurement*/
 531:../SSC/Src/coeappl.c ****     sSyncManInPar.u16GetCycleTime = 0;
 1006              	 .loc 1 531 0
 1007 0074 1A4B     	 ldr r3,.L7+8
 1008 0076 0022     	 movs r2,#0
 1009 0078 9A83     	 strh r2,[r3,#28]
 532:../SSC/Src/coeappl.c ****     /*subindex 9: delay to prepare input latch*/
 533:../SSC/Src/coeappl.c ****     sSyncManInPar.u32DelayTime = (PD_INPUT_DELAY_TIME);
 1010              	 .loc 1 533 0
 1011 007a 194B     	 ldr r3,.L7+8
 1012 007c 0022     	 movs r2,#0
 1013 007e 1A62     	 str r2,[r3,#32]
 534:../SSC/Src/coeappl.c **** 
 535:../SSC/Src/coeappl.c ****     /*subindex 32: incremented if a synchronisation error has occurred*/
 536:../SSC/Src/coeappl.c ****     sSyncManInPar.u8SyncError = 0;
 1014              	 .loc 1 536 0
 1015 0080 174B     	 ldr r3,.L7+8
 1016 0082 0022     	 movs r2,#0
 1017 0084 83F84020 	 strb r2,[r3,#64]
 537:../SSC/Src/coeappl.c **** /*ECATCHANGE_END(V5.11) ECAT4*/
 538:../SSC/Src/coeappl.c **** 
 539:../SSC/Src/coeappl.c ****     /*Indicate no user specified Sync mode*/
 540:../SSC/Src/coeappl.c ****     bSyncSetByUser = FALSE;
 1018              	 .loc 1 540 0
 1019 0088 164B     	 ldr r3,.L7+12
 1020 008a 0022     	 movs r2,#0
 1021 008c 1A70     	 strb r2,[r3]
 1022              	.LBB2:
 541:../SSC/Src/coeappl.c **** 
 542:../SSC/Src/coeappl.c ****     {
 543:../SSC/Src/coeappl.c ****     UINT16 result = COE_ObjDictionaryInit();
 1023              	 .loc 1 543 0
 1024 008e FFF7FEFF 	 bl COE_ObjDictionaryInit
 1025 0092 0346     	 mov r3,r0
 1026 0094 FB80     	 strh r3,[r7,#6]
 544:../SSC/Src/coeappl.c ****     if(result != 0)
 1027              	 .loc 1 544 0
 1028 0096 FB88     	 ldrh r3,[r7,#6]
 1029 0098 002B     	 cmp r3,#0
 1030 009a 01D0     	 beq .L6
 545:../SSC/Src/coeappl.c ****     {
 546:../SSC/Src/coeappl.c ****         /*clear already linked objects*/
 547:../SSC/Src/coeappl.c ****         COE_ClearObjDictionary();
 1031              	 .loc 1 547 0
 1032 009c FFF7FEFF 	 bl COE_ClearObjDictionary
 1033              	.L6:
 1034              	.LBE2:
 548:../SSC/Src/coeappl.c ****     }
 549:../SSC/Src/coeappl.c ****     }
 550:../SSC/Src/coeappl.c **** 
 551:../SSC/Src/coeappl.c ****     u8PendingSdo = 0;
 1035              	 .loc 1 551 0
 1036 00a0 114B     	 ldr r3,.L7+16
 1037 00a2 0022     	 movs r2,#0
 1038 00a4 1A70     	 strb r2,[r3]
 552:../SSC/Src/coeappl.c ****     bStoreCompleteAccess = FALSE;
 1039              	 .loc 1 552 0
 1040 00a6 114B     	 ldr r3,.L7+20
 1041 00a8 0022     	 movs r2,#0
 1042 00aa 1A70     	 strb r2,[r3]
 553:../SSC/Src/coeappl.c ****     u16StoreIndex   =   0;
 1043              	 .loc 1 553 0
 1044 00ac 104B     	 ldr r3,.L7+24
 1045 00ae 0022     	 movs r2,#0
 1046 00b0 1A80     	 strh r2,[r3]
 554:../SSC/Src/coeappl.c ****     u8StoreSubindex = 0;
 1047              	 .loc 1 554 0
 1048 00b2 104B     	 ldr r3,.L7+28
 1049 00b4 0022     	 movs r2,#0
 1050 00b6 1A70     	 strb r2,[r3]
 555:../SSC/Src/coeappl.c ****     u32StoreDataSize = 0;
 1051              	 .loc 1 555 0
 1052 00b8 0F4B     	 ldr r3,.L7+32
 1053 00ba 0022     	 movs r2,#0
 1054 00bc 1A60     	 str r2,[r3]
 556:../SSC/Src/coeappl.c ****     pStoreData = NULL;
 1055              	 .loc 1 556 0
 1056 00be 0F4B     	 ldr r3,.L7+36
 1057 00c0 0022     	 movs r2,#0
 1058 00c2 1A60     	 str r2,[r3]
 557:../SSC/Src/coeappl.c ****     pSdoPendFunc    = NULL;
 1059              	 .loc 1 557 0
 1060 00c4 0E4B     	 ldr r3,.L7+40
 1061 00c6 0022     	 movs r2,#0
 1062 00c8 1A60     	 str r2,[r3]
 558:../SSC/Src/coeappl.c **** 
 559:../SSC/Src/coeappl.c ****     pSdoSegData = NULL;
 1063              	 .loc 1 559 0
 1064 00ca 0E4B     	 ldr r3,.L7+44
 1065 00cc 0022     	 movs r2,#0
 1066 00ce 1A60     	 str r2,[r3]
 560:../SSC/Src/coeappl.c **** }
 1067              	 .loc 1 560 0
 1068 00d0 0837     	 adds r7,r7,#8
 1069              	.LCFI7:
 1070              	 .cfi_def_cfa_offset 8
 1071 00d2 BD46     	 mov sp,r7
 1072              	.LCFI8:
 1073              	 .cfi_def_cfa_register 13
 1074              	 
 1075 00d4 80BD     	 pop {r7,pc}
 1076              	.L8:
 1077 00d6 00BF     	 .align 2
 1078              	.L7:
 1079 00d8 00000000 	 .word sSyncManOutPar
 1080 00dc 48E80100 	 .word 125000
 1081 00e0 00000000 	 .word sSyncManInPar
 1082 00e4 00000000 	 .word bSyncSetByUser
 1083 00e8 00000000 	 .word u8PendingSdo
 1084 00ec 00000000 	 .word bStoreCompleteAccess
 1085 00f0 00000000 	 .word u16StoreIndex
 1086 00f4 00000000 	 .word u8StoreSubindex
 1087 00f8 00000000 	 .word u32StoreDataSize
 1088 00fc 00000000 	 .word pStoreData
 1089 0100 00000000 	 .word pSdoPendFunc
 1090 0104 00000000 	 .word pSdoSegData
 1091              	 .cfi_endproc
 1092              	.LFE173:
 1094              	 .section .text.COE_AddObjectToDic,"ax",%progbits
 1095              	 .align 2
 1096              	 .global COE_AddObjectToDic
 1097              	 .thumb
 1098              	 .thumb_func
 1100              	COE_AddObjectToDic:
 1101              	.LFB174:
 561:../SSC/Src/coeappl.c **** 
 562:../SSC/Src/coeappl.c **** /////////////////////////////////////////////////////////////////////////////////////////
 563:../SSC/Src/coeappl.c **** /**
 564:../SSC/Src/coeappl.c ****  \return    0               object successful added to object dictionary
 565:../SSC/Src/coeappl.c ****             ALSTATUSCODE_XX add object failed
 566:../SSC/Src/coeappl.c **** 
 567:../SSC/Src/coeappl.c ****  \brief    This function adds an object to the object dictionary
 568:../SSC/Src/coeappl.c ****  *////////////////////////////////////////////////////////////////////////////////////////
 569:../SSC/Src/coeappl.c **** UINT16 COE_AddObjectToDic(TOBJECT OBJMEM * pNewObjEntry)
 570:../SSC/Src/coeappl.c **** {
 1102              	 .loc 1 570 0
 1103              	 .cfi_startproc
 1104              	 
 1105              	 
 1106              	 
 1107 0000 80B4     	 push {r7}
 1108              	.LCFI9:
 1109              	 .cfi_def_cfa_offset 4
 1110              	 .cfi_offset 7,-4
 1111 0002 85B0     	 sub sp,sp,#20
 1112              	.LCFI10:
 1113              	 .cfi_def_cfa_offset 24
 1114 0004 00AF     	 add r7,sp,#0
 1115              	.LCFI11:
 1116              	 .cfi_def_cfa_register 7
 1117 0006 7860     	 str r0,[r7,#4]
 571:../SSC/Src/coeappl.c ****     if(pNewObjEntry != NULL)
 1118              	 .loc 1 571 0
 1119 0008 7B68     	 ldr r3,[r7,#4]
 1120 000a 002B     	 cmp r3,#0
 1121 000c 62D0     	 beq .L10
 572:../SSC/Src/coeappl.c ****     {
 573:../SSC/Src/coeappl.c ****         if(ObjDicList == NULL)
 1122              	 .loc 1 573 0
 1123 000e 354B     	 ldr r3,.L20
 1124 0010 1B68     	 ldr r3,[r3]
 1125 0012 002B     	 cmp r3,#0
 1126 0014 0CD1     	 bne .L11
 574:../SSC/Src/coeappl.c ****         {
 575:../SSC/Src/coeappl.c ****             /* Object dictionary is empty */
 576:../SSC/Src/coeappl.c ****             ObjDicList = pNewObjEntry;
 1127              	 .loc 1 576 0
 1128 0016 334A     	 ldr r2,.L20
 1129 0018 7B68     	 ldr r3,[r7,#4]
 1130 001a 1360     	 str r3,[r2]
 577:../SSC/Src/coeappl.c ****             ObjDicList->pNext = NULL;
 1131              	 .loc 1 577 0
 1132 001c 314B     	 ldr r3,.L20
 1133 001e 1B68     	 ldr r3,[r3]
 1134 0020 0022     	 movs r2,#0
 1135 0022 5A60     	 str r2,[r3,#4]
 578:../SSC/Src/coeappl.c ****             ObjDicList->pPrev = NULL;
 1136              	 .loc 1 578 0
 1137 0024 2F4B     	 ldr r3,.L20
 1138 0026 1B68     	 ldr r3,[r3]
 1139 0028 0022     	 movs r2,#0
 1140 002a 1A60     	 str r2,[r3]
 579:../SSC/Src/coeappl.c ****             return 0;
 1141              	 .loc 1 579 0
 1142 002c 0023     	 movs r3,#0
 1143 002e 52E0     	 b .L12
 1144              	.L11:
 580:../SSC/Src/coeappl.c ****         }
 581:../SSC/Src/coeappl.c ****         else if(ObjDicList->Index > pNewObjEntry->Index)
 1145              	 .loc 1 581 0
 1146 0030 2C4B     	 ldr r3,.L20
 1147 0032 1B68     	 ldr r3,[r3]
 1148 0034 1A89     	 ldrh r2,[r3,#8]
 1149 0036 7B68     	 ldr r3,[r7,#4]
 1150 0038 1B89     	 ldrh r3,[r3,#8]
 1151 003a 9A42     	 cmp r2,r3
 1152 003c 0FD9     	 bls .L13
 582:../SSC/Src/coeappl.c ****         {
 583:../SSC/Src/coeappl.c ****             /*insert new object dictionary head*/
 584:../SSC/Src/coeappl.c ****             pNewObjEntry->pPrev = NULL;
 1153              	 .loc 1 584 0
 1154 003e 7B68     	 ldr r3,[r7,#4]
 1155 0040 0022     	 movs r2,#0
 1156 0042 1A60     	 str r2,[r3]
 585:../SSC/Src/coeappl.c ****             pNewObjEntry->pNext = ObjDicList;
 1157              	 .loc 1 585 0
 1158 0044 274B     	 ldr r3,.L20
 1159 0046 1A68     	 ldr r2,[r3]
 1160 0048 7B68     	 ldr r3,[r7,#4]
 1161 004a 5A60     	 str r2,[r3,#4]
 586:../SSC/Src/coeappl.c ****             ObjDicList->pPrev = pNewObjEntry;
 1162              	 .loc 1 586 0
 1163 004c 254B     	 ldr r3,.L20
 1164 004e 1B68     	 ldr r3,[r3]
 1165 0050 7A68     	 ldr r2,[r7,#4]
 1166 0052 1A60     	 str r2,[r3]
 587:../SSC/Src/coeappl.c ****             ObjDicList = pNewObjEntry;
 1167              	 .loc 1 587 0
 1168 0054 234A     	 ldr r2,.L20
 1169 0056 7B68     	 ldr r3,[r7,#4]
 1170 0058 1360     	 str r3,[r2]
 588:../SSC/Src/coeappl.c ****             return 0;
 1171              	 .loc 1 588 0
 1172 005a 0023     	 movs r3,#0
 1173 005c 3BE0     	 b .L12
 1174              	.L13:
 1175              	.LBB3:
 589:../SSC/Src/coeappl.c ****         }
 590:../SSC/Src/coeappl.c ****         else
 591:../SSC/Src/coeappl.c ****         {
 592:../SSC/Src/coeappl.c ****             TOBJECT    OBJMEM * pDicEntry = ObjDicList;
 1176              	 .loc 1 592 0
 1177 005e 214B     	 ldr r3,.L20
 1178 0060 1B68     	 ldr r3,[r3]
 1179 0062 FB60     	 str r3,[r7,#12]
 593:../SSC/Src/coeappl.c ****             while(pDicEntry != NULL)
 1180              	 .loc 1 593 0
 1181 0064 33E0     	 b .L14
 1182              	.L19:
 594:../SSC/Src/coeappl.c ****             {
 595:../SSC/Src/coeappl.c ****                 if(pDicEntry->Index == pNewObjEntry->Index)
 1183              	 .loc 1 595 0
 1184 0066 FB68     	 ldr r3,[r7,#12]
 1185 0068 1A89     	 ldrh r2,[r3,#8]
 1186 006a 7B68     	 ldr r3,[r7,#4]
 1187 006c 1B89     	 ldrh r3,[r3,#8]
 1188 006e 9A42     	 cmp r2,r3
 1189 0070 01D1     	 bne .L15
 596:../SSC/Src/coeappl.c ****                 {
 597:../SSC/Src/coeappl.c ****                     /*object already exists in object dictionary*/
 598:../SSC/Src/coeappl.c ****                     return ALSTATUSCODE_UNSPECIFIEDERROR;
 1190              	 .loc 1 598 0
 1191 0072 0123     	 movs r3,#1
 1192 0074 2FE0     	 b .L12
 1193              	.L15:
 599:../SSC/Src/coeappl.c ****                 }
 600:../SSC/Src/coeappl.c ****                 else if(pDicEntry->Index > pNewObjEntry->Index)
 1194              	 .loc 1 600 0
 1195 0076 FB68     	 ldr r3,[r7,#12]
 1196 0078 1A89     	 ldrh r2,[r3,#8]
 1197 007a 7B68     	 ldr r3,[r7,#4]
 1198 007c 1B89     	 ldrh r3,[r3,#8]
 1199 007e 9A42     	 cmp r2,r3
 1200 0080 13D9     	 bls .L16
 601:../SSC/Src/coeappl.c ****                 {
 602:../SSC/Src/coeappl.c ****                     pNewObjEntry->pPrev = pDicEntry->pPrev;
 1201              	 .loc 1 602 0
 1202 0082 FB68     	 ldr r3,[r7,#12]
 1203 0084 1A68     	 ldr r2,[r3]
 1204 0086 7B68     	 ldr r3,[r7,#4]
 1205 0088 1A60     	 str r2,[r3]
 603:../SSC/Src/coeappl.c ****                     pNewObjEntry->pNext = pDicEntry;
 1206              	 .loc 1 603 0
 1207 008a 7B68     	 ldr r3,[r7,#4]
 1208 008c FA68     	 ldr r2,[r7,#12]
 1209 008e 5A60     	 str r2,[r3,#4]
 604:../SSC/Src/coeappl.c **** 
 605:../SSC/Src/coeappl.c ****                     if(pDicEntry->pPrev != NULL)
 1210              	 .loc 1 605 0
 1211 0090 FB68     	 ldr r3,[r7,#12]
 1212 0092 1B68     	 ldr r3,[r3]
 1213 0094 002B     	 cmp r3,#0
 1214 0096 03D0     	 beq .L17
 606:../SSC/Src/coeappl.c ****                         pDicEntry->pPrev->pNext = pNewObjEntry;
 1215              	 .loc 1 606 0
 1216 0098 FB68     	 ldr r3,[r7,#12]
 1217 009a 1B68     	 ldr r3,[r3]
 1218 009c 7A68     	 ldr r2,[r7,#4]
 1219 009e 5A60     	 str r2,[r3,#4]
 1220              	.L17:
 607:../SSC/Src/coeappl.c **** 
 608:../SSC/Src/coeappl.c ****                     pDicEntry->pPrev = pNewObjEntry;
 1221              	 .loc 1 608 0
 1222 00a0 FB68     	 ldr r3,[r7,#12]
 1223 00a2 7A68     	 ldr r2,[r7,#4]
 1224 00a4 1A60     	 str r2,[r3]
 609:../SSC/Src/coeappl.c **** 
 610:../SSC/Src/coeappl.c ****                     return 0;
 1225              	 .loc 1 610 0
 1226 00a6 0023     	 movs r3,#0
 1227 00a8 15E0     	 b .L12
 1228              	.L16:
 611:../SSC/Src/coeappl.c ****                 }
 612:../SSC/Src/coeappl.c ****                 else if(pDicEntry->pNext == NULL)
 1229              	 .loc 1 612 0
 1230 00aa FB68     	 ldr r3,[r7,#12]
 1231 00ac 5B68     	 ldr r3,[r3,#4]
 1232 00ae 002B     	 cmp r3,#0
 1233 00b0 0AD1     	 bne .L18
 613:../SSC/Src/coeappl.c ****                 {
 614:../SSC/Src/coeappl.c ****                     /*Last entry reached => add object to list tail*/
 615:../SSC/Src/coeappl.c ****                     pDicEntry->pNext = pNewObjEntry;
 1234              	 .loc 1 615 0
 1235 00b2 FB68     	 ldr r3,[r7,#12]
 1236 00b4 7A68     	 ldr r2,[r7,#4]
 1237 00b6 5A60     	 str r2,[r3,#4]
 616:../SSC/Src/coeappl.c ****                     pNewObjEntry->pPrev = pDicEntry;
 1238              	 .loc 1 616 0
 1239 00b8 7B68     	 ldr r3,[r7,#4]
 1240 00ba FA68     	 ldr r2,[r7,#12]
 1241 00bc 1A60     	 str r2,[r3]
 617:../SSC/Src/coeappl.c ****                     pNewObjEntry->pNext = NULL;
 1242              	 .loc 1 617 0
 1243 00be 7B68     	 ldr r3,[r7,#4]
 1244 00c0 0022     	 movs r2,#0
 1245 00c2 5A60     	 str r2,[r3,#4]
 618:../SSC/Src/coeappl.c ****                     return 0;
 1246              	 .loc 1 618 0
 1247 00c4 0023     	 movs r3,#0
 1248 00c6 06E0     	 b .L12
 1249              	.L18:
 619:../SSC/Src/coeappl.c ****                 }
 620:../SSC/Src/coeappl.c ****                 else
 621:../SSC/Src/coeappl.c ****                 {
 622:../SSC/Src/coeappl.c ****                     /*The new object index is smaller than the current index. Get next object handl
 623:../SSC/Src/coeappl.c ****                     pDicEntry = pDicEntry->pNext;
 1250              	 .loc 1 623 0
 1251 00c8 FB68     	 ldr r3,[r7,#12]
 1252 00ca 5B68     	 ldr r3,[r3,#4]
 1253 00cc FB60     	 str r3,[r7,#12]
 1254              	.L14:
 593:../SSC/Src/coeappl.c ****             {
 1255              	 .loc 1 593 0
 1256 00ce FB68     	 ldr r3,[r7,#12]
 1257 00d0 002B     	 cmp r3,#0
 1258 00d2 C8D1     	 bne .L19
 1259              	.L10:
 1260              	.LBE3:
 624:../SSC/Src/coeappl.c ****                 }
 625:../SSC/Src/coeappl.c ****             }
 626:../SSC/Src/coeappl.c ****         }
 627:../SSC/Src/coeappl.c ****     }
 628:../SSC/Src/coeappl.c ****     return ALSTATUSCODE_UNSPECIFIEDERROR;
 1261              	 .loc 1 628 0
 1262 00d4 0123     	 movs r3,#1
 1263              	.L12:
 629:../SSC/Src/coeappl.c **** }
 1264              	 .loc 1 629 0
 1265 00d6 1846     	 mov r0,r3
 1266 00d8 1437     	 adds r7,r7,#20
 1267              	.LCFI12:
 1268              	 .cfi_def_cfa_offset 4
 1269 00da BD46     	 mov sp,r7
 1270              	.LCFI13:
 1271              	 .cfi_def_cfa_register 13
 1272              	 
 1273 00dc 5DF8047B 	 ldr r7,[sp],#4
 1274              	.LCFI14:
 1275              	 .cfi_restore 7
 1276              	 .cfi_def_cfa_offset 0
 1277 00e0 7047     	 bx lr
 1278              	.L21:
 1279 00e2 00BF     	 .align 2
 1280              	.L20:
 1281 00e4 00000000 	 .word ObjDicList
 1282              	 .cfi_endproc
 1283              	.LFE174:
 1285              	 .section .text.COE_RemoveDicEntry,"ax",%progbits
 1286              	 .align 2
 1287              	 .global COE_RemoveDicEntry
 1288              	 .thumb
 1289              	 .thumb_func
 1291              	COE_RemoveDicEntry:
 1292              	.LFB175:
 630:../SSC/Src/coeappl.c **** /////////////////////////////////////////////////////////////////////////////////////////
 631:../SSC/Src/coeappl.c **** /**
 632:../SSC/Src/coeappl.c **** 
 633:../SSC/Src/coeappl.c ****  \brief    This function removes an object to the object dictionary
 634:../SSC/Src/coeappl.c **** *////////////////////////////////////////////////////////////////////////////////////////
 635:../SSC/Src/coeappl.c **** void COE_RemoveDicEntry(UINT16 index)
 636:../SSC/Src/coeappl.c **** {
 1293              	 .loc 1 636 0
 1294              	 .cfi_startproc
 1295              	 
 1296              	 
 1297              	 
 1298 0000 80B4     	 push {r7}
 1299              	.LCFI15:
 1300              	 .cfi_def_cfa_offset 4
 1301              	 .cfi_offset 7,-4
 1302 0002 87B0     	 sub sp,sp,#28
 1303              	.LCFI16:
 1304              	 .cfi_def_cfa_offset 32
 1305 0004 00AF     	 add r7,sp,#0
 1306              	.LCFI17:
 1307              	 .cfi_def_cfa_register 7
 1308 0006 0346     	 mov r3,r0
 1309 0008 FB80     	 strh r3,[r7,#6]
 637:../SSC/Src/coeappl.c ****     TOBJECT    OBJMEM * pDicEntry = ObjDicList;
 1310              	 .loc 1 637 0
 1311 000a 1C4B     	 ldr r3,.L30
 1312 000c 1B68     	 ldr r3,[r3]
 1313 000e 7B61     	 str r3,[r7,#20]
 638:../SSC/Src/coeappl.c **** 
 639:../SSC/Src/coeappl.c ****     while(pDicEntry != NULL)
 1314              	 .loc 1 639 0
 1315 0010 2BE0     	 b .L23
 1316              	.L29:
 640:../SSC/Src/coeappl.c ****     {
 641:../SSC/Src/coeappl.c ****         if(pDicEntry->Index == index)
 1317              	 .loc 1 641 0
 1318 0012 7B69     	 ldr r3,[r7,#20]
 1319 0014 1B89     	 ldrh r3,[r3,#8]
 1320 0016 FA88     	 ldrh r2,[r7,#6]
 1321 0018 9A42     	 cmp r2,r3
 1322 001a 23D1     	 bne .L24
 1323              	.LBB4:
 642:../SSC/Src/coeappl.c ****         {
 643:../SSC/Src/coeappl.c ****             TOBJECT OBJMEM *pPrevEntry = pDicEntry->pPrev;
 1324              	 .loc 1 643 0
 1325 001c 7B69     	 ldr r3,[r7,#20]
 1326 001e 1B68     	 ldr r3,[r3]
 1327 0020 3B61     	 str r3,[r7,#16]
 644:../SSC/Src/coeappl.c ****             TOBJECT OBJMEM *pNextEntry = pDicEntry->pNext;
 1328              	 .loc 1 644 0
 1329 0022 7B69     	 ldr r3,[r7,#20]
 1330 0024 5B68     	 ldr r3,[r3,#4]
 1331 0026 FB60     	 str r3,[r7,#12]
 645:../SSC/Src/coeappl.c **** 
 646:../SSC/Src/coeappl.c ****             if(pPrevEntry != NULL)
 1332              	 .loc 1 646 0
 1333 0028 3B69     	 ldr r3,[r7,#16]
 1334 002a 002B     	 cmp r3,#0
 1335 002c 02D0     	 beq .L25
 647:../SSC/Src/coeappl.c ****                 pPrevEntry->pNext = pNextEntry;
 1336              	 .loc 1 647 0
 1337 002e 3B69     	 ldr r3,[r7,#16]
 1338 0030 FA68     	 ldr r2,[r7,#12]
 1339 0032 5A60     	 str r2,[r3,#4]
 1340              	.L25:
 648:../SSC/Src/coeappl.c **** 
 649:../SSC/Src/coeappl.c ****             if(pNextEntry != NULL)
 1341              	 .loc 1 649 0
 1342 0034 FB68     	 ldr r3,[r7,#12]
 1343 0036 002B     	 cmp r3,#0
 1344 0038 02D0     	 beq .L26
 650:../SSC/Src/coeappl.c ****                 pNextEntry->pPrev = pPrevEntry;
 1345              	 .loc 1 650 0
 1346 003a FB68     	 ldr r3,[r7,#12]
 1347 003c 3A69     	 ldr r2,[r7,#16]
 1348 003e 1A60     	 str r2,[r3]
 1349              	.L26:
 651:../SSC/Src/coeappl.c **** 
 652:../SSC/Src/coeappl.c ****             pDicEntry->pPrev = NULL;
 1350              	 .loc 1 652 0
 1351 0040 7B69     	 ldr r3,[r7,#20]
 1352 0042 0022     	 movs r2,#0
 1353 0044 1A60     	 str r2,[r3]
 653:../SSC/Src/coeappl.c ****             pDicEntry->pNext = NULL;
 1354              	 .loc 1 653 0
 1355 0046 7B69     	 ldr r3,[r7,#20]
 1356 0048 0022     	 movs r2,#0
 1357 004a 5A60     	 str r2,[r3,#4]
 654:../SSC/Src/coeappl.c ****             /*Update Object dictionary pointer if list head was removed*/
 655:../SSC/Src/coeappl.c ****             if(pDicEntry->Index == ObjDicList->Index)
 1358              	 .loc 1 655 0
 1359 004c 7B69     	 ldr r3,[r7,#20]
 1360 004e 1A89     	 ldrh r2,[r3,#8]
 1361 0050 0A4B     	 ldr r3,.L30
 1362 0052 1B68     	 ldr r3,[r3]
 1363 0054 1B89     	 ldrh r3,[r3,#8]
 1364 0056 9A42     	 cmp r2,r3
 1365 0058 03D1     	 bne .L27
 656:../SSC/Src/coeappl.c ****             {
 657:../SSC/Src/coeappl.c ****                 ObjDicList = pNextEntry;
 1366              	 .loc 1 657 0
 1367 005a 084A     	 ldr r2,.L30
 1368 005c FB68     	 ldr r3,[r7,#12]
 1369 005e 1360     	 str r3,[r2]
 658:../SSC/Src/coeappl.c ****             }
 659:../SSC/Src/coeappl.c ****             return;
 1370              	 .loc 1 659 0
 1371 0060 06E0     	 b .L22
 1372              	.L27:
 1373 0062 05E0     	 b .L22
 1374              	.L24:
 1375              	.LBE4:
 660:../SSC/Src/coeappl.c ****         }
 661:../SSC/Src/coeappl.c **** 
 662:../SSC/Src/coeappl.c ****         pDicEntry = pDicEntry->pNext;
 1376              	 .loc 1 662 0
 1377 0064 7B69     	 ldr r3,[r7,#20]
 1378 0066 5B68     	 ldr r3,[r3,#4]
 1379 0068 7B61     	 str r3,[r7,#20]
 1380              	.L23:
 639:../SSC/Src/coeappl.c ****     {
 1381              	 .loc 1 639 0
 1382 006a 7B69     	 ldr r3,[r7,#20]
 1383 006c 002B     	 cmp r3,#0
 1384 006e D0D1     	 bne .L29
 1385              	.L22:
 663:../SSC/Src/coeappl.c ****     }
 664:../SSC/Src/coeappl.c **** }
 1386              	 .loc 1 664 0
 1387 0070 1C37     	 adds r7,r7,#28
 1388              	.LCFI18:
 1389              	 .cfi_def_cfa_offset 4
 1390 0072 BD46     	 mov sp,r7
 1391              	.LCFI19:
 1392              	 .cfi_def_cfa_register 13
 1393              	 
 1394 0074 5DF8047B 	 ldr r7,[sp],#4
 1395              	.LCFI20:
 1396              	 .cfi_restore 7
 1397              	 .cfi_def_cfa_offset 0
 1398 0078 7047     	 bx lr
 1399              	.L31:
 1400 007a 00BF     	 .align 2
 1401              	.L30:
 1402 007c 00000000 	 .word ObjDicList
 1403              	 .cfi_endproc
 1404              	.LFE175:
 1406              	 .section .text.COE_ClearObjDictionary,"ax",%progbits
 1407              	 .align 2
 1408              	 .global COE_ClearObjDictionary
 1409              	 .thumb
 1410              	 .thumb_func
 1412              	COE_ClearObjDictionary:
 1413              	.LFB176:
 665:../SSC/Src/coeappl.c **** /////////////////////////////////////////////////////////////////////////////////////////
 666:../SSC/Src/coeappl.c **** /**
 667:../SSC/Src/coeappl.c **** 
 668:../SSC/Src/coeappl.c ****  \brief    This function clear the object dictionary
 669:../SSC/Src/coeappl.c **** *////////////////////////////////////////////////////////////////////////////////////////
 670:../SSC/Src/coeappl.c **** void COE_ClearObjDictionary(void)
 671:../SSC/Src/coeappl.c **** {
 1414              	 .loc 1 671 0
 1415              	 .cfi_startproc
 1416              	 
 1417              	 
 1418 0000 80B5     	 push {r7,lr}
 1419              	.LCFI21:
 1420              	 .cfi_def_cfa_offset 8
 1421              	 .cfi_offset 7,-8
 1422              	 .cfi_offset 14,-4
 1423 0002 82B0     	 sub sp,sp,#8
 1424              	.LCFI22:
 1425              	 .cfi_def_cfa_offset 16
 1426 0004 00AF     	 add r7,sp,#0
 1427              	.LCFI23:
 1428              	 .cfi_def_cfa_register 7
 672:../SSC/Src/coeappl.c ****     TOBJECT OBJMEM * pObjEntry = (TOBJECT OBJMEM *) ObjDicList;
 1429              	 .loc 1 672 0
 1430 0006 0C4B     	 ldr r3,.L35
 1431 0008 1B68     	 ldr r3,[r3]
 1432 000a 7B60     	 str r3,[r7,#4]
 673:../SSC/Src/coeappl.c ****     UINT16 Index = 0;
 1433              	 .loc 1 673 0
 1434 000c 0023     	 movs r3,#0
 1435 000e 7B80     	 strh r3,[r7,#2]
 674:../SSC/Src/coeappl.c **** 
 675:../SSC/Src/coeappl.c ****     while(pObjEntry != NULL)
 1436              	 .loc 1 675 0
 1437 0010 09E0     	 b .L33
 1438              	.L34:
 676:../SSC/Src/coeappl.c ****     {
 677:../SSC/Src/coeappl.c ****         Index = pObjEntry->Index;
 1439              	 .loc 1 677 0
 1440 0012 7B68     	 ldr r3,[r7,#4]
 1441 0014 1B89     	 ldrh r3,[r3,#8]
 1442 0016 7B80     	 strh r3,[r7,#2]
 678:../SSC/Src/coeappl.c ****         pObjEntry = pObjEntry->pNext;
 1443              	 .loc 1 678 0
 1444 0018 7B68     	 ldr r3,[r7,#4]
 1445 001a 5B68     	 ldr r3,[r3,#4]
 1446 001c 7B60     	 str r3,[r7,#4]
 679:../SSC/Src/coeappl.c **** 
 680:../SSC/Src/coeappl.c ****         COE_RemoveDicEntry(Index);
 1447              	 .loc 1 680 0
 1448 001e 7B88     	 ldrh r3,[r7,#2]
 1449 0020 1846     	 mov r0,r3
 1450 0022 FFF7FEFF 	 bl COE_RemoveDicEntry
 1451              	.L33:
 675:../SSC/Src/coeappl.c ****     {
 1452              	 .loc 1 675 0
 1453 0026 7B68     	 ldr r3,[r7,#4]
 1454 0028 002B     	 cmp r3,#0
 1455 002a F2D1     	 bne .L34
 681:../SSC/Src/coeappl.c ****     }
 682:../SSC/Src/coeappl.c ****     ObjDicList = NULL;
 1456              	 .loc 1 682 0
 1457 002c 024B     	 ldr r3,.L35
 1458 002e 0022     	 movs r2,#0
 1459 0030 1A60     	 str r2,[r3]
 683:../SSC/Src/coeappl.c **** }
 1460              	 .loc 1 683 0
 1461 0032 0837     	 adds r7,r7,#8
 1462              	.LCFI24:
 1463              	 .cfi_def_cfa_offset 8
 1464 0034 BD46     	 mov sp,r7
 1465              	.LCFI25:
 1466              	 .cfi_def_cfa_register 13
 1467              	 
 1468 0036 80BD     	 pop {r7,pc}
 1469              	.L36:
 1470              	 .align 2
 1471              	.L35:
 1472 0038 00000000 	 .word ObjDicList
 1473              	 .cfi_endproc
 1474              	.LFE176:
 1476              	 .section .text.AddObjectsToObjDictionary,"ax",%progbits
 1477              	 .align 2
 1478              	 .global AddObjectsToObjDictionary
 1479              	 .thumb
 1480              	 .thumb_func
 1482              	AddObjectsToObjDictionary:
 1483              	.LFB177:
 684:../SSC/Src/coeappl.c **** 
 685:../SSC/Src/coeappl.c **** 
 686:../SSC/Src/coeappl.c **** UINT16 AddObjectsToObjDictionary(TOBJECT OBJMEM * pObjEntry)
 687:../SSC/Src/coeappl.c **** {
 1484              	 .loc 1 687 0
 1485              	 .cfi_startproc
 1486              	 
 1487              	 
 1488 0000 80B5     	 push {r7,lr}
 1489              	.LCFI26:
 1490              	 .cfi_def_cfa_offset 8
 1491              	 .cfi_offset 7,-8
 1492              	 .cfi_offset 14,-4
 1493 0002 84B0     	 sub sp,sp,#16
 1494              	.LCFI27:
 1495              	 .cfi_def_cfa_offset 24
 1496 0004 00AF     	 add r7,sp,#0
 1497              	.LCFI28:
 1498              	 .cfi_def_cfa_register 7
 1499 0006 7860     	 str r0,[r7,#4]
 688:../SSC/Src/coeappl.c ****     UINT16 result = 0;
 1500              	 .loc 1 688 0
 1501 0008 0023     	 movs r3,#0
 1502 000a FB81     	 strh r3,[r7,#14]
 689:../SSC/Src/coeappl.c ****     TOBJECT OBJMEM * pEntry = (TOBJECT OBJMEM *)pObjEntry;
 1503              	 .loc 1 689 0
 1504 000c 7B68     	 ldr r3,[r7,#4]
 1505 000e BB60     	 str r3,[r7,#8]
 690:../SSC/Src/coeappl.c **** 
 691:../SSC/Src/coeappl.c ****     while(pEntry->Index != 0xFFFF)
 1506              	 .loc 1 691 0
 1507 0010 0CE0     	 b .L38
 1508              	.L41:
 692:../SSC/Src/coeappl.c ****     {
 693:../SSC/Src/coeappl.c ****         result = COE_AddObjectToDic(pEntry);
 1509              	 .loc 1 693 0
 1510 0012 B868     	 ldr r0,[r7,#8]
 1511 0014 FFF7FEFF 	 bl COE_AddObjectToDic
 1512 0018 0346     	 mov r3,r0
 1513 001a FB81     	 strh r3,[r7,#14]
 694:../SSC/Src/coeappl.c **** 
 695:../SSC/Src/coeappl.c ****         if(result != 0)
 1514              	 .loc 1 695 0
 1515 001c FB89     	 ldrh r3,[r7,#14]
 1516 001e 002B     	 cmp r3,#0
 1517 0020 01D0     	 beq .L39
 696:../SSC/Src/coeappl.c ****             return result;
 1518              	 .loc 1 696 0
 1519 0022 FB89     	 ldrh r3,[r7,#14]
 1520 0024 09E0     	 b .L40
 1521              	.L39:
 697:../SSC/Src/coeappl.c **** 
 698:../SSC/Src/coeappl.c ****         pEntry++;
 1522              	 .loc 1 698 0
 1523 0026 BB68     	 ldr r3,[r7,#8]
 1524 0028 2833     	 adds r3,r3,#40
 1525 002a BB60     	 str r3,[r7,#8]
 1526              	.L38:
 691:../SSC/Src/coeappl.c ****     {
 1527              	 .loc 1 691 0
 1528 002c BB68     	 ldr r3,[r7,#8]
 1529 002e 1B89     	 ldrh r3,[r3,#8]
 1530 0030 4FF6FF72 	 movw r2,#65535
 1531 0034 9342     	 cmp r3,r2
 1532 0036 ECD1     	 bne .L41
 699:../SSC/Src/coeappl.c ****     }
 700:../SSC/Src/coeappl.c **** 
 701:../SSC/Src/coeappl.c ****     return result;
 1533              	 .loc 1 701 0
 1534 0038 FB89     	 ldrh r3,[r7,#14]
 1535              	.L40:
 702:../SSC/Src/coeappl.c **** 
 703:../SSC/Src/coeappl.c **** }
 1536              	 .loc 1 703 0
 1537 003a 1846     	 mov r0,r3
 1538 003c 1037     	 adds r7,r7,#16
 1539              	.LCFI29:
 1540              	 .cfi_def_cfa_offset 8
 1541 003e BD46     	 mov sp,r7
 1542              	.LCFI30:
 1543              	 .cfi_def_cfa_register 13
 1544              	 
 1545 0040 80BD     	 pop {r7,pc}
 1546              	 .cfi_endproc
 1547              	.LFE177:
 1549 0042 00BF     	 .section .text.COE_ObjDictionaryInit,"ax",%progbits
 1550              	 .align 2
 1551              	 .global COE_ObjDictionaryInit
 1552              	 .thumb
 1553              	 .thumb_func
 1555              	COE_ObjDictionaryInit:
 1556              	.LFB178:
 704:../SSC/Src/coeappl.c **** /////////////////////////////////////////////////////////////////////////////////////////
 705:../SSC/Src/coeappl.c **** /**
 706:../SSC/Src/coeappl.c ****  \return    0               object dictionary created successful
 707:../SSC/Src/coeappl.c ****             ALSTATUSCODE_XX create object dictionary failed
 708:../SSC/Src/coeappl.c **** 
 709:../SSC/Src/coeappl.c ****  \brief    This function initialize the object dictionary
 710:../SSC/Src/coeappl.c **** *////////////////////////////////////////////////////////////////////////////////////////
 711:../SSC/Src/coeappl.c **** UINT16 COE_ObjDictionaryInit(void)
 712:../SSC/Src/coeappl.c **** {
 1557              	 .loc 1 712 0
 1558              	 .cfi_startproc
 1559              	 
 1560              	 
 1561 0000 80B5     	 push {r7,lr}
 1562              	.LCFI31:
 1563              	 .cfi_def_cfa_offset 8
 1564              	 .cfi_offset 7,-8
 1565              	 .cfi_offset 14,-4
 1566 0002 82B0     	 sub sp,sp,#8
 1567              	.LCFI32:
 1568              	 .cfi_def_cfa_offset 16
 1569 0004 00AF     	 add r7,sp,#0
 1570              	.LCFI33:
 1571              	 .cfi_def_cfa_register 7
 713:../SSC/Src/coeappl.c ****     UINT16 result = 0;
 1572              	 .loc 1 713 0
 1573 0006 0023     	 movs r3,#0
 1574 0008 FB80     	 strh r3,[r7,#6]
 714:../SSC/Src/coeappl.c **** 
 715:../SSC/Src/coeappl.c ****     /*Reset object dictionary pointer*/
 716:../SSC/Src/coeappl.c ****     ObjDicList = NULL;
 1575              	 .loc 1 716 0
 1576 000a 0B4B     	 ldr r3,.L45
 1577 000c 0022     	 movs r2,#0
 1578 000e 1A60     	 str r2,[r3]
 717:../SSC/Src/coeappl.c **** 
 718:../SSC/Src/coeappl.c ****     result = AddObjectsToObjDictionary((TOBJECT OBJMEM *) GenObjDic);
 1579              	 .loc 1 718 0
 1580 0010 0A48     	 ldr r0,.L45+4
 1581 0012 FFF7FEFF 	 bl AddObjectsToObjDictionary
 1582 0016 0346     	 mov r3,r0
 1583 0018 FB80     	 strh r3,[r7,#6]
 719:../SSC/Src/coeappl.c **** 
 720:../SSC/Src/coeappl.c ****     if(result != 0)
 1584              	 .loc 1 720 0
 1585 001a FB88     	 ldrh r3,[r7,#6]
 1586 001c 002B     	 cmp r3,#0
 1587 001e 01D0     	 beq .L43
 721:../SSC/Src/coeappl.c ****         return result;
 1588              	 .loc 1 721 0
 1589 0020 FB88     	 ldrh r3,[r7,#6]
 1590 0022 05E0     	 b .L44
 1591              	.L43:
 722:../SSC/Src/coeappl.c ****     if(ApplicationObjDic != NULL)
 723:../SSC/Src/coeappl.c ****     {
 724:../SSC/Src/coeappl.c ****         result = AddObjectsToObjDictionary((TOBJECT OBJMEM *) ApplicationObjDic);
 1592              	 .loc 1 724 0
 1593 0024 0648     	 ldr r0,.L45+8
 1594 0026 FFF7FEFF 	 bl AddObjectsToObjDictionary
 1595 002a 0346     	 mov r3,r0
 1596 002c FB80     	 strh r3,[r7,#6]
 725:../SSC/Src/coeappl.c ****     }
 726:../SSC/Src/coeappl.c **** 
 727:../SSC/Src/coeappl.c ****     return result;
 1597              	 .loc 1 727 0
 1598 002e FB88     	 ldrh r3,[r7,#6]
 1599              	.L44:
 728:../SSC/Src/coeappl.c **** }
 1600              	 .loc 1 728 0
 1601 0030 1846     	 mov r0,r3
 1602 0032 0837     	 adds r7,r7,#8
 1603              	.LCFI34:
 1604              	 .cfi_def_cfa_offset 8
 1605 0034 BD46     	 mov sp,r7
 1606              	.LCFI35:
 1607              	 .cfi_def_cfa_register 13
 1608              	 
 1609 0036 80BD     	 pop {r7,pc}
 1610              	.L46:
 1611              	 .align 2
 1612              	.L45:
 1613 0038 00000000 	 .word ObjDicList
 1614 003c 00000000 	 .word GenObjDic
 1615 0040 00000000 	 .word ApplicationObjDic
 1616              	 .cfi_endproc
 1617              	.LFE178:
 1619              	 .section .text.COE_Main,"ax",%progbits
 1620              	 .align 2
 1621              	 .global COE_Main
 1622              	 .thumb
 1623              	 .thumb_func
 1625              	COE_Main:
 1626              	.LFB179:
 729:../SSC/Src/coeappl.c **** 
 730:../SSC/Src/coeappl.c **** 
 731:../SSC/Src/coeappl.c **** /////////////////////////////////////////////////////////////////////////////////////////
 732:../SSC/Src/coeappl.c **** /**
 733:../SSC/Src/coeappl.c **** 
 734:../SSC/Src/coeappl.c ****  \brief    is called for background calculations which should not influence the
 735:../SSC/Src/coeappl.c ****              ECAT_Application in synchronous modes
 736:../SSC/Src/coeappl.c **** *////////////////////////////////////////////////////////////////////////////////////////
 737:../SSC/Src/coeappl.c **** 
 738:../SSC/Src/coeappl.c **** void COE_Main(void)
 739:../SSC/Src/coeappl.c **** {
 1627              	 .loc 1 739 0
 1628              	 .cfi_startproc
 1629              	 
 1630              	 
 1631 0000 B0B5     	 push {r4,r5,r7,lr}
 1632              	.LCFI36:
 1633              	 .cfi_def_cfa_offset 16
 1634              	 .cfi_offset 4,-16
 1635              	 .cfi_offset 5,-12
 1636              	 .cfi_offset 7,-8
 1637              	 .cfi_offset 14,-4
 1638 0002 84B0     	 sub sp,sp,#16
 1639              	.LCFI37:
 1640              	 .cfi_def_cfa_offset 32
 1641 0004 02AF     	 add r7,sp,#8
 1642              	.LCFI38:
 1643              	 .cfi_def_cfa 7,24
 740:../SSC/Src/coeappl.c ****      UINT8 abort = 0;
 1644              	 .loc 1 740 0
 1645 0006 0023     	 movs r3,#0
 1646 0008 FB71     	 strb r3,[r7,#7]
 741:../SSC/Src/coeappl.c ****     if(pSdoPendFunc != NULL)
 1647              	 .loc 1 741 0
 1648 000a 2F4B     	 ldr r3,.L54
 1649 000c 1B68     	 ldr r3,[r3]
 1650 000e 002B     	 cmp r3,#0
 1651 0010 57D0     	 beq .L47
 742:../SSC/Src/coeappl.c ****     {
 743:../SSC/Src/coeappl.c ****         abort = pSdoPendFunc(u16StoreIndex,u8StoreSubindex,u32StoreDataSize,pStoreData,bStoreComple
 1652              	 .loc 1 743 0
 1653 0012 2D4B     	 ldr r3,.L54
 1654 0014 1C68     	 ldr r4,[r3]
 1655 0016 2D4B     	 ldr r3,.L54+4
 1656 0018 1888     	 ldrh r0,[r3]
 1657 001a 2D4B     	 ldr r3,.L54+8
 1658 001c 1978     	 ldrb r1,[r3]
 1659 001e 2D4B     	 ldr r3,.L54+12
 1660 0020 1A68     	 ldr r2,[r3]
 1661 0022 2D4B     	 ldr r3,.L54+16
 1662 0024 1D68     	 ldr r5,[r3]
 1663 0026 2D4B     	 ldr r3,.L54+20
 1664 0028 1B78     	 ldrb r3,[r3]
 1665 002a 0093     	 str r3,[sp]
 1666 002c 2B46     	 mov r3,r5
 1667 002e A047     	 blx r4
 1668 0030 0346     	 mov r3,r0
 1669 0032 FB71     	 strb r3,[r7,#7]
 744:../SSC/Src/coeappl.c **** 
 745:../SSC/Src/coeappl.c ****         if(abort != ABORTIDX_WORKING)
 1670              	 .loc 1 745 0
 1671 0034 FB79     	 ldrb r3,[r7,#7]
 1672 0036 FF2B     	 cmp r3,#255
 1673 0038 43D0     	 beq .L47
 746:../SSC/Src/coeappl.c ****         {
 747:../SSC/Src/coeappl.c ****             switch(u8PendingSdo)
 1674              	 .loc 1 747 0
 1675 003a 294B     	 ldr r3,.L54+24
 1676 003c 1B78     	 ldrb r3,[r3]
 1677 003e 013B     	 subs r3,r3,#1
 1678 0040 032B     	 cmp r3,#3
 1679 0042 29D8     	 bhi .L49
 1680 0044 01A2     	 adr r2,.L51
 1681 0046 52F823F0 	 ldr pc,[r2,r3,lsl#2]
 1682 004a 00BF     	 .p2align 2
 1683              	.L51:
 1684 004c 75000000 	 .word .L50+1
 1685 0050 5D000000 	 .word .L52+1
 1686 0054 83000000 	 .word .L53+1
 1687 0058 83000000 	 .word .L53+1
 1688              	 .p2align 1
 1689              	.L52:
 748:../SSC/Src/coeappl.c ****             {
 749:../SSC/Src/coeappl.c ****                 case SDO_PENDING_SEG_WRITE:
 750:../SSC/Src/coeappl.c ****                     if(pSdoSegData)
 1690              	 .loc 1 750 0
 1691 005c 214B     	 ldr r3,.L54+28
 1692 005e 1B68     	 ldr r3,[r3]
 1693 0060 002B     	 cmp r3,#0
 1694 0062 07D0     	 beq .L50
 751:../SSC/Src/coeappl.c ****                     {
 752:../SSC/Src/coeappl.c ****                         /* the allocated buffer can be released */
 753:../SSC/Src/coeappl.c ****                         FREEMEM( (UINT16 VARMEM *) pSdoSegData );
 1695              	 .loc 1 753 0
 1696 0064 1F4B     	 ldr r3,.L54+28
 1697 0066 1B68     	 ldr r3,[r3]
 1698 0068 1846     	 mov r0,r3
 1699 006a FFF7FEFF 	 bl free
 754:../SSC/Src/coeappl.c ****                         pSdoSegData = NULL;
 1700              	 .loc 1 754 0
 1701 006e 1D4B     	 ldr r3,.L54+28
 1702 0070 0022     	 movs r2,#0
 1703 0072 1A60     	 str r2,[r3]
 1704              	.L50:
 755:../SSC/Src/coeappl.c ****                     }
 756:../SSC/Src/coeappl.c ****                 case SDO_PENDING_WRITE:
 757:../SSC/Src/coeappl.c ****                      /*send SDO Download Response*/
 758:../SSC/Src/coeappl.c ****                     SDOS_SdoRes(abort, 0, NULL);
 1705              	 .loc 1 758 0
 1706 0074 FB79     	 ldrb r3,[r7,#7]
 1707 0076 1846     	 mov r0,r3
 1708 0078 0021     	 movs r1,#0
 1709 007a 0022     	 movs r2,#0
 1710 007c FFF7FEFF 	 bl SDOS_SdoRes
 759:../SSC/Src/coeappl.c ****                 break;
 1711              	 .loc 1 759 0
 1712 0080 0AE0     	 b .L49
 1713              	.L53:
 760:../SSC/Src/coeappl.c **** 
 761:../SSC/Src/coeappl.c ****                 case SDO_PENDING_SEG_READ:
 762:../SSC/Src/coeappl.c ****                 case SDO_PENDING_READ:
 763:../SSC/Src/coeappl.c ****                     /* send SDO upload response */
 764:../SSC/Src/coeappl.c ****                       SDOS_SdoRes(abort, u32StoreDataSize, pStoreData);
 1714              	 .loc 1 764 0
 1715 0082 144B     	 ldr r3,.L54+12
 1716 0084 1A68     	 ldr r2,[r3]
 1717 0086 144B     	 ldr r3,.L54+16
 1718 0088 1B68     	 ldr r3,[r3]
 1719 008a F979     	 ldrb r1,[r7,#7]
 1720 008c 0846     	 mov r0,r1
 1721 008e 1146     	 mov r1,r2
 1722 0090 1A46     	 mov r2,r3
 1723 0092 FFF7FEFF 	 bl SDOS_SdoRes
 765:../SSC/Src/coeappl.c ****                     break;
 1724              	 .loc 1 765 0
 1725 0096 00BF     	 nop
 1726              	.L49:
 766:../SSC/Src/coeappl.c **** 
 767:../SSC/Src/coeappl.c ****             }
 768:../SSC/Src/coeappl.c **** 
 769:../SSC/Src/coeappl.c ****             u8PendingSdo = 0;
 1727              	 .loc 1 769 0
 1728 0098 114B     	 ldr r3,.L54+24
 1729 009a 0022     	 movs r2,#0
 1730 009c 1A70     	 strb r2,[r3]
 770:../SSC/Src/coeappl.c ****             u16StoreIndex = 0;
 1731              	 .loc 1 770 0
 1732 009e 0B4B     	 ldr r3,.L54+4
 1733 00a0 0022     	 movs r2,#0
 1734 00a2 1A80     	 strh r2,[r3]
 771:../SSC/Src/coeappl.c ****             u8StoreSubindex = 0;
 1735              	 .loc 1 771 0
 1736 00a4 0A4B     	 ldr r3,.L54+8
 1737 00a6 0022     	 movs r2,#0
 1738 00a8 1A70     	 strb r2,[r3]
 772:../SSC/Src/coeappl.c ****             u32StoreDataSize = 0;
 1739              	 .loc 1 772 0
 1740 00aa 0A4B     	 ldr r3,.L54+12
 1741 00ac 0022     	 movs r2,#0
 1742 00ae 1A60     	 str r2,[r3]
 773:../SSC/Src/coeappl.c ****             pStoreData = NULL;
 1743              	 .loc 1 773 0
 1744 00b0 094B     	 ldr r3,.L54+16
 1745 00b2 0022     	 movs r2,#0
 1746 00b4 1A60     	 str r2,[r3]
 774:../SSC/Src/coeappl.c ****             bStoreCompleteAccess = 0;
 1747              	 .loc 1 774 0
 1748 00b6 094B     	 ldr r3,.L54+20
 1749 00b8 0022     	 movs r2,#0
 1750 00ba 1A70     	 strb r2,[r3]
 775:../SSC/Src/coeappl.c ****             pSdoPendFunc = NULL;
 1751              	 .loc 1 775 0
 1752 00bc 024B     	 ldr r3,.L54
 1753 00be 0022     	 movs r2,#0
 1754 00c0 1A60     	 str r2,[r3]
 1755              	.L47:
 776:../SSC/Src/coeappl.c ****         }
 777:../SSC/Src/coeappl.c ****     }
 778:../SSC/Src/coeappl.c **** }
 1756              	 .loc 1 778 0
 1757 00c2 0837     	 adds r7,r7,#8
 1758              	.LCFI39:
 1759              	 .cfi_def_cfa_offset 16
 1760 00c4 BD46     	 mov sp,r7
 1761              	.LCFI40:
 1762              	 .cfi_def_cfa_register 13
 1763              	 
 1764 00c6 B0BD     	 pop {r4,r5,r7,pc}
 1765              	.L55:
 1766              	 .align 2
 1767              	.L54:
 1768 00c8 00000000 	 .word pSdoPendFunc
 1769 00cc 00000000 	 .word u16StoreIndex
 1770 00d0 00000000 	 .word u8StoreSubindex
 1771 00d4 00000000 	 .word u32StoreDataSize
 1772 00d8 00000000 	 .word pStoreData
 1773 00dc 00000000 	 .word bStoreCompleteAccess
 1774 00e0 00000000 	 .word u8PendingSdo
 1775 00e4 00000000 	 .word pSdoSegData
 1776              	 .cfi_endproc
 1777              	.LFE179:
 1779              	 .text
 1780              	.Letext0:
 1781              	 .file 2 "c:\\davev4-64bit\\dave-4.3.2\\eclipse\\arm-gcc-49\\arm-none-eabi\\include\\machine\\_default_types.h"
 1782              	 .file 3 "c:\\davev4-64bit\\dave-4.3.2\\eclipse\\arm-gcc-49\\arm-none-eabi\\include\\stdint.h"
 1783              	 .file 4 "../SSC/Src/sdoserv.h"
 1784              	 .file 5 "../SSC/Src/objdef.h"
 1785              	 .file 6 "../SSC/Src/XMC_ESCObjects.h"
 1786              	 .file 7 "C:/Workspaces/SOES-FW-UPDATE/ETHCAT_FWUPDATE_SSC_APPLICATION_XMC48/Libraries/CMSIS/Include/core_cm4.h"