Archive member included because of file (symbol)

c:/davev4-64bit/dave-4.3.2/eclipse/arm-gcc-49/bin/../lib/gcc/arm-none-eabi/4.9.3/armv7e-m/softfp\libgcc.a(_aeabi_uldivmod.o)
                              ./Dave/Generated/TIMER/timer.o (__aeabi_uldivmod)
c:/davev4-64bit/dave-4.3.2/eclipse/arm-gcc-49/bin/../lib/gcc/arm-none-eabi/4.9.3/armv7e-m/softfp\libgcc.a(bpabi.o)
                              c:/davev4-64bit/dave-4.3.2/eclipse/arm-gcc-49/bin/../lib/gcc/arm-none-eabi/4.9.3/armv7e-m/softfp\libgcc.a(_aeabi_uldivmod.o) (__gnu_uldivmod_helper)
c:/davev4-64bit/dave-4.3.2/eclipse/arm-gcc-49/bin/../lib/gcc/arm-none-eabi/4.9.3/armv7e-m/softfp\libgcc.a(_dvmd_tls.o)
                              c:/davev4-64bit/dave-4.3.2/eclipse/arm-gcc-49/bin/../lib/gcc/arm-none-eabi/4.9.3/armv7e-m/softfp\libgcc.a(_aeabi_uldivmod.o) (__aeabi_ldiv0)
c:/davev4-64bit/dave-4.3.2/eclipse/arm-gcc-49/bin/../lib/gcc/arm-none-eabi/4.9.3/armv7e-m/softfp\libgcc.a(_divdi3.o)
                              c:/davev4-64bit/dave-4.3.2/eclipse/arm-gcc-49/bin/../lib/gcc/arm-none-eabi/4.9.3/armv7e-m/softfp\libgcc.a(bpabi.o) (__divdi3)
c:/davev4-64bit/dave-4.3.2/eclipse/arm-gcc-49/bin/../lib/gcc/arm-none-eabi/4.9.3/armv7e-m/softfp\libgcc.a(_udivdi3.o)
                              c:/davev4-64bit/dave-4.3.2/eclipse/arm-gcc-49/bin/../lib/gcc/arm-none-eabi/4.9.3/armv7e-m/softfp\libgcc.a(bpabi.o) (__udivdi3)
c:/davev4-64bit/dave-4.3.2/eclipse/arm-gcc-49/bin/../lib/gcc/arm-none-eabi/4.9.3/../../../../arm-none-eabi/lib/armv7e-m/softfp\libg_nano.a(lib_a-errno.o)
                              ./Libraries/Newlib/syscalls.o (__errno)
c:/davev4-64bit/dave-4.3.2/eclipse/arm-gcc-49/bin/../lib/gcc/arm-none-eabi/4.9.3/../../../../arm-none-eabi/lib/armv7e-m/softfp\libg_nano.a(lib_a-impure.o)
                              c:/davev4-64bit/dave-4.3.2/eclipse/arm-gcc-49/bin/../lib/gcc/arm-none-eabi/4.9.3/../../../../arm-none-eabi/lib/armv7e-m/softfp\libg_nano.a(lib_a-errno.o) (_impure_ptr)
c:/davev4-64bit/dave-4.3.2/eclipse/arm-gcc-49/bin/../lib/gcc/arm-none-eabi/4.9.3/../../../../arm-none-eabi/lib/armv7e-m/softfp\libg_nano.a(lib_a-init.o)
                              ./Startup/startup_XMC4800.o (__libc_init_array)
c:/davev4-64bit/dave-4.3.2/eclipse/arm-gcc-49/bin/../lib/gcc/arm-none-eabi/4.9.3/../../../../arm-none-eabi/lib/armv7e-m/softfp\libg_nano.a(lib_a-malloc.o)
                              ./SSC/Src/ecatcoe.o (malloc)
c:/davev4-64bit/dave-4.3.2/eclipse/arm-gcc-49/bin/../lib/gcc/arm-none-eabi/4.9.3/../../../../arm-none-eabi/lib/armv7e-m/softfp\libg_nano.a(lib_a-memcpy.o)
                              ./SSC/Src/XMC_ESC.o (memcpy)
c:/davev4-64bit/dave-4.3.2/eclipse/arm-gcc-49/bin/../lib/gcc/arm-none-eabi/4.9.3/../../../../arm-none-eabi/lib/armv7e-m/softfp\libg_nano.a(lib_a-memset.o)
                              ./SSC/Src/foeappl.o (memset)
c:/davev4-64bit/dave-4.3.2/eclipse/arm-gcc-49/bin/../lib/gcc/arm-none-eabi/4.9.3/../../../../arm-none-eabi/lib/armv7e-m/softfp\libg_nano.a(lib_a-nano-freer.o)
                              c:/davev4-64bit/dave-4.3.2/eclipse/arm-gcc-49/bin/../lib/gcc/arm-none-eabi/4.9.3/../../../../arm-none-eabi/lib/armv7e-m/softfp\libg_nano.a(lib_a-malloc.o) (_free_r)
c:/davev4-64bit/dave-4.3.2/eclipse/arm-gcc-49/bin/../lib/gcc/arm-none-eabi/4.9.3/../../../../arm-none-eabi/lib/armv7e-m/softfp\libg_nano.a(lib_a-nano-mallocr.o)
                              c:/davev4-64bit/dave-4.3.2/eclipse/arm-gcc-49/bin/../lib/gcc/arm-none-eabi/4.9.3/../../../../arm-none-eabi/lib/armv7e-m/softfp\libg_nano.a(lib_a-malloc.o) (_malloc_r)
c:/davev4-64bit/dave-4.3.2/eclipse/arm-gcc-49/bin/../lib/gcc/arm-none-eabi/4.9.3/../../../../arm-none-eabi/lib/armv7e-m/softfp\libg_nano.a(lib_a-sbrkr.o)
                              c:/davev4-64bit/dave-4.3.2/eclipse/arm-gcc-49/bin/../lib/gcc/arm-none-eabi/4.9.3/../../../../arm-none-eabi/lib/armv7e-m/softfp\libg_nano.a(lib_a-nano-mallocr.o) (_sbrk_r)
c:/davev4-64bit/dave-4.3.2/eclipse/arm-gcc-49/bin/../lib/gcc/arm-none-eabi/4.9.3/../../../../arm-none-eabi/lib/armv7e-m/softfp\libg_nano.a(lib_a-strlen.o)
                              ./SSC/Src/objdef.o (strlen)
c:/davev4-64bit/dave-4.3.2/eclipse/arm-gcc-49/bin/../lib/gcc/arm-none-eabi/4.9.3/../../../../arm-none-eabi/lib/armv7e-m/softfp\libg_nano.a(lib_a-reent.o)
                              c:/davev4-64bit/dave-4.3.2/eclipse/arm-gcc-49/bin/../lib/gcc/arm-none-eabi/4.9.3/../../../../arm-none-eabi/lib/armv7e-m/softfp\libg_nano.a(lib_a-sbrkr.o) (errno)

Allocating common symbols
Common symbol       size              file

b3BufferMode        0x1               ./SSC/Src/ecatslv.o
nEcatStateTrans     0x2               ./SSC/Src/ecatslv.o
asMbx               0x200             ./SSC/Src/mailbox.o
StartTimerCnt       0x4               ./SSC/Src/ecatappl.o
bApplEsmPending     0x1               ./SSC/Src/ecatslv.o
nFileWriteOffset    0x4               ./SSC/Src/foeappl.o
pCoeSendStored      0x4               ./SSC/Src/ecatcoe.o
nSdoInfoIndex       0x2               ./SSC/Src/sdoserv.o
pStoreData          0x4               ./SSC/Src/sdoserv.o
u8MbxReadCounter    0x1               ./SSC/Src/mailbox.o
nAlStatus           0x1               ./SSC/Src/ecatslv.o
nPdOutputSize       0x2               ./SSC/Src/ecatslv.o
u32FileOffset       0x4               ./SSC/Src/ecatfoe.o
u16LocalErrorCode   0x2               ./SSC/Src/ecatslv.o
nSdoSegBytesToHandle
                    0x4               ./SSC/Src/sdoserv.o
errno               0x4               c:/davev4-64bit/dave-4.3.2/eclipse/arm-gcc-49/bin/../lib/gcc/arm-none-eabi/4.9.3/../../../../arm-none-eabi/lib/armv7e-m/softfp\libg_nano.a(lib_a-reent.o)
sMbxSendQueue       0x34              ./SSC/Src/mailbox.o
sMbxReceiveQueue    0x34              ./SSC/Src/mailbox.o
bNoMbxMemoryAvailable
                    0x1               ./SSC/Src/mailbox.o
u16FileAccessState  0x2               ./SSC/Src/ecatfoe.o
Sync0WdCounter      0x2               ./SSC/Src/ecatslv.o
u32PacketNo         0x4               ./SSC/Src/ecatfoe.o
dma0_event_handlers
                    0x20              ./Libraries/XMCLib/src/xmc_dma.o
bLocalErrorFlag     0x1               ./SSC/Src/ecatslv.o
bSendMbxIsFull      0x1               ./SSC/Src/mailbox.o
LatchInputSync0Counter
                    0x2               ./SSC/Src/ecatslv.o
i16WaitForPllRunningCnt
                    0x2               ./SSC/Src/ecatslv.o
nEscAddrOutputData  0x2               ./SSC/Src/ecatslv.o
bCycleTimeMeasurementStarted
                    0x1               ./SSC/Src/ecatappl.o
bMbxRunning         0x1               ./SSC/Src/mailbox.o
aFileData           0x180             ./SSC/Src/foeappl.o
Sync0WdValue        0x2               ./SSC/Src/ecatslv.o
u8EcatRunLed        0x1               ./SSC/Src/ecatslv.o
i16WaitForPllRunningTimeout
                    0x2               ./SSC/Src/ecatslv.o
bSdoSegAccess       0x1               ./SSC/Src/sdoserv.o
pAPPL_EEPROM_Read   0x4               ./SSC/Src/ecatappl.o
Sync1WdValue        0x2               ./SSC/Src/ecatslv.o
pAPPL_EEPROM_Write  0x4               ./SSC/Src/ecatappl.o
bSdoSegFollows      0x1               ./SSC/Src/sdoserv.o
nSdoSegCompleteSize
                    0x4               ./SSC/Src/sdoserv.o
u8dummy             0x1               ./SSC/Src/ecatslv.o
u16ALEventMask      0x2               ./SSC/Src/ecatslv.o
pipe                0x1c0             ./Libraries/XMCLib/src/xmc_usbh.o
pSdoPendFunc        0x4               ./SSC/Src/sdoserv.o
bDcRunning          0x1               ./SSC/Src/ecatslv.o
bRunApplication     0x1               ./SSC/Src/ecatappl.o
u16EscAddrReceiveMbx
                    0x2               ./SSC/Src/mailbox.o
psStoreMbx          0x4               ./SSC/Src/mailbox.o
dma1_event_handlers
                    0x10              ./Libraries/XMCLib/src/xmc_dma.o
SyncManInfo         0x8               ./SSC/Src/ecatslv.o
nFileSize           0x4               ./SSC/Src/foeappl.o
event_handler_list  0x80              ./Libraries/XMCLib/src/xmc4_scu.o
u8PendingSdo        0x1               ./SSC/Src/sdoserv.o
LatchInputSync0Value
                    0x2               ./SSC/Src/ecatslv.o
u16SendMbxSize      0x2               ./SSC/Src/mailbox.o
bEcatWaitForAlControlRes
                    0x1               ./SSC/Src/ecatslv.o
is_nack             0xe               ./Libraries/XMCLib/src/xmc_usbh.o
psReadMbx           0x4               ./SSC/Src/mailbox.o
bEcatWaitForInputUpdate
                    0x1               ./SSC/Src/ecatappl.o
sSyncManInPar       0x44              ./SSC/Src/objdef.o
nPdInputSize        0x2               ./SSC/Src/ecatslv.o
u16SmSync0Value     0x2               ./SSC/Src/ecatslv.o
bStoreCompleteAccess
                    0x1               ./SSC/Src/sdoserv.o
aPdOutputData       0x44              ./SSC/Src/ecatappl.o
bSdoSegLastToggle   0x1               ./SSC/Src/sdoserv.o
nSdoSegService      0x1               ./SSC/Src/sdoserv.o
bReceiveMbxIsLocked
                    0x1               ./SSC/Src/mailbox.o
u16EscAddrSendMbx   0x2               ./SSC/Src/mailbox.o
nMaxEscAddress      0x2               ./SSC/Src/ecatslv.o
bEcatFirstOutputsReceived
                    0x1               ./SSC/Src/ecatslv.o
psWriteMbx          0x4               ./SSC/Src/mailbox.o
u8MbxWriteCounter   0x1               ./SSC/Src/mailbox.o
u8MailboxSendReqStored
                    0x1               ./SSC/Src/mailbox.o
pSdoInfoObjEntry    0x4               ./SSC/Src/sdoserv.o
bSmSyncSequenceValid
                    0x1               ./SSC/Src/ecatslv.o
nSdoInfoFragmentsLeft
                    0x2               ./SSC/Src/sdoserv.o
usbd_init           0x4               ./Libraries/XMCLib/src/xmc_usbd.o
EsmTimeoutCounter   0x2               ./SSC/Src/ecatslv.o
u16ReceiveMbxSize   0x2               ./SSC/Src/mailbox.o
pSdoResStored       0x4               ./SSC/Src/sdoserv.o
bBootMode           0x1               ./SSC/Src/ecatslv.o
u32StoreDataSize    0x4               ./SSC/Src/sdoserv.o
pSdoSegData         0x4               ./SSC/Src/sdoserv.o
bDcSyncActive       0x1               ./SSC/Src/ecatslv.o
bEcatOutputUpdateRunning
                    0x1               ./SSC/Src/ecatslv.o
sSyncManOutPar      0x44              ./SSC/Src/objdef.o
Sync1WdCounter      0x2               ./SSC/Src/ecatslv.o
EcatWdValue         0x2               ./SSC/Src/ecatslv.o
bEtherCATErrorLed   0x1               ./SSC/Src/ecatappl.o
bSyncSetByUser      0x1               ./SSC/Src/objdef.o
bMbxRepeatToggle    0x1               ./SSC/Src/mailbox.o
bEcatInputUpdateRunning
                    0x1               ./SSC/Src/ecatslv.o
bEscIntEnabled      0x1               ./SSC/Src/ecatslv.o
psRepeatMbx         0x4               ./SSC/Src/mailbox.o
nSdoSegIndex        0x2               ./SSC/Src/sdoserv.o
aSdoInfoHeader      0x10              ./SSC/Src/sdoserv.o
pSdoSegObjEntry     0x4               ./SSC/Src/sdoserv.o
aPdInputData        0x44              ./SSC/Src/ecatappl.o
bWdTrigger          0x1               ./SSC/Src/ecatslv.o
nSdoSegSubindex     0x1               ./SSC/Src/sdoserv.o
pEEPROM             0x4               ./SSC/Src/ecatappl.o
u16StoreIndex       0x2               ./SSC/Src/sdoserv.o
bEtherCATRunLed     0x1               ./SSC/Src/ecatappl.o
xmc_device          0x208             ./Libraries/XMCLib/src/xmc_usbd.o
u16SmSync0Counter   0x2               ./SSC/Src/ecatslv.o
pFoeSendStored      0x4               ./SSC/Src/ecatfoe.o
nMaxSyncMan         0x1               ./SSC/Src/ecatslv.o
pAPPL_EEPROM_Reload
                    0x4               ./SSC/Src/ecatappl.o
u8StoreSubindex     0x1               ./SSC/Src/sdoserv.o
aFileName           0x10              ./SSC/Src/foeappl.o
u32LastFileOffset   0x4               ./SSC/Src/ecatfoe.o
sCycleDiag          0x2               ./SSC/Src/objdef.o
u16BusCycleCntMs    0x2               ./SSC/Src/ecatappl.o
u8EcatErrorLed      0x1               ./SSC/Src/ecatslv.o
nEscAddrInputData   0x2               ./SSC/Src/ecatslv.o

Discarded input sections

 .text          0x00000000        0x0 ./Startup/startup_XMC4800.o
 .data          0x00000000        0x0 ./Startup/startup_XMC4800.o
 .bss           0x00000000        0x0 ./Startup/startup_XMC4800.o
 .text          0x00000000        0x0 ./Startup/system_XMC4800.o
 .data          0x00000000        0x0 ./Startup/system_XMC4800.o
 .bss           0x00000000        0x0 ./Startup/system_XMC4800.o
 .text.delay    0x00000000       0x28 ./Startup/system_XMC4800.o
 .text.SystemCoreSetup
                0x00000000       0x70 ./Startup/system_XMC4800.o
 .text.SystemCoreClockSetup
                0x00000000      0x2e0 ./Startup/system_XMC4800.o
 .text.OSCHP_GetFrequency
                0x00000000       0x14 ./Startup/system_XMC4800.o
 .comment       0x00000000       0x71 ./Startup/system_XMC4800.o
 .text          0x00000000        0x0 ./SSC/Src/XMC_ESC.o
 .data          0x00000000        0x0 ./SSC/Src/XMC_ESC.o
 .bss           0x00000000        0x0 ./SSC/Src/XMC_ESC.o
 .comment       0x00000000       0x71 ./SSC/Src/XMC_ESC.o
 .text          0x00000000        0x0 ./SSC/Src/bootmode.o
 .data          0x00000000        0x0 ./SSC/Src/bootmode.o
 .bss           0x00000000        0x0 ./SSC/Src/bootmode.o
 .text.BL_StartDownload
                0x00000000       0x14 ./SSC/Src/bootmode.o
 .text.BL_Data  0x00000000       0x1c ./SSC/Src/bootmode.o
 .comment       0x00000000       0x71 ./SSC/Src/bootmode.o
 .text          0x00000000        0x0 ./SSC/Src/coeappl.o
 .data          0x00000000        0x0 ./SSC/Src/coeappl.o
 .bss           0x00000000        0x0 ./SSC/Src/coeappl.o
 .comment       0x00000000       0x71 ./SSC/Src/coeappl.o
 .text          0x00000000        0x0 ./SSC/Src/ecatappl.o
 .data          0x00000000        0x0 ./SSC/Src/ecatappl.o
 .bss           0x00000000        0x0 ./SSC/Src/ecatappl.o
 .comment       0x00000000       0x71 ./SSC/Src/ecatappl.o
 .text          0x00000000        0x0 ./SSC/Src/ecatcoe.o
 .data          0x00000000        0x0 ./SSC/Src/ecatcoe.o
 .bss           0x00000000        0x0 ./SSC/Src/ecatcoe.o
 .comment       0x00000000       0x71 ./SSC/Src/ecatcoe.o
 .text          0x00000000        0x0 ./SSC/Src/ecatfoe.o
 .data          0x00000000        0x0 ./SSC/Src/ecatfoe.o
 .bss           0x00000000        0x0 ./SSC/Src/ecatfoe.o
 .text.FOE_Init
                0x00000000       0x2c ./SSC/Src/ecatfoe.o
 .comment       0x00000000       0x71 ./SSC/Src/ecatfoe.o
 .text          0x00000000        0x0 ./SSC/Src/ecatslv.o
 .data          0x00000000        0x0 ./SSC/Src/ecatslv.o
 .bss           0x00000000        0x0 ./SSC/Src/ecatslv.o
 .text.ECAT_StateChange
                0x00000000      0x19c ./SSC/Src/ecatslv.o
 .comment       0x00000000       0x71 ./SSC/Src/ecatslv.o
 .text          0x00000000        0x0 ./SSC/Src/foeappl.o
 .data          0x00000000        0x0 ./SSC/Src/foeappl.o
 .bss           0x00000000        0x0 ./SSC/Src/foeappl.o
 .rodata.aFirmwareDownloadHeader
                0x00000000        0x8 ./SSC/Src/foeappl.o
 .comment       0x00000000       0x71 ./SSC/Src/foeappl.o
 .text          0x00000000        0x0 ./SSC/Src/mailbox.o
 .data          0x00000000        0x0 ./SSC/Src/mailbox.o
 .bss           0x00000000        0x0 ./SSC/Src/mailbox.o
 .comment       0x00000000       0x71 ./SSC/Src/mailbox.o
 .text          0x00000000        0x0 ./SSC/Src/objdef.o
 .data          0x00000000        0x0 ./SSC/Src/objdef.o
 .bss           0x00000000        0x0 ./SSC/Src/objdef.o
 .comment       0x00000000       0x71 ./SSC/Src/objdef.o
 .text          0x00000000        0x0 ./SSC/Src/sdoserv.o
 .data          0x00000000        0x0 ./SSC/Src/sdoserv.o
 .bss           0x00000000        0x0 ./SSC/Src/sdoserv.o
 .comment       0x00000000       0x71 ./SSC/Src/sdoserv.o
 .text          0x00000000        0x0 ./Libraries/XMCLib/src/xmc4_eru.o
 .data          0x00000000        0x0 ./Libraries/XMCLib/src/xmc4_eru.o
 .bss           0x00000000        0x0 ./Libraries/XMCLib/src/xmc4_eru.o
 .text.XMC_ERU_Disable
                0x00000000       0x2c ./Libraries/XMCLib/src/xmc4_eru.o
 .comment       0x00000000       0x71 ./Libraries/XMCLib/src/xmc4_eru.o
 .text          0x00000000        0x0 ./Libraries/XMCLib/src/xmc4_flash.o
 .data          0x00000000        0x0 ./Libraries/XMCLib/src/xmc4_flash.o
 .bss           0x00000000        0x0 ./Libraries/XMCLib/src/xmc4_flash.o
 .text.XMC_FLASH_lWriteUCBPageCommand
                0x00000000       0x44 ./Libraries/XMCLib/src/xmc4_flash.o
 .text.XMC_FLASH_lDisableSectorWriteProtectionCommand
                0x00000000       0x64 ./Libraries/XMCLib/src/xmc4_flash.o
 .text.XMC_FLASH_lDisableReadProtectionCommand
                0x00000000       0x60 ./Libraries/XMCLib/src/xmc4_flash.o
 .text.XMC_FLASH_EnableEvent
                0x00000000       0x30 ./Libraries/XMCLib/src/xmc4_flash.o
 .text.XMC_FLASH_DisableEvent
                0x00000000       0x30 ./Libraries/XMCLib/src/xmc4_flash.o
 .text.XMC_FLASH_lRepairPhysicalSectorCommand
                0x00000000       0x58 ./Libraries/XMCLib/src/xmc4_flash.o
 .text.XMC_FLASH_RepairPhysicalSector
                0x00000000       0x10 ./Libraries/XMCLib/src/xmc4_flash.o
 .text.XMC_FLASH_EraseUCB
                0x00000000       0x70 ./Libraries/XMCLib/src/xmc4_flash.o
 .text.XMC_FLASH_Reset
                0x00000000       0x20 ./Libraries/XMCLib/src/xmc4_flash.o
 .text.XMC_FLASH_InstallProtection
                0x00000000       0x7c ./Libraries/XMCLib/src/xmc4_flash.o
 .text.XMC_FLASH_ConfirmProtection
                0x00000000       0x6c ./Libraries/XMCLib/src/xmc4_flash.o
 .text.XMC_FLASH_VerifyReadProtection
                0x00000000       0x48 ./Libraries/XMCLib/src/xmc4_flash.o
 .text.XMC_FLASH_VerifyWriteProtection
                0x00000000       0x84 ./Libraries/XMCLib/src/xmc4_flash.o
 .text.XMC_FLASH_ResumeProtection
                0x00000000       0x20 ./Libraries/XMCLib/src/xmc4_flash.o
 .comment       0x00000000       0x71 ./Libraries/XMCLib/src/xmc4_flash.o
 .text          0x00000000        0x0 ./Libraries/XMCLib/src/xmc4_gpio.o
 .data          0x00000000        0x0 ./Libraries/XMCLib/src/xmc4_gpio.o
 .bss           0x00000000        0x0 ./Libraries/XMCLib/src/xmc4_gpio.o
 .text.XMC_GPIO_SetOutputStrength
                0x00000000       0x84 ./Libraries/XMCLib/src/xmc4_gpio.o
 .comment       0x00000000       0x71 ./Libraries/XMCLib/src/xmc4_gpio.o
 .text          0x00000000        0x0 ./Libraries/XMCLib/src/xmc4_rtc.o
 .data          0x00000000        0x0 ./Libraries/XMCLib/src/xmc4_rtc.o
 .bss           0x00000000        0x0 ./Libraries/XMCLib/src/xmc4_rtc.o
 .text.XMC_RTC_IsRunning
                0x00000000       0x24 ./Libraries/XMCLib/src/xmc4_rtc.o
 .text.XMC_SCU_GetMirrorStatus
                0x00000000       0x18 ./Libraries/XMCLib/src/xmc4_rtc.o
 .text.XMC_RTC_Enable
                0x00000000        0xc ./Libraries/XMCLib/src/xmc4_rtc.o
 .text.XMC_RTC_Disable
                0x00000000        0xc ./Libraries/XMCLib/src/xmc4_rtc.o
 .text.XMC_RTC_IsEnabled
                0x00000000       0x10 ./Libraries/XMCLib/src/xmc4_rtc.o
 .text.XMC_RTC_Init
                0x00000000       0xa4 ./Libraries/XMCLib/src/xmc4_rtc.o
 .text.XMC_RTC_EnableEvent
                0x00000000       0x30 ./Libraries/XMCLib/src/xmc4_rtc.o
 .text.XMC_RTC_DisableEvent
                0x00000000       0x30 ./Libraries/XMCLib/src/xmc4_rtc.o
 .text.XMC_RTC_ClearEvent
                0x00000000       0x28 ./Libraries/XMCLib/src/xmc4_rtc.o
 .debug_info    0x00000000      0x6b0 ./Libraries/XMCLib/src/xmc4_rtc.o
 .debug_abbrev  0x00000000      0x1e5 ./Libraries/XMCLib/src/xmc4_rtc.o
 .debug_loc     0x00000000      0x264 ./Libraries/XMCLib/src/xmc4_rtc.o
 .debug_aranges
                0x00000000       0x60 ./Libraries/XMCLib/src/xmc4_rtc.o
 .debug_ranges  0x00000000       0x50 ./Libraries/XMCLib/src/xmc4_rtc.o
 .debug_line    0x00000000      0x353 ./Libraries/XMCLib/src/xmc4_rtc.o
 .debug_str     0x00000000      0x4cc ./Libraries/XMCLib/src/xmc4_rtc.o
 .comment       0x00000000       0x71 ./Libraries/XMCLib/src/xmc4_rtc.o
 .debug_frame   0x00000000      0x154 ./Libraries/XMCLib/src/xmc4_rtc.o
 .ARM.attributes
                0x00000000       0x37 ./Libraries/XMCLib/src/xmc4_rtc.o
 .text          0x00000000        0x0 ./Libraries/XMCLib/src/xmc4_scu.o
 .data          0x00000000        0x0 ./Libraries/XMCLib/src/xmc4_scu.o
 .bss           0x00000000        0x0 ./Libraries/XMCLib/src/xmc4_scu.o
 .text.XMC_SCU_CLOCK_GetUsbClockSource
                0x00000000       0x1c ./Libraries/XMCLib/src/xmc4_scu.o
 .text.XMC_SCU_CLOCK_GetWdtClockSource
                0x00000000       0x1c ./Libraries/XMCLib/src/xmc4_scu.o
 .text.XMC_SCU_CLOCK_GetExternalOutputClockSource
                0x00000000       0x20 ./Libraries/XMCLib/src/xmc4_scu.o
 .text.XMC_SCU_CLOCK_GetECATClockDivider
                0x00000000       0x1c ./Libraries/XMCLib/src/xmc4_scu.o
 .text.XMC_SCU_CLOCK_GetSystemClockFrequency
                0x00000000       0x28 ./Libraries/XMCLib/src/xmc4_scu.o
 .text.XMC_SCU_CLOCK_GetCpuClockFrequency
                0x00000000       0x18 ./Libraries/XMCLib/src/xmc4_scu.o
 .text.XMC_SCU_INTERRUPT_EnableEvent
                0x00000000       0x24 ./Libraries/XMCLib/src/xmc4_scu.o
 .text.XMC_SCU_INTERRUPT_DisableEvent
                0x00000000       0x24 ./Libraries/XMCLib/src/xmc4_scu.o
 .text.XMC_SCU_INTERRUPT_TriggerEvent
                0x00000000       0x24 ./Libraries/XMCLib/src/xmc4_scu.o
 .text.XMC_SCU_INTERUPT_GetEventStatus
                0x00000000       0x18 ./Libraries/XMCLib/src/xmc4_scu.o
 .text.XMC_SCU_INTERRUPT_ClearEventStatus
                0x00000000       0x1c ./Libraries/XMCLib/src/xmc4_scu.o
 .text.XMC_SCU_GetBootMode
                0x00000000       0x1c ./Libraries/XMCLib/src/xmc4_scu.o
 .text.XMC_SCU_ReadGPR
                0x00000000       0x24 ./Libraries/XMCLib/src/xmc4_scu.o
 .text.XMC_SCU_WriteGPR
                0x00000000       0x28 ./Libraries/XMCLib/src/xmc4_scu.o
 .text.XMC_SCU_EnableOutOfRangeComparator
                0x00000000       0x38 ./Libraries/XMCLib/src/xmc4_scu.o
 .text.XMC_SCU_DisableOutOfRangeComparator
                0x00000000       0x38 ./Libraries/XMCLib/src/xmc4_scu.o
 .text.XMC_SCU_CalibrateTemperatureSensor
                0x00000000       0x2c ./Libraries/XMCLib/src/xmc4_scu.o
 .text.XMC_SCU_EnableTemperatureSensor
                0x00000000       0x20 ./Libraries/XMCLib/src/xmc4_scu.o
 .text.XMC_SCU_DisableTemperatureSensor
                0x00000000       0x20 ./Libraries/XMCLib/src/xmc4_scu.o
 .text.XMC_SCU_IsTemperatureSensorEnabled
                0x00000000       0x28 ./Libraries/XMCLib/src/xmc4_scu.o
 .text.XMC_SCU_IsTemperatureSensorReady
                0x00000000       0x28 ./Libraries/XMCLib/src/xmc4_scu.o
 .text.XMC_SCU_StartTemperatureMeasurement
                0x00000000       0x4c ./Libraries/XMCLib/src/xmc4_scu.o
 .text.XMC_SCU_GetTemperatureMeasurement
                0x00000000       0x38 ./Libraries/XMCLib/src/xmc4_scu.o
 .text.XMC_SCU_IsTemperatureSensorBusy
                0x00000000       0x28 ./Libraries/XMCLib/src/xmc4_scu.o
 .text.XMC_SCU_WriteToRetentionMemory
                0x00000000       0x4c ./Libraries/XMCLib/src/xmc4_scu.o
 .text.XMC_SCU_ReadFromRetentionMemory
                0x00000000       0x48 ./Libraries/XMCLib/src/xmc4_scu.o
 .text.XMC_SCU_TRAP_Enable
                0x00000000       0x24 ./Libraries/XMCLib/src/xmc4_scu.o
 .text.XMC_SCU_TRAP_Disable
                0x00000000       0x24 ./Libraries/XMCLib/src/xmc4_scu.o
 .text.XMC_SCU_TRAP_GetStatus
                0x00000000       0x18 ./Libraries/XMCLib/src/xmc4_scu.o
 .text.XMC_SCU_TRAP_Trigger
                0x00000000       0x1c ./Libraries/XMCLib/src/xmc4_scu.o
 .text.XMC_SCU_TRAP_ClearStatus
                0x00000000       0x1c ./Libraries/XMCLib/src/xmc4_scu.o
 .text.XMC_SCU_PARITY_ClearStatus
                0x00000000       0x24 ./Libraries/XMCLib/src/xmc4_scu.o
 .text.XMC_SCU_PARITY_GetStatus
                0x00000000       0x18 ./Libraries/XMCLib/src/xmc4_scu.o
 .text.XMC_SCU_PARITY_Enable
                0x00000000       0x24 ./Libraries/XMCLib/src/xmc4_scu.o
 .text.XMC_SCU_PARITY_Disable
                0x00000000       0x24 ./Libraries/XMCLib/src/xmc4_scu.o
 .text.XMC_SCU_PARITY_EnableTrapGeneration
                0x00000000       0x24 ./Libraries/XMCLib/src/xmc4_scu.o
 .text.XMC_SCU_PARITY_DisableTrapGeneration
                0x00000000       0x24 ./Libraries/XMCLib/src/xmc4_scu.o
 .text.XMC_SCU_INTERRUPT_DisableNmiRequest
                0x00000000       0x24 ./Libraries/XMCLib/src/xmc4_scu.o
 .text.XMC_SCU_RESET_AssertPeripheralReset
                0x00000000       0x38 ./Libraries/XMCLib/src/xmc4_scu.o
 .text.XMC_SCU_CLOCK_GetSystemPllClockFrequency
                0x00000000       0x7c ./Libraries/XMCLib/src/xmc4_scu.o
 .text.XMC_SCU_CLOCK_GetSystemPllClockSourceFrequency
                0x00000000       0x30 ./Libraries/XMCLib/src/xmc4_scu.o
 .text.XMC_SCU_CLOCK_GetUsbPllClockFrequency
                0x00000000       0x54 ./Libraries/XMCLib/src/xmc4_scu.o
 .text.XMC_SCU_CLOCK_GetCcuClockFrequency
                0x00000000       0x2c ./Libraries/XMCLib/src/xmc4_scu.o
 .text.XMC_SCU_CLOCK_GetUsbClockFrequency
                0x00000000       0x48 ./Libraries/XMCLib/src/xmc4_scu.o
 .text.XMC_SCU_CLOCK_GetEbuClockFrequency
                0x00000000       0x28 ./Libraries/XMCLib/src/xmc4_scu.o
 .text.XMC_SCU_CLOCK_GetECATClockFrequency
                0x00000000       0x3c ./Libraries/XMCLib/src/xmc4_scu.o
 .text.XMC_SCU_CLOCK_GetWdtClockFrequency
                0x00000000       0x58 ./Libraries/XMCLib/src/xmc4_scu.o
 .text.XMC_SCU_CLOCK_GetExternalOutputClockFrequency
                0x00000000       0x74 ./Libraries/XMCLib/src/xmc4_scu.o
 .text.XMC_SCU_CLOCK_GetPeripheralClockFrequency
                0x00000000       0x20 ./Libraries/XMCLib/src/xmc4_scu.o
 .text.XMC_SCU_CLOCK_SetExternalOutputClockSource
                0x00000000       0x28 ./Libraries/XMCLib/src/xmc4_scu.o
 .text.XMC_SCU_CLOCK_SetExternalOutputClockDivider
                0x00000000       0x30 ./Libraries/XMCLib/src/xmc4_scu.o
 .text.XMC_SCU_CLOCK_DisableClock
                0x00000000       0x20 ./Libraries/XMCLib/src/xmc4_scu.o
 .text.XMC_SCU_CLOCK_IsClockEnabled
                0x00000000       0x2c ./Libraries/XMCLib/src/xmc4_scu.o
 .text.XMC_SCU_CLOCK_GatePeripheralClock
                0x00000000       0x38 ./Libraries/XMCLib/src/xmc4_scu.o
 .text.XMC_SCU_CLOCK_IsPeripheralClockGated
                0x00000000       0x48 ./Libraries/XMCLib/src/xmc4_scu.o
 .text.XMC_SCU_POWER_GetEVR13Voltage
                0x00000000       0x30 ./Libraries/XMCLib/src/xmc4_scu.o
 .text.XMC_SCU_POWER_GetEVR33Voltage
                0x00000000       0x34 ./Libraries/XMCLib/src/xmc4_scu.o
 .text.XMC_SCU_CLOCK_EnableUsbPll
                0x00000000       0x20 ./Libraries/XMCLib/src/xmc4_scu.o
 .text.XMC_SCU_CLOCK_DisableUsbPll
                0x00000000       0x20 ./Libraries/XMCLib/src/xmc4_scu.o
 .text.XMC_SCU_CLOCK_StopUsbPll
                0x00000000       0x1c ./Libraries/XMCLib/src/xmc4_scu.o
 .text.XMC_SCU_POWER_EnableUsb
                0x00000000       0x18 ./Libraries/XMCLib/src/xmc4_scu.o
 .text.XMC_SCU_POWER_DisableUsb
                0x00000000       0x18 ./Libraries/XMCLib/src/xmc4_scu.o
 .text.XMC_SCU_CLOCK_IsUsbPllLocked
                0x00000000       0x24 ./Libraries/XMCLib/src/xmc4_scu.o
 .text.XMC_SCU_HIB_DisableHibernateDomain
                0x00000000       0x24 ./Libraries/XMCLib/src/xmc4_scu.o
 .text.XMC_SCU_HIB_IsHibernateDomainEnabled
                0x00000000       0x3c ./Libraries/XMCLib/src/xmc4_scu.o
 .text.XMC_SCU_HIB_EnableInternalSlowClock
                0x00000000       0x30 ./Libraries/XMCLib/src/xmc4_scu.o
 .text.XMC_SCU_HIB_DisableInternalSlowClock
                0x00000000       0x30 ./Libraries/XMCLib/src/xmc4_scu.o
 .text.XMC_SCU_HIB_ClearEventStatus
                0x00000000       0x30 ./Libraries/XMCLib/src/xmc4_scu.o
 .text.XMC_SCU_HIB_TriggerEvent
                0x00000000       0x30 ./Libraries/XMCLib/src/xmc4_scu.o
 .text.XMC_SCU_HIB_EnableEvent
                0x00000000       0x38 ./Libraries/XMCLib/src/xmc4_scu.o
 .text.XMC_SCU_HIB_DisableEvent
                0x00000000       0x38 ./Libraries/XMCLib/src/xmc4_scu.o
 .text.XMC_SCU_HIB_EnterHibernateState
                0x00000000       0x30 ./Libraries/XMCLib/src/xmc4_scu.o
 .text.XMC_SCU_HIB_EnterHibernateStateEx
                0x00000000       0x1c ./Libraries/XMCLib/src/xmc4_scu.o
 .text.XMC_SCU_HIB_SetWakeupTriggerInput
                0x00000000       0x4c ./Libraries/XMCLib/src/xmc4_scu.o
 .text.XMC_SCU_HIB_SetPinMode
                0x00000000       0x54 ./Libraries/XMCLib/src/xmc4_scu.o
 .text.XMC_SCU_HIB_SetPinOutputLevel
                0x00000000       0x54 ./Libraries/XMCLib/src/xmc4_scu.o
 .text.XMC_SCU_HIB_SetInput0
                0x00000000       0x4c ./Libraries/XMCLib/src/xmc4_scu.o
 .text.XMC_SCU_HIB_SetSR0Input
                0x00000000       0x3c ./Libraries/XMCLib/src/xmc4_scu.o
 .text.XMC_SCU_CLOCK_DisableLowPowerOscillator
                0x00000000       0x30 ./Libraries/XMCLib/src/xmc4_scu.o
 .text.XMC_SCU_CLOCK_EnableLowPowerOscillatorGeneralPurposeInput
                0x00000000       0x30 ./Libraries/XMCLib/src/xmc4_scu.o
 .text.XMC_SCU_CLOCK_DisableLowPowerOscillatorGeneralPurposeInput
                0x00000000       0x34 ./Libraries/XMCLib/src/xmc4_scu.o
 .text.XMC_SCU_CLOCK_GetLowPowerOscillatorGeneralPurposeInputStatus
                0x00000000       0x1c ./Libraries/XMCLib/src/xmc4_scu.o
 .text.XMC_SCU_CLOCK_DisableHighPerformanceOscillator
                0x00000000       0x1c ./Libraries/XMCLib/src/xmc4_scu.o
 .text.XMC_SCU_CLOCK_EnableHighPerformanceOscillatorGeneralPurposeInput
                0x00000000       0x1c ./Libraries/XMCLib/src/xmc4_scu.o
 .text.XMC_SCU_CLOCK_DisableHighPerformanceOscillatorGeneralPurposeInput
                0x00000000       0x1c ./Libraries/XMCLib/src/xmc4_scu.o
 .text.XMC_SCU_CLOCK_GetHighPerformanceOscillatorGeneralPurposeInputStatus
                0x00000000       0x1c ./Libraries/XMCLib/src/xmc4_scu.o
 .text.XMC_SCU_CLOCK_StopSystemPll
                0x00000000       0x1c ./Libraries/XMCLib/src/xmc4_scu.o
 .text.XMC_SCU_CLOCK_IsSystemPllLocked
                0x00000000       0x24 ./Libraries/XMCLib/src/xmc4_scu.o
 .text.XMC_SCU_INTERRUPT_SetEventHandler
                0x00000000       0x58 ./Libraries/XMCLib/src/xmc4_scu.o
 .text.XMC_SCU_IRQHandler
                0x00000000       0x60 ./Libraries/XMCLib/src/xmc4_scu.o
 .comment       0x00000000       0x71 ./Libraries/XMCLib/src/xmc4_scu.o
 COMMON         0x00000000       0x80 ./Libraries/XMCLib/src/xmc4_scu.o
 .text          0x00000000        0x0 ./Libraries/XMCLib/src/xmc_can.o
 .data          0x00000000        0x0 ./Libraries/XMCLib/src/xmc_can.o
 .bss           0x00000000        0x0 ./Libraries/XMCLib/src/xmc_can.o
 .text.XMC_CAN_IsPanelControlReady
                0x00000000       0x28 ./Libraries/XMCLib/src/xmc_can.o
 .text.XMC_CAN_PanelControl
                0x00000000       0x3c ./Libraries/XMCLib/src/xmc_can.o
 .text.XMC_CAN_NODE_EnableConfigurationChange
                0x00000000       0x20 ./Libraries/XMCLib/src/xmc_can.o
 .text.XMC_CAN_NODE_DisableConfigurationChange
                0x00000000       0x20 ./Libraries/XMCLib/src/xmc_can.o
 .text.max      0x00000000       0x20 ./Libraries/XMCLib/src/xmc_can.o
 .text.min      0x00000000       0x20 ./Libraries/XMCLib/src/xmc_can.o
 .text.XMC_CAN_NODE_NominalBitTimeConfigure
                0x00000000      0x1c4 ./Libraries/XMCLib/src/xmc_can.o
 .text.XMC_CAN_AllocateMOtoNodeList
                0x00000000       0x3c ./Libraries/XMCLib/src/xmc_can.o
 .text.XMC_CAN_Disable
                0x00000000       0x24 ./Libraries/XMCLib/src/xmc_can.o
 .text.XMC_CAN_Enable
                0x00000000       0x38 ./Libraries/XMCLib/src/xmc_can.o
 .text.XMC_CAN_GetBaudrateClockFrequency
                0x00000000       0x3c ./Libraries/XMCLib/src/xmc_can.o
 .text.XMC_CAN_Init
                0x00000000       0xe4 ./Libraries/XMCLib/src/xmc_can.o
 .text.XMC_CAN_SetBaudrateClockSource
                0x00000000       0x2c ./Libraries/XMCLib/src/xmc_can.o
 .text.XMC_CAN_GetBaudrateClockSource
                0x00000000       0x24 ./Libraries/XMCLib/src/xmc_can.o
 .text.XMC_CAN_MO_SetIdentifier
                0x00000000       0x68 ./Libraries/XMCLib/src/xmc_can.o
 .text.XMC_CAN_MO_GetIdentifier
                0x00000000       0x40 ./Libraries/XMCLib/src/xmc_can.o
 .text.XMC_CAN_MO_GetAcceptanceMask
                0x00000000       0x50 ./Libraries/XMCLib/src/xmc_can.o
 .text.XMC_CAN_MO_SetAcceptanceMask
                0x00000000       0x70 ./Libraries/XMCLib/src/xmc_can.o
 .text.XMC_CAN_MO_Config
                0x00000000      0x12c ./Libraries/XMCLib/src/xmc_can.o
 .text.XMC_CAN_MO_UpdateData
                0x00000000       0x70 ./Libraries/XMCLib/src/xmc_can.o
 .text.XMC_CAN_MO_Transmit
                0x00000000       0x5c ./Libraries/XMCLib/src/xmc_can.o
 .text.XMC_CAN_MO_ReceiveData
                0x00000000       0x98 ./Libraries/XMCLib/src/xmc_can.o
 .text.XMC_CAN_MO_Receive
                0x00000000      0x1a0 ./Libraries/XMCLib/src/xmc_can.o
 .text.XMC_CAN_NODE_EnableEvent
                0x00000000       0x38 ./Libraries/XMCLib/src/xmc_can.o
 .text.XMC_CAN_NODE_DisableEvent
                0x00000000       0x3c ./Libraries/XMCLib/src/xmc_can.o
 .text.XMC_CAN_TXFIFO_Transmit
                0x00000000       0x78 ./Libraries/XMCLib/src/xmc_can.o
 .text.XMC_CAN_TXFIFO_ConfigMOBaseObject
                0x00000000       0x50 ./Libraries/XMCLib/src/xmc_can.o
 .text.XMC_CAN_RXFIFO_ConfigMOBaseObject
                0x00000000       0x50 ./Libraries/XMCLib/src/xmc_can.o
 .text.XMC_CAN_TXFIFO_ConfigMOSlaveObject
                0x00000000       0x50 ./Libraries/XMCLib/src/xmc_can.o
 .text.XMC_CAN_GATEWAY_InitSourceObject
                0x00000000       0x64 ./Libraries/XMCLib/src/xmc_can.o
 .debug_info    0x00000000     0x12e6 ./Libraries/XMCLib/src/xmc_can.o
 .debug_abbrev  0x00000000      0x28d ./Libraries/XMCLib/src/xmc_can.o
 .debug_loc     0x00000000      0xa78 ./Libraries/XMCLib/src/xmc_can.o
 .debug_aranges
                0x00000000      0x108 ./Libraries/XMCLib/src/xmc_can.o
 .debug_ranges  0x00000000       0xf8 ./Libraries/XMCLib/src/xmc_can.o
 .debug_line    0x00000000      0x63d ./Libraries/XMCLib/src/xmc_can.o
 .debug_str     0x00000000     0x1471 ./Libraries/XMCLib/src/xmc_can.o
 .comment       0x00000000       0x71 ./Libraries/XMCLib/src/xmc_can.o
 .debug_frame   0x00000000      0x4c0 ./Libraries/XMCLib/src/xmc_can.o
 .ARM.attributes
                0x00000000       0x37 ./Libraries/XMCLib/src/xmc_can.o
 .text          0x00000000        0x0 ./Libraries/XMCLib/src/xmc_ccu4.o
 .data          0x00000000        0x0 ./Libraries/XMCLib/src/xmc_ccu4.o
 .bss           0x00000000        0x0 ./Libraries/XMCLib/src/xmc_ccu4.o
 .text.XMC_CCU4_SLICE_SetDitherCompareValue
                0x00000000       0x1c ./Libraries/XMCLib/src/xmc_ccu4.o
 .text.XMC_CCU4_lAssertReset
                0x00000000       0x68 ./Libraries/XMCLib/src/xmc_ccu4.o
 .text.XMC_CCU4_lGateClock
                0x00000000       0x68 ./Libraries/XMCLib/src/xmc_ccu4.o
 .text.XMC_CCU4_DisableModule
                0x00000000       0x1c ./Libraries/XMCLib/src/xmc_ccu4.o
 .text.XMC_CCU4_SetModuleClock
                0x00000000       0x34 ./Libraries/XMCLib/src/xmc_ccu4.o
 .text.XMC_CCU4_SetMultiChannelShadowTransferMode
                0x00000000       0x38 ./Libraries/XMCLib/src/xmc_ccu4.o
 .text.XMC_CCU4_SLICE_CaptureInit
                0x00000000       0x4c ./Libraries/XMCLib/src/xmc_ccu4.o
 .text.XMC_CCU4_SLICE_StartConfig
                0x00000000       0x5c ./Libraries/XMCLib/src/xmc_ccu4.o
 .text.XMC_CCU4_SLICE_StopConfig
                0x00000000       0x58 ./Libraries/XMCLib/src/xmc_ccu4.o
 .text.XMC_CCU4_SLICE_LoadConfig
                0x00000000       0x34 ./Libraries/XMCLib/src/xmc_ccu4.o
 .text.XMC_CCU4_SLICE_ModulationConfig
                0x00000000       0x80 ./Libraries/XMCLib/src/xmc_ccu4.o
 .text.XMC_CCU4_SLICE_CountConfig
                0x00000000       0x34 ./Libraries/XMCLib/src/xmc_ccu4.o
 .text.XMC_CCU4_SLICE_GateConfig
                0x00000000       0x34 ./Libraries/XMCLib/src/xmc_ccu4.o
 .text.XMC_CCU4_SLICE_Capture0Config
                0x00000000       0x34 ./Libraries/XMCLib/src/xmc_ccu4.o
 .text.XMC_CCU4_SLICE_Capture1Config
                0x00000000       0x34 ./Libraries/XMCLib/src/xmc_ccu4.o
 .text.XMC_CCU4_SLICE_DirectionConfig
                0x00000000       0x34 ./Libraries/XMCLib/src/xmc_ccu4.o
 .text.XMC_CCU4_SLICE_StatusBitOverrideConfig
                0x00000000       0x30 ./Libraries/XMCLib/src/xmc_ccu4.o
 .text.XMC_CCU4_SLICE_TrapConfig
                0x00000000       0x74 ./Libraries/XMCLib/src/xmc_ccu4.o
 .text.XMC_CCU4_SLICE_ConfigureStatusBitOverrideEvent
                0x00000000       0xc4 ./Libraries/XMCLib/src/xmc_ccu4.o
 .text.XMC_CCU4_SLICE_ConfigureEvent
                0x00000000       0xd4 ./Libraries/XMCLib/src/xmc_ccu4.o
 .text.XMC_CCU4_SLICE_SetInput
                0x00000000       0x50 ./Libraries/XMCLib/src/xmc_ccu4.o
 .text.XMC_CCU4_SLICE_SetTimerRepeatMode
                0x00000000       0x38 ./Libraries/XMCLib/src/xmc_ccu4.o
 .text.XMC_CCU4_SLICE_SetTimerCountingMode
                0x00000000       0x38 ./Libraries/XMCLib/src/xmc_ccu4.o
 .text.XMC_CCU4_SLICE_GetCaptureRegisterValue
                0x00000000       0x24 ./Libraries/XMCLib/src/xmc_ccu4.o
 .text.XMC_CCU4_SLICE_GetLastCapturedTimerValue
                0x00000000       0x8c ./Libraries/XMCLib/src/xmc_ccu4.o
 .text.XMC_CCU4_SLICE_GetCapturedValueFromFifo
                0x00000000       0x34 ./Libraries/XMCLib/src/xmc_ccu4.o
 .text.XMC_CCU4_SLICE_EnableDithering
                0x00000000       0x5c ./Libraries/XMCLib/src/xmc_ccu4.o
 .text.XMC_CCU4_SLICE_SetPrescaler
                0x00000000       0x3c ./Libraries/XMCLib/src/xmc_ccu4.o
 .text.XMC_CCU4_SLICE_SetPassiveLevel
                0x00000000       0x34 ./Libraries/XMCLib/src/xmc_ccu4.o
 .comment       0x00000000       0x71 ./Libraries/XMCLib/src/xmc_ccu4.o
 .text          0x00000000        0x0 ./Libraries/XMCLib/src/xmc_ccu8.o
 .data          0x00000000        0x0 ./Libraries/XMCLib/src/xmc_ccu8.o
 .bss           0x00000000        0x0 ./Libraries/XMCLib/src/xmc_ccu8.o
 .text.XMC_CCU8_SLICE_SetDitherCompareValue
                0x00000000       0x1c ./Libraries/XMCLib/src/xmc_ccu8.o
 .text.XMC_CCU8_lAssertReset
                0x00000000       0x38 ./Libraries/XMCLib/src/xmc_ccu8.o
 .text.XMC_CCU8_lGateClock
                0x00000000       0x38 ./Libraries/XMCLib/src/xmc_ccu8.o
 .text.XMC_CCU8_DisableModule
                0x00000000       0x1c ./Libraries/XMCLib/src/xmc_ccu8.o
 .text.XMC_CCU8_SetModuleClock
                0x00000000       0x34 ./Libraries/XMCLib/src/xmc_ccu8.o
 .text.XMC_CCU8_SLICE_CaptureInit
                0x00000000       0x50 ./Libraries/XMCLib/src/xmc_ccu8.o
 .text.XMC_CCU8_SLICE_SetOutPath
                0x00000000       0x38 ./Libraries/XMCLib/src/xmc_ccu8.o
 .text.XMC_CCU8_SLICE_Capture0Config
                0x00000000       0x34 ./Libraries/XMCLib/src/xmc_ccu8.o
 .text.XMC_CCU8_SLICE_Capture1Config
                0x00000000       0x34 ./Libraries/XMCLib/src/xmc_ccu8.o
 .text.XMC_CCU8_SLICE_SetInput
                0x00000000       0x50 ./Libraries/XMCLib/src/xmc_ccu8.o
 .text.XMC_CCU8_SLICE_SetTimerRepeatMode
                0x00000000       0x3c ./Libraries/XMCLib/src/xmc_ccu8.o
 .text.XMC_CCU8_SLICE_SetTimerCountingMode
                0x00000000       0x3c ./Libraries/XMCLib/src/xmc_ccu8.o
 .text.XMC_CCU8_SLICE_GetCaptureRegisterValue
                0x00000000       0x24 ./Libraries/XMCLib/src/xmc_ccu8.o
 .text.XMC_CCU8_SLICE_GetLastCapturedTimerValue
                0x00000000       0x8c ./Libraries/XMCLib/src/xmc_ccu8.o
 .text.XMC_CCU8_SLICE_GetCapturedValueFromFifo
                0x00000000       0x34 ./Libraries/XMCLib/src/xmc_ccu8.o
 .text.XMC_CCU8_SLICE_EnableDithering
                0x00000000       0x5c ./Libraries/XMCLib/src/xmc_ccu8.o
 .text.XMC_CCU8_SLICE_SetPrescaler
                0x00000000       0x3c ./Libraries/XMCLib/src/xmc_ccu8.o
 .text.XMC_CCU8_SLICE_GetTimerCompareMatch
                0x00000000       0x30 ./Libraries/XMCLib/src/xmc_ccu8.o
 .text.XMC_CCU8_SLICE_SetPassiveLevel
                0x00000000       0x40 ./Libraries/XMCLib/src/xmc_ccu8.o
 .text.XMC_CCU8_SLICE_ConfigureDeadTime
                0x00000000       0x30 ./Libraries/XMCLib/src/xmc_ccu8.o
 .text.XMC_CCU8_SLICE_SetDeadTimeValue
                0x00000000       0x44 ./Libraries/XMCLib/src/xmc_ccu8.o
 .text.XMC_CCU8_SLICE_SetDeadTimePrescaler
                0x00000000       0x30 ./Libraries/XMCLib/src/xmc_ccu8.o
 .text.XMC_CCU8_SLICE_ConfigureStatusBitOutput
                0x00000000       0x30 ./Libraries/XMCLib/src/xmc_ccu8.o
 .comment       0x00000000       0x71 ./Libraries/XMCLib/src/xmc_ccu8.o
 .text          0x00000000        0x0 ./Libraries/XMCLib/src/xmc_common.o
 .data          0x00000000        0x0 ./Libraries/XMCLib/src/xmc_common.o
 .bss           0x00000000        0x0 ./Libraries/XMCLib/src/xmc_common.o
 .text.XMC_PRIOARRAY_GetHead
                0x00000000       0x28 ./Libraries/XMCLib/src/xmc_common.o
 .text.XMC_PRIOARRAY_GetItemPriority
                0x00000000       0x28 ./Libraries/XMCLib/src/xmc_common.o
 .text.XMC_PRIOARRAY_GetItemNext
                0x00000000       0x28 ./Libraries/XMCLib/src/xmc_common.o
 .text.XMC_LIST_Init
                0x00000000       0x18 ./Libraries/XMCLib/src/xmc_common.o
 .text.XMC_LIST_GetHead
                0x00000000       0x18 ./Libraries/XMCLib/src/xmc_common.o
 .text.XMC_LIST_GetTail
                0x00000000       0x3c ./Libraries/XMCLib/src/xmc_common.o
 .text.XMC_LIST_Add
                0x00000000       0x34 ./Libraries/XMCLib/src/xmc_common.o
 .text.XMC_LIST_Remove
                0x00000000       0x60 ./Libraries/XMCLib/src/xmc_common.o
 .text.XMC_LIST_Insert
                0x00000000       0x3c ./Libraries/XMCLib/src/xmc_common.o
 .text.XMC_PRIOARRAY_Init
                0x00000000       0xac ./Libraries/XMCLib/src/xmc_common.o
 .text.XMC_PRIOARRAY_Add
                0x00000000       0xb0 ./Libraries/XMCLib/src/xmc_common.o
 .text.XMC_PRIOARRAY_Remove
                0x00000000       0x64 ./Libraries/XMCLib/src/xmc_common.o
 .debug_info    0x00000000      0x45e ./Libraries/XMCLib/src/xmc_common.o
 .debug_abbrev  0x00000000      0x107 ./Libraries/XMCLib/src/xmc_common.o
 .debug_loc     0x00000000      0x438 ./Libraries/XMCLib/src/xmc_common.o
 .debug_aranges
                0x00000000       0x78 ./Libraries/XMCLib/src/xmc_common.o
 .debug_ranges  0x00000000       0x68 ./Libraries/XMCLib/src/xmc_common.o
 .debug_line    0x00000000      0x2f5 ./Libraries/XMCLib/src/xmc_common.o
 .debug_str     0x00000000      0x39b ./Libraries/XMCLib/src/xmc_common.o
 .comment       0x00000000       0x71 ./Libraries/XMCLib/src/xmc_common.o
 .debug_frame   0x00000000      0x1f0 ./Libraries/XMCLib/src/xmc_common.o
 .ARM.attributes
                0x00000000       0x37 ./Libraries/XMCLib/src/xmc_common.o
 .text          0x00000000        0x0 ./Libraries/XMCLib/src/xmc_dac.o
 .data          0x00000000        0x0 ./Libraries/XMCLib/src/xmc_dac.o
 .bss           0x00000000        0x0 ./Libraries/XMCLib/src/xmc_dac.o
 .text.XMC_DAC_CH_EnableOutput
                0x00000000       0x30 ./Libraries/XMCLib/src/xmc_dac.o
 .text.XMC_DAC_CH_EnablePatternSignOutput
                0x00000000       0x30 ./Libraries/XMCLib/src/xmc_dac.o
 .text.XMC_DAC_CH_DisablePatternSignOutput
                0x00000000       0x30 ./Libraries/XMCLib/src/xmc_dac.o
 .text.XMC_DAC_CH_SetRampStart
                0x00000000       0x28 ./Libraries/XMCLib/src/xmc_dac.o
 .text.XMC_DAC_CH_SetRampStop
                0x00000000       0x3c ./Libraries/XMCLib/src/xmc_dac.o
 .text.XMC_DAC_CH_SetTrigger
                0x00000000       0x34 ./Libraries/XMCLib/src/xmc_dac.o
 .text.XMC_DAC_CH_SetMode
                0x00000000       0x34 ./Libraries/XMCLib/src/xmc_dac.o
 .text.XMC_DAC_Enable
                0x00000000       0x20 ./Libraries/XMCLib/src/xmc_dac.o
 .text.XMC_DAC_Disable
                0x00000000       0x20 ./Libraries/XMCLib/src/xmc_dac.o
 .text.XMC_DAC_IsEnabled
                0x00000000       0x30 ./Libraries/XMCLib/src/xmc_dac.o
 .text.XMC_DAC_CH_Init
                0x00000000       0x48 ./Libraries/XMCLib/src/xmc_dac.o
 .text.XMC_DAC_CH_SetFrequency
                0x00000000       0x60 ./Libraries/XMCLib/src/xmc_dac.o
 .text.XMC_DAC_CH_SetRampFrequency
                0x00000000       0x50 ./Libraries/XMCLib/src/xmc_dac.o
 .text.XMC_DAC_CH_StartSingleValueMode
                0x00000000       0x24 ./Libraries/XMCLib/src/xmc_dac.o
 .text.XMC_DAC_CH_StartDataMode
                0x00000000       0x60 ./Libraries/XMCLib/src/xmc_dac.o
 .text.XMC_DAC_CH_StartRampMode
                0x00000000       0x88 ./Libraries/XMCLib/src/xmc_dac.o
 .text.XMC_DAC_CH_StartPatternMode
                0x00000000       0x90 ./Libraries/XMCLib/src/xmc_dac.o
 .text.XMC_DAC_CH_StartNoiseMode
                0x00000000       0x60 ./Libraries/XMCLib/src/xmc_dac.o
 .text.XMC_DAC_CH_SetPattern
                0x00000000       0xa0 ./Libraries/XMCLib/src/xmc_dac.o
 .debug_info    0x00000000      0xbca ./Libraries/XMCLib/src/xmc_dac.o
 .debug_abbrev  0x00000000      0x20f ./Libraries/XMCLib/src/xmc_dac.o
 .debug_loc     0x00000000      0x650 ./Libraries/XMCLib/src/xmc_dac.o
 .debug_aranges
                0x00000000       0xb0 ./Libraries/XMCLib/src/xmc_dac.o
 .debug_ranges  0x00000000       0xa0 ./Libraries/XMCLib/src/xmc_dac.o
 .debug_line    0x00000000      0x422 ./Libraries/XMCLib/src/xmc_dac.o
 .debug_str     0x00000000      0xef5 ./Libraries/XMCLib/src/xmc_dac.o
 .comment       0x00000000       0x71 ./Libraries/XMCLib/src/xmc_dac.o
 .debug_frame   0x00000000      0x308 ./Libraries/XMCLib/src/xmc_dac.o
 .ARM.attributes
                0x00000000       0x37 ./Libraries/XMCLib/src/xmc_dac.o
 .text          0x00000000        0x0 ./Libraries/XMCLib/src/xmc_dma.o
 .data          0x00000000        0x0 ./Libraries/XMCLib/src/xmc_dma.o
 .bss           0x00000000        0x0 ./Libraries/XMCLib/src/xmc_dma.o
 .text.XMC_DMA_GetEventStatus
                0x00000000       0x1c ./Libraries/XMCLib/src/xmc_dma.o
 .text.XMC_DMA_GetChannelsTransferCompleteStatus
                0x00000000       0x1c ./Libraries/XMCLib/src/xmc_dma.o
 .text.XMC_DMA_GetChannelsBlockCompleteStatus
                0x00000000       0x1c ./Libraries/XMCLib/src/xmc_dma.o
 .text.XMC_DMA_GetChannelsSourceTransactionCompleteStatus
                0x00000000       0x1c ./Libraries/XMCLib/src/xmc_dma.o
 .text.XMC_DMA_GetChannelsDestinationTransactionCompleteStatus
                0x00000000       0x1c ./Libraries/XMCLib/src/xmc_dma.o
 .text.XMC_DMA_GetChannelsErrorStatus
                0x00000000       0x1c ./Libraries/XMCLib/src/xmc_dma.o
 .text.XMC_DMA_Init
                0x00000000       0x14 ./Libraries/XMCLib/src/xmc_dma.o
 .text.XMC_DMA_Enable
                0x00000000       0x44 ./Libraries/XMCLib/src/xmc_dma.o
 .text.XMC_DMA_Disable
                0x00000000       0x44 ./Libraries/XMCLib/src/xmc_dma.o
 .text.XMC_DMA_IsEnabled
                0x00000000       0xe4 ./Libraries/XMCLib/src/xmc_dma.o
 .text.XMC_DMA_EnableRequestLine
                0x00000000       0x98 ./Libraries/XMCLib/src/xmc_dma.o
 .text.XMC_DMA_DisableRequestLine
                0x00000000       0x54 ./Libraries/XMCLib/src/xmc_dma.o
 .text.XMC_DMA_ClearRequestLine
                0x00000000       0x78 ./Libraries/XMCLib/src/xmc_dma.o
 .text.XMC_DMA_GetOverrunStatus
                0x00000000       0x60 ./Libraries/XMCLib/src/xmc_dma.o
 .text.XMC_DMA_ClearOverrunStatus
                0x00000000       0x44 ./Libraries/XMCLib/src/xmc_dma.o
 .text.XMC_DMA_CH_Disable
                0x00000000       0x3c ./Libraries/XMCLib/src/xmc_dma.o
 .text.XMC_DMA_CH_IsEnabled
                0x00000000       0x34 ./Libraries/XMCLib/src/xmc_dma.o
 .text.XMC_DMA_CH_Init
                0x00000000      0x40c ./Libraries/XMCLib/src/xmc_dma.o
 .text.XMC_DMA_CH_Suspend
                0x00000000       0x3c ./Libraries/XMCLib/src/xmc_dma.o
 .text.XMC_DMA_CH_Resume
                0x00000000       0x3c ./Libraries/XMCLib/src/xmc_dma.o
 .text.XMC_DMA_CH_IsSuspended
                0x00000000       0x38 ./Libraries/XMCLib/src/xmc_dma.o
 .text.XMC_DMA_CH_EnableEvent
                0x00000000       0x50 ./Libraries/XMCLib/src/xmc_dma.o
 .text.XMC_DMA_CH_DisableEvent
                0x00000000       0x50 ./Libraries/XMCLib/src/xmc_dma.o
 .text.XMC_DMA_CH_ClearEventStatus
                0x00000000       0x4c ./Libraries/XMCLib/src/xmc_dma.o
 .text.XMC_DMA_CH_GetEventStatus
                0x00000000       0x5c ./Libraries/XMCLib/src/xmc_dma.o
 .text.XMC_DMA_CH_EnableSourceGather
                0x00000000       0x5c ./Libraries/XMCLib/src/xmc_dma.o
 .text.XMC_DMA_CH_DisableSourceGather
                0x00000000       0x3c ./Libraries/XMCLib/src/xmc_dma.o
 .text.XMC_DMA_CH_EnableDestinationScatter
                0x00000000       0x5c ./Libraries/XMCLib/src/xmc_dma.o
 .text.XMC_DMA_CH_DisableDestinationScatter
                0x00000000       0x3c ./Libraries/XMCLib/src/xmc_dma.o
 .text.XMC_DMA_CH_TriggerSourceRequest
                0x00000000       0x5c ./Libraries/XMCLib/src/xmc_dma.o
 .text.XMC_DMA_CH_TriggerDestinationRequest
                0x00000000       0x5c ./Libraries/XMCLib/src/xmc_dma.o
 .text.XMC_DMA_CH_EnableSourceAddressReload
                0x00000000       0x3c ./Libraries/XMCLib/src/xmc_dma.o
 .text.XMC_DMA_CH_DisableSourceAddressReload
                0x00000000       0x3c ./Libraries/XMCLib/src/xmc_dma.o
 .text.XMC_DMA_CH_EnableDestinationAddressReload
                0x00000000       0x3c ./Libraries/XMCLib/src/xmc_dma.o
 .text.XMC_DMA_CH_DisableDestinationAddressReload
                0x00000000       0x3c ./Libraries/XMCLib/src/xmc_dma.o
 .text.XMC_DMA_CH_RequestLastMultiblockTransfer
                0x00000000       0x3c ./Libraries/XMCLib/src/xmc_dma.o
 .text.XMC_DMA_CH_SetEventHandler
                0x00000000       0x44 ./Libraries/XMCLib/src/xmc_dma.o
 .text.XMC_DMA_CH_ClearSourcePeripheralRequest
                0x00000000       0x38 ./Libraries/XMCLib/src/xmc_dma.o
 .text.XMC_DMA_CH_ClearDestinationPeripheralRequest
                0x00000000       0x38 ./Libraries/XMCLib/src/xmc_dma.o
 .text.XMC_DMA_IRQHandler
                0x00000000      0x220 ./Libraries/XMCLib/src/xmc_dma.o
 .debug_info    0x00000000     0x171e ./Libraries/XMCLib/src/xmc_dma.o
 .debug_abbrev  0x00000000      0x2ab ./Libraries/XMCLib/src/xmc_dma.o
 .debug_loc     0x00000000      0xe00 ./Libraries/XMCLib/src/xmc_dma.o
 .debug_aranges
                0x00000000      0x158 ./Libraries/XMCLib/src/xmc_dma.o
 .debug_ranges  0x00000000      0x148 ./Libraries/XMCLib/src/xmc_dma.o
 .debug_line    0x00000000      0x6fc ./Libraries/XMCLib/src/xmc_dma.o
 .debug_str     0x00000000     0x19a1 ./Libraries/XMCLib/src/xmc_dma.o
 .comment       0x00000000       0x71 ./Libraries/XMCLib/src/xmc_dma.o
 .debug_frame   0x00000000      0x650 ./Libraries/XMCLib/src/xmc_dma.o
 .ARM.attributes
                0x00000000       0x37 ./Libraries/XMCLib/src/xmc_dma.o
 COMMON         0x00000000       0x30 ./Libraries/XMCLib/src/xmc_dma.o
 .text          0x00000000        0x0 ./Libraries/XMCLib/src/xmc_dsd.o
 .data          0x00000000        0x0 ./Libraries/XMCLib/src/xmc_dsd.o
 .bss           0x00000000        0x0 ./Libraries/XMCLib/src/xmc_dsd.o
 .text.XMC_DSD_Enable
                0x00000000       0x1c ./Libraries/XMCLib/src/xmc_dsd.o
 .text.XMC_DSD_Disable
                0x00000000       0x1c ./Libraries/XMCLib/src/xmc_dsd.o
 .text.XMC_DSD_EnableClock
                0x00000000       0x30 ./Libraries/XMCLib/src/xmc_dsd.o
 .text.XMC_DSD_DisableClock
                0x00000000       0x30 ./Libraries/XMCLib/src/xmc_dsd.o
 .text.XMC_DSD_Init
                0x00000000       0x1c ./Libraries/XMCLib/src/xmc_dsd.o
 .text.XMC_DSD_IsEnabled
                0x00000000       0x48 ./Libraries/XMCLib/src/xmc_dsd.o
 .text.XMC_DSD_Generator_Init
                0x00000000       0x30 ./Libraries/XMCLib/src/xmc_dsd.o
 .text.XMC_DSD_CH_Init
                0x00000000       0x84 ./Libraries/XMCLib/src/xmc_dsd.o
 .text.XMC_DSD_CH_MainFilter_Init
                0x00000000       0x6c ./Libraries/XMCLib/src/xmc_dsd.o
 .text.XMC_DSD_CH_Timestamp_Init
                0x00000000       0x38 ./Libraries/XMCLib/src/xmc_dsd.o
 .text.XMC_DSD_CH_AuxFilter_Init
                0x00000000       0x30 ./Libraries/XMCLib/src/xmc_dsd.o
 .text.XMC_DSD_CH_Integrator_Init
                0x00000000       0x60 ./Libraries/XMCLib/src/xmc_dsd.o
 .text.XMC_DSD_CH_Rectify_Init
                0x00000000       0x40 ./Libraries/XMCLib/src/xmc_dsd.o
 .text.XMC_DSD_CH_GetResult_TS
                0x00000000       0x44 ./Libraries/XMCLib/src/xmc_dsd.o
 .text.XMC_DSD_CH_GetResult_TS_Time
                0x00000000       0x80 ./Libraries/XMCLib/src/xmc_dsd.o
 .debug_info    0x00000000      0xf79 ./Libraries/XMCLib/src/xmc_dsd.o
 .debug_abbrev  0x00000000      0x1e6 ./Libraries/XMCLib/src/xmc_dsd.o
 .debug_loc     0x00000000      0x528 ./Libraries/XMCLib/src/xmc_dsd.o
 .debug_aranges
                0x00000000       0x90 ./Libraries/XMCLib/src/xmc_dsd.o
 .debug_ranges  0x00000000       0x80 ./Libraries/XMCLib/src/xmc_dsd.o
 .debug_line    0x00000000      0x3b3 ./Libraries/XMCLib/src/xmc_dsd.o
 .debug_str     0x00000000      0xfe0 ./Libraries/XMCLib/src/xmc_dsd.o
 .comment       0x00000000       0x71 ./Libraries/XMCLib/src/xmc_dsd.o
 .debug_frame   0x00000000      0x268 ./Libraries/XMCLib/src/xmc_dsd.o
 .ARM.attributes
                0x00000000       0x37 ./Libraries/XMCLib/src/xmc_dsd.o
 .text          0x00000000        0x0 ./Libraries/XMCLib/src/xmc_ebu.o
 .data          0x00000000        0x0 ./Libraries/XMCLib/src/xmc_ebu.o
 .bss           0x00000000        0x0 ./Libraries/XMCLib/src/xmc_ebu.o
 .text.XMC_EBU_Enable
                0x00000000       0x24 ./Libraries/XMCLib/src/xmc_ebu.o
 .text.XMC_EBU_Init
                0x00000000       0x34 ./Libraries/XMCLib/src/xmc_ebu.o
 .text.XMC_EBU_ConfigureSdram
                0x00000000       0x2c ./Libraries/XMCLib/src/xmc_ebu.o
 .text.XMC_EBU_ConfigureRegion
                0x00000000       0x5c ./Libraries/XMCLib/src/xmc_ebu.o
 .debug_info    0x00000000      0xd5f ./Libraries/XMCLib/src/xmc_ebu.o
 .debug_abbrev  0x00000000      0x1ac ./Libraries/XMCLib/src/xmc_ebu.o
 .debug_loc     0x00000000      0x158 ./Libraries/XMCLib/src/xmc_ebu.o
 .debug_aranges
                0x00000000       0x38 ./Libraries/XMCLib/src/xmc_ebu.o
 .debug_ranges  0x00000000       0x28 ./Libraries/XMCLib/src/xmc_ebu.o
 .debug_line    0x00000000      0x2ac ./Libraries/XMCLib/src/xmc_ebu.o
 .debug_str     0x00000000      0xfd7 ./Libraries/XMCLib/src/xmc_ebu.o
 .comment       0x00000000       0x71 ./Libraries/XMCLib/src/xmc_ebu.o
 .debug_frame   0x00000000       0xb0 ./Libraries/XMCLib/src/xmc_ebu.o
 .ARM.attributes
                0x00000000       0x37 ./Libraries/XMCLib/src/xmc_ebu.o
 .text          0x00000000        0x0 ./Libraries/XMCLib/src/xmc_ecat.o
 .data          0x00000000        0x0 ./Libraries/XMCLib/src/xmc_ecat.o
 .bss           0x00000000        0x0 ./Libraries/XMCLib/src/xmc_ecat.o
 .text.XMC_ECAT_lRequestPhyAccessToMII
                0x00000000       0x24 ./Libraries/XMCLib/src/xmc_ecat.o
 .text.XMC_ECAT_Disable
                0x00000000       0x2c ./Libraries/XMCLib/src/xmc_ecat.o
 .text.XMC_ECAT_EnableEvent
                0x00000000       0x28 ./Libraries/XMCLib/src/xmc_ecat.o
 .text.XMC_ECAT_GetEventStatus
                0x00000000       0x18 ./Libraries/XMCLib/src/xmc_ecat.o
 .text.XMC_ECAT_EnableSyncManChannel
                0x00000000       0x38 ./Libraries/XMCLib/src/xmc_ecat.o
 .text.XMC_ECAT_ReadPhy
                0x00000000       0x94 ./Libraries/XMCLib/src/xmc_ecat.o
 .text.XMC_ECAT_WritePhy
                0x00000000       0x90 ./Libraries/XMCLib/src/xmc_ecat.o
 .comment       0x00000000       0x71 ./Libraries/XMCLib/src/xmc_ecat.o
 .text          0x00000000        0x0 ./Libraries/XMCLib/src/xmc_eru.o
 .data          0x00000000        0x0 ./Libraries/XMCLib/src/xmc_eru.o
 .bss           0x00000000        0x0 ./Libraries/XMCLib/src/xmc_eru.o
 .text.XMC_ERU_ETL_SetInput
                0x00000000       0x4c ./Libraries/XMCLib/src/xmc_eru.o
 .text.XMC_ERU_ETL_SetSource
                0x00000000       0x3c ./Libraries/XMCLib/src/xmc_eru.o
 .text.XMC_ERU_ETL_SetEdgeDetection
                0x00000000       0x3c ./Libraries/XMCLib/src/xmc_eru.o
 .text.XMC_ERU_ETL_GetEdgeDetection
                0x00000000       0x2c ./Libraries/XMCLib/src/xmc_eru.o
 .text.XMC_ERU_ETL_SetStatusFlagMode
                0x00000000       0x3c ./Libraries/XMCLib/src/xmc_eru.o
 .text.XMC_ERU_ETL_EnableOutputTrigger
                0x00000000       0x50 ./Libraries/XMCLib/src/xmc_eru.o
 .text.XMC_ERU_ETL_DisableOutputTrigger
                0x00000000       0x28 ./Libraries/XMCLib/src/xmc_eru.o
 .text.XMC_ERU_OGU_EnablePatternDetection
                0x00000000       0x50 ./Libraries/XMCLib/src/xmc_eru.o
 .text.XMC_ERU_OGU_DisablePatternDetection
                0x00000000       0x28 ./Libraries/XMCLib/src/xmc_eru.o
 .text.XMC_ERU_OGU_EnablePeripheralTrigger
                0x00000000       0x3c ./Libraries/XMCLib/src/xmc_eru.o
 .text.XMC_ERU_OGU_DisablePeripheralTrigger
                0x00000000       0x28 ./Libraries/XMCLib/src/xmc_eru.o
 .text.XMC_ERU_OGU_SetServiceRequestMode
                0x00000000       0x3c ./Libraries/XMCLib/src/xmc_eru.o
 .comment       0x00000000       0x71 ./Libraries/XMCLib/src/xmc_eru.o
 .text          0x00000000        0x0 ./Libraries/XMCLib/src/xmc_eth_mac.o
 .data          0x00000000        0x0 ./Libraries/XMCLib/src/xmc_eth_mac.o
 .bss           0x00000000        0x0 ./Libraries/XMCLib/src/xmc_eth_mac.o
 .text.XMC_ETH_MAC_Reset
                0x00000000       0x40 ./Libraries/XMCLib/src/xmc_eth_mac.o
 .text.XMC_ETH_MAC_SetAddress
                0x00000000       0x2c ./Libraries/XMCLib/src/xmc_eth_mac.o
 .text.XMC_SCU_CLOCK_GetSystemClockFrequency
                0x00000000       0x28 ./Libraries/XMCLib/src/xmc_eth_mac.o
 .text.XMC_SCU_CLOCK_GetEthernetClockFrequency
                0x00000000       0x10 ./Libraries/XMCLib/src/xmc_eth_mac.o
 .text.XCM_ETH_MAC_IsNormalEvent
                0x00000000       0x28 ./Libraries/XMCLib/src/xmc_eth_mac.o
 .text.XCM_ETH_MAC_IsAbnormalEvent
                0x00000000       0x28 ./Libraries/XMCLib/src/xmc_eth_mac.o
 .text.XMC_ETH_MAC_Init
                0x00000000       0xa8 ./Libraries/XMCLib/src/xmc_eth_mac.o
 .text.XMC_ETH_MAC_InitRxDescriptors
                0x00000000       0xb0 ./Libraries/XMCLib/src/xmc_eth_mac.o
 .text.XMC_ETH_MAC_InitTxDescriptors
                0x00000000       0xa0 ./Libraries/XMCLib/src/xmc_eth_mac.o
 .text.XMC_ETH_MAC_SetAddressPerfectFilter
                0x00000000       0x48 ./Libraries/XMCLib/src/xmc_eth_mac.o
 .text.XMC_ETH_MAC_SetAddressHashFilter
                0x00000000       0x2c ./Libraries/XMCLib/src/xmc_eth_mac.o
 .text.XMC_ETH_MAC_SendFrame
                0x00000000      0x188 ./Libraries/XMCLib/src/xmc_eth_mac.o
 .text.XMC_ETH_MAC_ReadFrame
                0x00000000       0xa0 ./Libraries/XMCLib/src/xmc_eth_mac.o
 .text.XMC_ETH_MAC_GetRxFrameSize
                0x00000000       0x70 ./Libraries/XMCLib/src/xmc_eth_mac.o
 .text.XMC_ETH_MAC_SetManagmentClockDivider
                0x00000000       0xa0 ./Libraries/XMCLib/src/xmc_eth_mac.o
 .text.XMC_ETH_MAC_Enable
                0x00000000       0x24 ./Libraries/XMCLib/src/xmc_eth_mac.o
 .text.XMC_ETH_MAC_Disable
                0x00000000       0x24 ./Libraries/XMCLib/src/xmc_eth_mac.o
 .text.XMC_ETH_MAC_ReadPhy
                0x00000000       0x74 ./Libraries/XMCLib/src/xmc_eth_mac.o
 .text.XMC_ETH_MAC_WritePhy
                0x00000000       0x78 ./Libraries/XMCLib/src/xmc_eth_mac.o
 .text.XMC_ETH_MAC_FlushTx
                0x00000000       0x4c ./Libraries/XMCLib/src/xmc_eth_mac.o
 .text.XMC_ETH_MAC_FlushRx
                0x00000000       0x4c ./Libraries/XMCLib/src/xmc_eth_mac.o
 .text.XMC_ETH_MAC_SetWakeUpFrameFilter
                0x00000000       0x38 ./Libraries/XMCLib/src/xmc_eth_mac.o
 .text.XMC_ETH_MAC_EnableEvent
                0x00000000       0x70 ./Libraries/XMCLib/src/xmc_eth_mac.o
 .text.XMC_ETH_MAC_DisableEvent
                0x00000000       0x4c ./Libraries/XMCLib/src/xmc_eth_mac.o
 .text.XMC_ETH_MAC_ClearEventStatus
                0x00000000       0x5c ./Libraries/XMCLib/src/xmc_eth_mac.o
 .text.XMC_ETH_MAC_GetEventStatus
                0x00000000       0x3c ./Libraries/XMCLib/src/xmc_eth_mac.o
 .text.XMC_ETH_MAC_ReturnRxDescriptor
                0x00000000       0x60 ./Libraries/XMCLib/src/xmc_eth_mac.o
 .text.XMC_ETH_MAC_ReturnTxDescriptor
                0x00000000       0x74 ./Libraries/XMCLib/src/xmc_eth_mac.o
 .text.XMC_ETH_MAC_SetVLANTag
                0x00000000       0x20 ./Libraries/XMCLib/src/xmc_eth_mac.o
 .text.XMC_ETH_MAC_InitPTP
                0x00000000       0xcc ./Libraries/XMCLib/src/xmc_eth_mac.o
 .text.XMC_ETH_MAC_GetPTPTime
                0x00000000       0x48 ./Libraries/XMCLib/src/xmc_eth_mac.o
 .text.XMC_ETH_MAC_UpdatePTPTime
                0x00000000       0x78 ./Libraries/XMCLib/src/xmc_eth_mac.o
 .text.XMC_ETH_MAC_SetPTPAlarm
                0x00000000       0x48 ./Libraries/XMCLib/src/xmc_eth_mac.o
 .text.XMC_ETH_MAC_AdjustPTPClock
                0x00000000       0x60 ./Libraries/XMCLib/src/xmc_eth_mac.o
 .text.XMC_ETH_MAC_GetPTPStatus
                0x00000000       0x1c ./Libraries/XMCLib/src/xmc_eth_mac.o
 .text.XMC_ETH_MAC_GetRxTimeStamp
                0x00000000       0x4c ./Libraries/XMCLib/src/xmc_eth_mac.o
 .text.XMC_ETH_MAC_GetTxTimeStamp
                0x00000000       0x4c ./Libraries/XMCLib/src/xmc_eth_mac.o
 .debug_info    0x00000000     0x1b0f ./Libraries/XMCLib/src/xmc_eth_mac.o
 .debug_abbrev  0x00000000      0x266 ./Libraries/XMCLib/src/xmc_eth_mac.o
 .debug_loc     0x00000000      0xc80 ./Libraries/XMCLib/src/xmc_eth_mac.o
 .debug_aranges
                0x00000000      0x140 ./Libraries/XMCLib/src/xmc_eth_mac.o
 .debug_ranges  0x00000000      0x130 ./Libraries/XMCLib/src/xmc_eth_mac.o
 .debug_line    0x00000000      0x655 ./Libraries/XMCLib/src/xmc_eth_mac.o
 .debug_str     0x00000000     0x215c ./Libraries/XMCLib/src/xmc_eth_mac.o
 .comment       0x00000000       0x71 ./Libraries/XMCLib/src/xmc_eth_mac.o
 .debug_frame   0x00000000      0x5f8 ./Libraries/XMCLib/src/xmc_eth_mac.o
 .ARM.attributes
                0x00000000       0x37 ./Libraries/XMCLib/src/xmc_eth_mac.o
 .text          0x00000000        0x0 ./Libraries/XMCLib/src/xmc_fce.o
 .data          0x00000000        0x0 ./Libraries/XMCLib/src/xmc_fce.o
 .bss           0x00000000        0x0 ./Libraries/XMCLib/src/xmc_fce.o
 .text.XMC_FCE_Disable
                0x00000000       0x28 ./Libraries/XMCLib/src/xmc_fce.o
 .text.XMC_FCE_CalculateCRC8
                0x00000000       0x58 ./Libraries/XMCLib/src/xmc_fce.o
 .text.XMC_FCE_CalculateCRC16
                0x00000000       0x64 ./Libraries/XMCLib/src/xmc_fce.o
 .text.XMC_FCE_TriggerMismatch
                0x00000000       0x4c ./Libraries/XMCLib/src/xmc_fce.o
 .text.XMC_FCE_LittleEndian16bit
                0x00000000       0xa0 ./Libraries/XMCLib/src/xmc_fce.o
 .text.XMC_FCE_LittleEndian32bit
                0x00000000       0xb4 ./Libraries/XMCLib/src/xmc_fce.o
 .comment       0x00000000       0x71 ./Libraries/XMCLib/src/xmc_fce.o
 .text          0x00000000        0x0 ./Libraries/XMCLib/src/xmc_gpio.o
 .data          0x00000000        0x0 ./Libraries/XMCLib/src/xmc_gpio.o
 .bss           0x00000000        0x0 ./Libraries/XMCLib/src/xmc_gpio.o
 .comment       0x00000000       0x71 ./Libraries/XMCLib/src/xmc_gpio.o
 .text          0x00000000        0x0 ./Libraries/XMCLib/src/xmc_hrpwm.o
 .data          0x00000000        0x0 ./Libraries/XMCLib/src/xmc_hrpwm.o
 .bss           0x00000000        0x0 ./Libraries/XMCLib/src/xmc_hrpwm.o
 .debug_info    0x00000000       0x9b ./Libraries/XMCLib/src/xmc_hrpwm.o
 .debug_abbrev  0x00000000       0x4b ./Libraries/XMCLib/src/xmc_hrpwm.o
 .debug_aranges
                0x00000000       0x18 ./Libraries/XMCLib/src/xmc_hrpwm.o
 .debug_line    0x00000000      0x136 ./Libraries/XMCLib/src/xmc_hrpwm.o
 .debug_str     0x00000000      0x1f7 ./Libraries/XMCLib/src/xmc_hrpwm.o
 .comment       0x00000000       0x71 ./Libraries/XMCLib/src/xmc_hrpwm.o
 .ARM.attributes
                0x00000000       0x37 ./Libraries/XMCLib/src/xmc_hrpwm.o
 .text          0x00000000        0x0 ./Libraries/XMCLib/src/xmc_i2c.o
 .data          0x00000000        0x0 ./Libraries/XMCLib/src/xmc_i2c.o
 .bss           0x00000000        0x0 ./Libraries/XMCLib/src/xmc_i2c.o
 .text.XMC_USIC_CH_GetTransmitBufferStatus
                0x00000000       0x20 ./Libraries/XMCLib/src/xmc_i2c.o
 .text.XMC_USIC_CH_SetMode
                0x00000000       0x28 ./Libraries/XMCLib/src/xmc_i2c.o
 .text.XMC_I2C_CH_ClearStatusFlag
                0x00000000       0x20 ./Libraries/XMCLib/src/xmc_i2c.o
 .text.XMC_I2C_CH_Init
                0x00000000       0x50 ./Libraries/XMCLib/src/xmc_i2c.o
 .text.XMC_I2C_CH_SetSlaveAddress
                0x00000000       0x40 ./Libraries/XMCLib/src/xmc_i2c.o
 .text.XMC_I2C_CH_GetSlaveAddress
                0x00000000       0x40 ./Libraries/XMCLib/src/xmc_i2c.o
 .text.XMC_I2C_CH_SetBaudrate
                0x00000000       0x78 ./Libraries/XMCLib/src/xmc_i2c.o
 .text.XMC_I2C_CH_MasterStart
                0x00000000       0x68 ./Libraries/XMCLib/src/xmc_i2c.o
 .text.XMC_I2C_CH_MasterRepeatedStart
                0x00000000       0x68 ./Libraries/XMCLib/src/xmc_i2c.o
 .text.XMC_I2C_CH_MasterStop
                0x00000000       0x4c ./Libraries/XMCLib/src/xmc_i2c.o
 .text.XMC_I2C_CH_MasterTransmit
                0x00000000       0x4c ./Libraries/XMCLib/src/xmc_i2c.o
 .text.XMC_I2C_CH_SlaveTransmit
                0x00000000       0x54 ./Libraries/XMCLib/src/xmc_i2c.o
 .text.XMC_I2C_CH_MasterReceiveAck
                0x00000000       0x4c ./Libraries/XMCLib/src/xmc_i2c.o
 .text.XMC_I2C_CH_MasterReceiveNack
                0x00000000       0x4c ./Libraries/XMCLib/src/xmc_i2c.o
 .text.XMC_I2C_CH_GetReceivedData
                0x00000000       0x34 ./Libraries/XMCLib/src/xmc_i2c.o
 .text.XMC_I2C_CH_Stop
                0x00000000       0x34 ./Libraries/XMCLib/src/xmc_i2c.o
 .text.XMC_I2C_CH_EnableEvent
                0x00000000       0x38 ./Libraries/XMCLib/src/xmc_i2c.o
 .text.XMC_I2C_CH_DisableEvent
                0x00000000       0x3c ./Libraries/XMCLib/src/xmc_i2c.o
 .debug_info    0x00000000      0xa5a ./Libraries/XMCLib/src/xmc_i2c.o
 .debug_abbrev  0x00000000      0x277 ./Libraries/XMCLib/src/xmc_i2c.o
 .debug_loc     0x00000000      0x600 ./Libraries/XMCLib/src/xmc_i2c.o
 .debug_aranges
                0x00000000       0xa8 ./Libraries/XMCLib/src/xmc_i2c.o
 .debug_ranges  0x00000000       0x98 ./Libraries/XMCLib/src/xmc_i2c.o
 .debug_line    0x00000000      0x3a4 ./Libraries/XMCLib/src/xmc_i2c.o
 .debug_str     0x00000000      0xc89 ./Libraries/XMCLib/src/xmc_i2c.o
 .comment       0x00000000       0x71 ./Libraries/XMCLib/src/xmc_i2c.o
 .debug_frame   0x00000000      0x2e0 ./Libraries/XMCLib/src/xmc_i2c.o
 .ARM.attributes
                0x00000000       0x37 ./Libraries/XMCLib/src/xmc_i2c.o
 .text          0x00000000        0x0 ./Libraries/XMCLib/src/xmc_i2s.o
 .data          0x00000000        0x0 ./Libraries/XMCLib/src/xmc_i2s.o
 .bss           0x00000000        0x0 ./Libraries/XMCLib/src/xmc_i2s.o
 .text.XMC_USIC_CH_GetTransmitBufferStatus
                0x00000000       0x20 ./Libraries/XMCLib/src/xmc_i2s.o
 .text.XMC_USIC_CH_SetMode
                0x00000000       0x28 ./Libraries/XMCLib/src/xmc_i2s.o
 .text.XMC_I2S_CH_ClearStatusFlag
                0x00000000       0x20 ./Libraries/XMCLib/src/xmc_i2s.o
 .text.XMC_I2S_CH_Init
                0x00000000       0xa0 ./Libraries/XMCLib/src/xmc_i2s.o
 .text.XMC_I2S_CH_SetBaudrate
                0x00000000       0x4c ./Libraries/XMCLib/src/xmc_i2s.o
 .text.XMC_I2S_CH_SetSystemWordLength
                0x00000000       0xb4 ./Libraries/XMCLib/src/xmc_i2s.o
 .text.XMC_I2S_CH_Transmit
                0x00000000       0x5c ./Libraries/XMCLib/src/xmc_i2s.o
 .text.XMC_I2S_CH_GetReceivedData
                0x00000000       0x34 ./Libraries/XMCLib/src/xmc_i2s.o
 .text.XMC_I2S_CH_Stop
                0x00000000       0x34 ./Libraries/XMCLib/src/xmc_i2s.o
 .text.XMC_I2S_CH_EnableEvent
                0x00000000       0x38 ./Libraries/XMCLib/src/xmc_i2s.o
 .text.XMC_I2S_CH_DisableEvent
                0x00000000       0x3c ./Libraries/XMCLib/src/xmc_i2s.o
 .debug_info    0x00000000      0x917 ./Libraries/XMCLib/src/xmc_i2s.o
 .debug_abbrev  0x00000000      0x218 ./Libraries/XMCLib/src/xmc_i2s.o
 .debug_loc     0x00000000      0x3c4 ./Libraries/XMCLib/src/xmc_i2s.o
 .debug_aranges
                0x00000000       0x70 ./Libraries/XMCLib/src/xmc_i2s.o
 .debug_ranges  0x00000000       0x60 ./Libraries/XMCLib/src/xmc_i2s.o
 .debug_line    0x00000000      0x38d ./Libraries/XMCLib/src/xmc_i2s.o
 .debug_str     0x00000000      0xb2b ./Libraries/XMCLib/src/xmc_i2s.o
 .comment       0x00000000       0x71 ./Libraries/XMCLib/src/xmc_i2s.o
 .debug_frame   0x00000000      0x1c8 ./Libraries/XMCLib/src/xmc_i2s.o
 .ARM.attributes
                0x00000000       0x37 ./Libraries/XMCLib/src/xmc_i2s.o
 .text          0x00000000        0x0 ./Libraries/XMCLib/src/xmc_ledts.o
 .data          0x00000000        0x0 ./Libraries/XMCLib/src/xmc_ledts.o
 .bss           0x00000000        0x0 ./Libraries/XMCLib/src/xmc_ledts.o
 .text.XMC_LEDTS_InitGlobal
                0x00000000       0x4c ./Libraries/XMCLib/src/xmc_ledts.o
 .text.XMC_LEDTS_InitLED
                0x00000000       0x50 ./Libraries/XMCLib/src/xmc_ledts.o
 .text.XMC_LEDTS_InitTSBasic
                0x00000000       0x58 ./Libraries/XMCLib/src/xmc_ledts.o
 .text.XMC_LEDTS_InitTSAdvanced
                0x00000000       0x6c ./Libraries/XMCLib/src/xmc_ledts.o
 .text.XMC_LEDTS_StartCounter
                0x00000000       0x24 ./Libraries/XMCLib/src/xmc_ledts.o
 .text.XMC_LEDTS_StopCounter
                0x00000000       0x1c ./Libraries/XMCLib/src/xmc_ledts.o
 .text.XMC_LEDTS_ReadInterruptFlag
                0x00000000       0x1c ./Libraries/XMCLib/src/xmc_ledts.o
 .text.XMC_LEDTS_SetActivePADNo
                0x00000000       0x34 ./Libraries/XMCLib/src/xmc_ledts.o
 .text.XMC_LEDTS_ClearInterruptFlag
                0x00000000       0x1c ./Libraries/XMCLib/src/xmc_ledts.o
 .text.XMC_LEDTS_SetLEDLinePattern
                0x00000000       0x6c ./Libraries/XMCLib/src/xmc_ledts.o
 .text.XMC_LEDTS_SetColumnBrightness
                0x00000000       0x6c ./Libraries/XMCLib/src/xmc_ledts.o
 .text.XMC_LEDTS_SetCommonOscillationWindow
                0x00000000       0x38 ./Libraries/XMCLib/src/xmc_ledts.o
 .text.XMC_LEDTS_ReadFNCOL
                0x00000000       0x28 ./Libraries/XMCLib/src/xmc_ledts.o
 .text.XMC_LEDTS_SetNumOfLEDColumns
                0x00000000       0x30 ./Libraries/XMCLib/src/xmc_ledts.o
 .text.XMC_LEDTS_ReadTSVAL
                0x00000000       0x1c ./Libraries/XMCLib/src/xmc_ledts.o
 .text.XMC_LEDTS_SetOscillationWindow
                0x00000000       0x6c ./Libraries/XMCLib/src/xmc_ledts.o
 .debug_info    0x00000000      0xc43 ./Libraries/XMCLib/src/xmc_ledts.o
 .debug_abbrev  0x00000000      0x231 ./Libraries/XMCLib/src/xmc_ledts.o
 .debug_loc     0x00000000      0x5b4 ./Libraries/XMCLib/src/xmc_ledts.o
 .debug_aranges
                0x00000000       0x98 ./Libraries/XMCLib/src/xmc_ledts.o
 .debug_ranges  0x00000000       0x88 ./Libraries/XMCLib/src/xmc_ledts.o
 .debug_line    0x00000000      0x3bb ./Libraries/XMCLib/src/xmc_ledts.o
 .debug_str     0x00000000     0x103b ./Libraries/XMCLib/src/xmc_ledts.o
 .comment       0x00000000       0x71 ./Libraries/XMCLib/src/xmc_ledts.o
 .debug_frame   0x00000000      0x290 ./Libraries/XMCLib/src/xmc_ledts.o
 .ARM.attributes
                0x00000000       0x37 ./Libraries/XMCLib/src/xmc_ledts.o
 .text          0x00000000        0x0 ./Libraries/XMCLib/src/xmc_posif.o
 .data          0x00000000        0x0 ./Libraries/XMCLib/src/xmc_posif.o
 .bss           0x00000000        0x0 ./Libraries/XMCLib/src/xmc_posif.o
 .text.XMC_POSIF_Stop
                0x00000000       0x18 ./Libraries/XMCLib/src/xmc_posif.o
 .text.XMC_POSIF_Enable
                0x00000000       0x50 ./Libraries/XMCLib/src/xmc_posif.o
 .text.XMC_POSIF_Disable
                0x00000000       0x4c ./Libraries/XMCLib/src/xmc_posif.o
 .text.XMC_POSIF_Init
                0x00000000       0x24 ./Libraries/XMCLib/src/xmc_posif.o
 .text.XMC_POSIF_HSC_Init
                0x00000000       0x40 ./Libraries/XMCLib/src/xmc_posif.o
 .text.XMC_POSIF_QD_Init
                0x00000000       0x54 ./Libraries/XMCLib/src/xmc_posif.o
 .text.XMC_POSIF_MCM_Init
                0x00000000       0x40 ./Libraries/XMCLib/src/xmc_posif.o
 .text.XMC_POSIF_SelectInputSource
                0x00000000       0x54 ./Libraries/XMCLib/src/xmc_posif.o
 .text.XMC_POSIF_SetInterruptNode
                0x00000000       0x48 ./Libraries/XMCLib/src/xmc_posif.o
 .debug_info    0x00000000      0xb7a ./Libraries/XMCLib/src/xmc_posif.o
 .debug_abbrev  0x00000000      0x227 ./Libraries/XMCLib/src/xmc_posif.o
 .debug_loc     0x00000000      0x318 ./Libraries/XMCLib/src/xmc_posif.o
 .debug_aranges
                0x00000000       0x60 ./Libraries/XMCLib/src/xmc_posif.o
 .debug_ranges  0x00000000       0x50 ./Libraries/XMCLib/src/xmc_posif.o
 .debug_line    0x00000000      0x34e ./Libraries/XMCLib/src/xmc_posif.o
 .debug_str     0x00000000     0x1013 ./Libraries/XMCLib/src/xmc_posif.o
 .comment       0x00000000       0x71 ./Libraries/XMCLib/src/xmc_posif.o
 .debug_frame   0x00000000      0x178 ./Libraries/XMCLib/src/xmc_posif.o
 .ARM.attributes
                0x00000000       0x37 ./Libraries/XMCLib/src/xmc_posif.o
 .text          0x00000000        0x0 ./Libraries/XMCLib/src/xmc_rtc.o
 .data          0x00000000        0x0 ./Libraries/XMCLib/src/xmc_rtc.o
 .bss           0x00000000        0x0 ./Libraries/XMCLib/src/xmc_rtc.o
 .text.XMC_SCU_GetMirrorStatus
                0x00000000       0x18 ./Libraries/XMCLib/src/xmc_rtc.o
 .text.XMC_RTC_Start
                0x00000000       0x28 ./Libraries/XMCLib/src/xmc_rtc.o
 .text.XMC_RTC_Stop
                0x00000000       0x28 ./Libraries/XMCLib/src/xmc_rtc.o
 .text.XMC_RTC_SetPrescaler
                0x00000000       0x34 ./Libraries/XMCLib/src/xmc_rtc.o
 .text.XMC_RTC_SetTime
                0x00000000       0x44 ./Libraries/XMCLib/src/xmc_rtc.o
 .text.XMC_RTC_GetTime
                0x00000000       0x28 ./Libraries/XMCLib/src/xmc_rtc.o
 .text.XMC_RTC_SetTimeStdFormat
                0x00000000       0xa4 ./Libraries/XMCLib/src/xmc_rtc.o
 .text.XMC_RTC_GetTimeStdFormat
                0x00000000       0x80 ./Libraries/XMCLib/src/xmc_rtc.o
 .text.XMC_RTC_SetAlarm
                0x00000000       0x44 ./Libraries/XMCLib/src/xmc_rtc.o
 .text.XMC_RTC_GetAlarm
                0x00000000       0x28 ./Libraries/XMCLib/src/xmc_rtc.o
 .text.XMC_RTC_SetAlarmStdFormat
                0x00000000       0x90 ./Libraries/XMCLib/src/xmc_rtc.o
 .text.XMC_RTC_GetAlarmStdFormat
                0x00000000       0x74 ./Libraries/XMCLib/src/xmc_rtc.o
 .text.XMC_RTC_GetEventStatus
                0x00000000       0x18 ./Libraries/XMCLib/src/xmc_rtc.o
 .debug_info    0x00000000      0x809 ./Libraries/XMCLib/src/xmc_rtc.o
 .debug_abbrev  0x00000000      0x223 ./Libraries/XMCLib/src/xmc_rtc.o
 .debug_loc     0x00000000      0x3e0 ./Libraries/XMCLib/src/xmc_rtc.o
 .debug_aranges
                0x00000000       0x80 ./Libraries/XMCLib/src/xmc_rtc.o
 .debug_ranges  0x00000000       0x70 ./Libraries/XMCLib/src/xmc_rtc.o
 .debug_line    0x00000000      0x3cf ./Libraries/XMCLib/src/xmc_rtc.o
 .debug_str     0x00000000      0x504 ./Libraries/XMCLib/src/xmc_rtc.o
 .comment       0x00000000       0x71 ./Libraries/XMCLib/src/xmc_rtc.o
 .debug_frame   0x00000000      0x1f8 ./Libraries/XMCLib/src/xmc_rtc.o
 .ARM.attributes
                0x00000000       0x37 ./Libraries/XMCLib/src/xmc_rtc.o
 .text          0x00000000        0x0 ./Libraries/XMCLib/src/xmc_sdmmc.o
 .data          0x00000000        0x0 ./Libraries/XMCLib/src/xmc_sdmmc.o
 .bss           0x00000000        0x0 ./Libraries/XMCLib/src/xmc_sdmmc.o
 .text.XMC_SDMMC_GetPowerStatus
                0x00000000       0x2c ./Libraries/XMCLib/src/xmc_sdmmc.o
 .text.XMC_SDMMC_Enable
                0x00000000       0x20 ./Libraries/XMCLib/src/xmc_sdmmc.o
 .text.XMC_SDMMC_Disable
                0x00000000       0x20 ./Libraries/XMCLib/src/xmc_sdmmc.o
 .text.XMC_SDMMC_Init
                0x00000000       0x58 ./Libraries/XMCLib/src/xmc_sdmmc.o
 .text.XMC_SDMMC_EnableEventStatus
                0x00000000       0x3c ./Libraries/XMCLib/src/xmc_sdmmc.o
 .text.XMC_SDMMC_DisableEventStatus
                0x00000000       0x44 ./Libraries/XMCLib/src/xmc_sdmmc.o
 .text.XMC_SDMMC_EnableEvent
                0x00000000       0x40 ./Libraries/XMCLib/src/xmc_sdmmc.o
 .text.XMC_SDMMC_DisableEvent
                0x00000000       0x44 ./Libraries/XMCLib/src/xmc_sdmmc.o
 .text.XMC_SDMMC_ClearEvent
                0x00000000       0x28 ./Libraries/XMCLib/src/xmc_sdmmc.o
 .text.XMC_SDMMC_GetEvent
                0x00000000       0x54 ./Libraries/XMCLib/src/xmc_sdmmc.o
 .text.XMC_SDMMC_GetR2Response
                0x00000000       0x34 ./Libraries/XMCLib/src/xmc_sdmmc.o
 .text.XMC_SDMMC_SendCommand
                0x00000000       0x28 ./Libraries/XMCLib/src/xmc_sdmmc.o
 .text.XMC_SDMMC_SetDataTransferMode
                0x00000000       0x80 ./Libraries/XMCLib/src/xmc_sdmmc.o
 .debug_info    0x00000000      0xba4 ./Libraries/XMCLib/src/xmc_sdmmc.o
 .debug_abbrev  0x00000000      0x20f ./Libraries/XMCLib/src/xmc_sdmmc.o
 .debug_loc     0x00000000      0x47c ./Libraries/XMCLib/src/xmc_sdmmc.o
 .debug_aranges
                0x00000000       0x80 ./Libraries/XMCLib/src/xmc_sdmmc.o
 .debug_ranges  0x00000000       0x70 ./Libraries/XMCLib/src/xmc_sdmmc.o
 .debug_line    0x00000000      0x361 ./Libraries/XMCLib/src/xmc_sdmmc.o
 .debug_str     0x00000000     0x11aa ./Libraries/XMCLib/src/xmc_sdmmc.o
 .comment       0x00000000       0x71 ./Libraries/XMCLib/src/xmc_sdmmc.o
 .debug_frame   0x00000000      0x218 ./Libraries/XMCLib/src/xmc_sdmmc.o
 .ARM.attributes
                0x00000000       0x37 ./Libraries/XMCLib/src/xmc_sdmmc.o
 .text          0x00000000        0x0 ./Libraries/XMCLib/src/xmc_spi.o
 .data          0x00000000        0x0 ./Libraries/XMCLib/src/xmc_spi.o
 .bss           0x00000000        0x0 ./Libraries/XMCLib/src/xmc_spi.o
 .text.XMC_USIC_CH_GetTransmitBufferStatus
                0x00000000       0x20 ./Libraries/XMCLib/src/xmc_spi.o
 .text.XMC_USIC_CH_SetMode
                0x00000000       0x28 ./Libraries/XMCLib/src/xmc_spi.o
 .text.XMC_SPI_CH_ClearStatusFlag
                0x00000000       0x20 ./Libraries/XMCLib/src/xmc_spi.o
 .text.XMC_SPI_CH_Init
                0x00000000       0x68 ./Libraries/XMCLib/src/xmc_spi.o
 .text.XMC_SPI_CH_SetBaudrate
                0x00000000       0x3c ./Libraries/XMCLib/src/xmc_spi.o
 .text.XMC_SPI_CH_EnableSlaveSelect
                0x00000000       0x2c ./Libraries/XMCLib/src/xmc_spi.o
 .text.XMC_SPI_CH_DisableSlaveSelect
                0x00000000       0x24 ./Libraries/XMCLib/src/xmc_spi.o
 .text.XMC_SPI_CH_Transmit
                0x00000000       0x6c ./Libraries/XMCLib/src/xmc_spi.o
 .text.XMC_SPI_CH_GetReceivedData
                0x00000000       0x34 ./Libraries/XMCLib/src/xmc_spi.o
 .text.XMC_SPI_CH_SetInterwordDelay
                0x00000000      0x130 ./Libraries/XMCLib/src/xmc_spi.o
 .text.XMC_SPI_CH_Stop
                0x00000000       0x34 ./Libraries/XMCLib/src/xmc_spi.o
 .text.XMC_SPI_CH_EnableEvent
                0x00000000       0x34 ./Libraries/XMCLib/src/xmc_spi.o
 .text.XMC_SPI_CH_DisableEvent
                0x00000000       0x38 ./Libraries/XMCLib/src/xmc_spi.o
 .debug_info    0x00000000      0xa27 ./Libraries/XMCLib/src/xmc_spi.o
 .debug_abbrev  0x00000000      0x218 ./Libraries/XMCLib/src/xmc_spi.o
 .debug_loc     0x00000000      0x466 ./Libraries/XMCLib/src/xmc_spi.o
 .debug_aranges
                0x00000000       0x80 ./Libraries/XMCLib/src/xmc_spi.o
 .debug_ranges  0x00000000       0x70 ./Libraries/XMCLib/src/xmc_spi.o
 .debug_line    0x00000000      0x3b4 ./Libraries/XMCLib/src/xmc_spi.o
 .debug_str     0x00000000      0xd15 ./Libraries/XMCLib/src/xmc_spi.o
 .comment       0x00000000       0x71 ./Libraries/XMCLib/src/xmc_spi.o
 .debug_frame   0x00000000      0x218 ./Libraries/XMCLib/src/xmc_spi.o
 .ARM.attributes
                0x00000000       0x37 ./Libraries/XMCLib/src/xmc_spi.o
 .text          0x00000000        0x0 ./Libraries/XMCLib/src/xmc_uart.o
 .data          0x00000000        0x0 ./Libraries/XMCLib/src/xmc_uart.o
 .bss           0x00000000        0x0 ./Libraries/XMCLib/src/xmc_uart.o
 .text.XMC_USIC_CH_GetTransmitBufferStatus
                0x00000000       0x20 ./Libraries/XMCLib/src/xmc_uart.o
 .text.XMC_USIC_CH_SetMode
                0x00000000       0x28 ./Libraries/XMCLib/src/xmc_uart.o
 .text.XMC_UART_CH_GetStatusFlag
                0x00000000       0x18 ./Libraries/XMCLib/src/xmc_uart.o
 .text.XMC_UART_CH_ClearStatusFlag
                0x00000000       0x1c ./Libraries/XMCLib/src/xmc_uart.o
 .text.XMC_UART_CH_Init
                0x00000000       0xac ./Libraries/XMCLib/src/xmc_uart.o
 .text.XMC_UART_CH_SetBaudrate
                0x00000000       0x44 ./Libraries/XMCLib/src/xmc_uart.o
 .text.XMC_UART_CH_Transmit
                0x00000000       0x4c ./Libraries/XMCLib/src/xmc_uart.o
 .text.XMC_UART_CH_GetReceivedData
                0x00000000       0x34 ./Libraries/XMCLib/src/xmc_uart.o
 .text.XMC_UART_CH_Stop
                0x00000000       0x44 ./Libraries/XMCLib/src/xmc_uart.o
 .text.XMC_UART_CH_EnableEvent
                0x00000000       0x34 ./Libraries/XMCLib/src/xmc_uart.o
 .text.XMC_UART_CH_DisableEvent
                0x00000000       0x38 ./Libraries/XMCLib/src/xmc_uart.o
 .debug_info    0x00000000      0x88c ./Libraries/XMCLib/src/xmc_uart.o
 .debug_abbrev  0x00000000      0x1fe ./Libraries/XMCLib/src/xmc_uart.o
 .debug_loc     0x00000000      0x3c4 ./Libraries/XMCLib/src/xmc_uart.o
 .debug_aranges
                0x00000000       0x70 ./Libraries/XMCLib/src/xmc_uart.o
 .debug_ranges  0x00000000       0x60 ./Libraries/XMCLib/src/xmc_uart.o
 .debug_line    0x00000000      0x36a ./Libraries/XMCLib/src/xmc_uart.o
 .debug_str     0x00000000      0xaf9 ./Libraries/XMCLib/src/xmc_uart.o
 .comment       0x00000000       0x71 ./Libraries/XMCLib/src/xmc_uart.o
 .debug_frame   0x00000000      0x1c8 ./Libraries/XMCLib/src/xmc_uart.o
 .ARM.attributes
                0x00000000       0x37 ./Libraries/XMCLib/src/xmc_uart.o
 .text          0x00000000        0x0 ./Libraries/XMCLib/src/xmc_usbd.o
 .data          0x00000000        0x0 ./Libraries/XMCLib/src/xmc_usbd.o
 .bss           0x00000000        0x0 ./Libraries/XMCLib/src/xmc_usbd.o
 .bss.XMC_USBD_EP_OUT_BUFFERSIZE
                0x00000000       0x1c ./Libraries/XMCLib/src/xmc_usbd.o
 .bss.XMC_USBD_EP_IN_BUFFERSIZE
                0x00000000       0x1c ./Libraries/XMCLib/src/xmc_usbd.o
 USB_RAM        0x00000000      0xe00 ./Libraries/XMCLib/src/xmc_usbd.o
 .rodata.Driver_USBD0
                0x00000000       0x40 ./Libraries/XMCLib/src/xmc_usbd.o
 .text.XMC_USBD_lDeviceActive
                0x00000000       0x6c ./Libraries/XMCLib/src/xmc_usbd.o
 .text.XMC_USBD_lReadFifo
                0x00000000       0xe8 ./Libraries/XMCLib/src/xmc_usbd.o
 .text.XMC_USBD_lWriteFifo
                0x00000000       0xa4 ./Libraries/XMCLib/src/xmc_usbd.o
 .text.XMC_USBD_lFlushTXFifo
                0x00000000       0x84 ./Libraries/XMCLib/src/xmc_usbd.o
 .text.XMC_USBD_lFlushRXFifo
                0x00000000       0x68 ./Libraries/XMCLib/src/xmc_usbd.o
 .text.XMC_USBD_lAssignTXFifo
                0x00000000       0x70 ./Libraries/XMCLib/src/xmc_usbd.o
 .text.XMC_USBD_lUnassignFifo
                0x00000000       0x38 ./Libraries/XMCLib/src/xmc_usbd.o
 .text.XMC_USBD_lStartReadXfer
                0x00000000      0x178 ./Libraries/XMCLib/src/xmc_usbd.o
 .text.XMC_USBD_lStartWriteXfer
                0x00000000      0x194 ./Libraries/XMCLib/src/xmc_usbd.o
 .text.XMC_USBD_lHandleUSBReset
                0x00000000      0x14c ./Libraries/XMCLib/src/xmc_usbd.o
 .text.XMC_USBD_lHandleOTGInt
                0x00000000       0x48 ./Libraries/XMCLib/src/xmc_usbd.o
 .text.XMC_USBD_lHandleEnumDone
                0x00000000       0x78 ./Libraries/XMCLib/src/xmc_usbd.o
 .text.XMC_USBD_lHandleOEPInt
                0x00000000      0x1b8 ./Libraries/XMCLib/src/xmc_usbd.o
 .text.XMC_USBD_lHandleIEPInt
                0x00000000      0x1b8 ./Libraries/XMCLib/src/xmc_usbd.o
 .text.XMC_USBD_lHandleRxFLvl
                0x00000000       0x80 ./Libraries/XMCLib/src/xmc_usbd.o
 .text.XMC_USBD_IRQHandler
                0x00000000      0x14c ./Libraries/XMCLib/src/xmc_usbd.o
 .text.XMC_USBD_Enable
                0x00000000       0x1c ./Libraries/XMCLib/src/xmc_usbd.o
 .text.XMC_USBD_Disable
                0x00000000       0x1c ./Libraries/XMCLib/src/xmc_usbd.o
 .text.XMC_USBD_ClearEvent
                0x00000000       0xc8 ./Libraries/XMCLib/src/xmc_usbd.o
 .text.XMC_USBD_lClearEventOTG
                0x00000000       0x28 ./Libraries/XMCLib/src/xmc_usbd.o
 .text.XMC_USBD_ClearEventINEP
                0x00000000       0x2c ./Libraries/XMCLib/src/xmc_usbd.o
 .text.XMC_USBD_ClearEventOUTEP
                0x00000000       0x30 ./Libraries/XMCLib/src/xmc_usbd.o
 .text.XMC_USBD_EnableEventOUTEP
                0x00000000       0x30 ./Libraries/XMCLib/src/xmc_usbd.o
 .text.XMC_USBD_EnableEventINEP
                0x00000000       0x30 ./Libraries/XMCLib/src/xmc_usbd.o
 .text.XMC_USBD_GetCapabilities
                0x00000000       0x68 ./Libraries/XMCLib/src/xmc_usbd.o
 .text.XMC_USBD_Init
                0x00000000      0x23c ./Libraries/XMCLib/src/xmc_usbd.o
 .text.XMC_USBD_Uninitialize
                0x00000000       0x3c ./Libraries/XMCLib/src/xmc_usbd.o
 .text.XMC_USBD_DeviceConnect
                0x00000000       0x34 ./Libraries/XMCLib/src/xmc_usbd.o
 .text.XMC_USBD_DeviceDisconnect
                0x00000000       0x34 ./Libraries/XMCLib/src/xmc_usbd.o
 .text.XMC_USBD_DeviceGetState
                0x00000000       0x64 ./Libraries/XMCLib/src/xmc_usbd.o
 .text.XMC_USBD_EndpointReadStart
                0x00000000       0x8c ./Libraries/XMCLib/src/xmc_usbd.o
 .text.XMC_USBD_EndpointRead
                0x00000000       0x78 ./Libraries/XMCLib/src/xmc_usbd.o
 .text.XMC_USBD_EndpointWrite
                0x00000000       0xa8 ./Libraries/XMCLib/src/xmc_usbd.o
 .text.XMC_USBD_DeviceSetAddress
                0x00000000       0x4c ./Libraries/XMCLib/src/xmc_usbd.o
 .text.XMC_USBD_EndpointStall
                0x00000000      0x14c ./Libraries/XMCLib/src/xmc_usbd.o
 .text.XMC_USBD_EndpointAbort
                0x00000000       0x88 ./Libraries/XMCLib/src/xmc_usbd.o
 .text.XMC_USBD_EndpointConfigure
                0x00000000      0x2f4 ./Libraries/XMCLib/src/xmc_usbd.o
 .text.XMC_USBD_EndpointUnconfigure
                0x00000000      0x170 ./Libraries/XMCLib/src/xmc_usbd.o
 .text.XMC_USBD_GetFrameNumber
                0x00000000       0x2c ./Libraries/XMCLib/src/xmc_usbd.o
 .text.XMC_USBD_IsEnumDone
                0x00000000       0x38 ./Libraries/XMCLib/src/xmc_usbd.o
 .debug_info    0x00000000     0x384c ./Libraries/XMCLib/src/xmc_usbd.o
 .debug_abbrev  0x00000000      0x3e6 ./Libraries/XMCLib/src/xmc_usbd.o
 .debug_loc     0x00000000      0xd34 ./Libraries/XMCLib/src/xmc_usbd.o
 .debug_aranges
                0x00000000      0x158 ./Libraries/XMCLib/src/xmc_usbd.o
 .debug_ranges  0x00000000      0x148 ./Libraries/XMCLib/src/xmc_usbd.o
 .debug_line    0x00000000      0x8dc ./Libraries/XMCLib/src/xmc_usbd.o
 .debug_str     0x00000000     0x27e5 ./Libraries/XMCLib/src/xmc_usbd.o
 .comment       0x00000000       0x71 ./Libraries/XMCLib/src/xmc_usbd.o
 .debug_frame   0x00000000      0x634 ./Libraries/XMCLib/src/xmc_usbd.o
 .ARM.attributes
                0x00000000       0x37 ./Libraries/XMCLib/src/xmc_usbd.o
 COMMON         0x00000000      0x20c ./Libraries/XMCLib/src/xmc_usbd.o
 .text          0x00000000        0x0 ./Libraries/XMCLib/src/xmc_usbh.o
 .data          0x00000000        0x0 ./Libraries/XMCLib/src/xmc_usbh.o
 .bss           0x00000000        0x0 ./Libraries/XMCLib/src/xmc_usbh.o
 .text.NVIC_EnableIRQ
                0x00000000       0x30 ./Libraries/XMCLib/src/xmc_usbh.o
 .text.NVIC_DisableIRQ
                0x00000000       0x34 ./Libraries/XMCLib/src/xmc_usbh.o
 .text.NVIC_ClearPendingIRQ
                0x00000000       0x34 ./Libraries/XMCLib/src/xmc_usbh.o
 .text.NVIC_SetPriority
                0x00000000       0x54 ./Libraries/XMCLib/src/xmc_usbh.o
 .rodata.xmc_usbh_driver_version
                0x00000000        0x4 ./Libraries/XMCLib/src/xmc_usbh.o
 .data.VBUS_port
                0x00000000        0x4 ./Libraries/XMCLib/src/xmc_usbh.o
 .data.VBUS_pin
                0x00000000        0x4 ./Libraries/XMCLib/src/xmc_usbh.o
 .rodata.xmc_usbh_driver_capabilities
                0x00000000        0x4 ./Libraries/XMCLib/src/xmc_usbh.o
 .data.XMC_USBH0_device
                0x00000000       0x14 ./Libraries/XMCLib/src/xmc_usbh.o
 .bss.XMC_USBH0_dfifo_ptr
                0x00000000       0x38 ./Libraries/XMCLib/src/xmc_usbh.o
 .text.XMC_lClockGating
                0x00000000       0x30 ./Libraries/XMCLib/src/xmc_usbh.o
 .text.XMC_lTriggerHaltChannel
                0x00000000       0x28 ./Libraries/XMCLib/src/xmc_usbh.o
 .text.XMC_lStartTransfer
                0x00000000      0x268 ./Libraries/XMCLib/src/xmc_usbh.o
 .text.XMC_USBH_GetVersion
                0x00000000       0x2c ./Libraries/XMCLib/src/xmc_usbh.o
 .text.XMC_USBH_GetCapabilities
                0x00000000       0x24 ./Libraries/XMCLib/src/xmc_usbh.o
 .text.XMC_USBH_Initialize
                0x00000000       0x7c ./Libraries/XMCLib/src/xmc_usbh.o
 .text.XMC_USBH_Uninitialize
                0x00000000       0x1c ./Libraries/XMCLib/src/xmc_usbh.o
 .text.XMC_USBH_PowerControl
                0x00000000      0x204 ./Libraries/XMCLib/src/xmc_usbh.o
 .text.XMC_USBH_PortVbusOnOff
                0x00000000       0xa0 ./Libraries/XMCLib/src/xmc_usbh.o
 .text.XMC_USBH_PortReset
                0x00000000       0xa8 ./Libraries/XMCLib/src/xmc_usbh.o
 .text.XMC_USBH_PortSuspend
                0x00000000       0x78 ./Libraries/XMCLib/src/xmc_usbh.o
 .text.XMC_USBH_PortResume
                0x00000000       0x94 ./Libraries/XMCLib/src/xmc_usbh.o
 .text.XMC_USBH_PortGetState
                0x00000000       0x8c ./Libraries/XMCLib/src/xmc_usbh.o
 .text.XMC_USBH_PipeCreate
                0x00000000      0x148 ./Libraries/XMCLib/src/xmc_usbh.o
 .text.XMC_USBH_PipeModify
                0x00000000       0xac ./Libraries/XMCLib/src/xmc_usbh.o
 .text.XMC_USBH_PipeDelete
                0x00000000       0x84 ./Libraries/XMCLib/src/xmc_usbh.o
 .text.XMC_USBH_PipeReset
                0x00000000       0x78 ./Libraries/XMCLib/src/xmc_usbh.o
 .text.XMC_USBH_PipeTransfer
                0x00000000      0x118 ./Libraries/XMCLib/src/xmc_usbh.o
 .text.XMC_USBH_PipeTransferGetResult
                0x00000000       0x40 ./Libraries/XMCLib/src/xmc_usbh.o
 .text.XMC_USBH_PipeTransferAbort
                0x00000000       0xd8 ./Libraries/XMCLib/src/xmc_usbh.o
 .text.XMC_USBH_GetFrameNumber
                0x00000000       0x38 ./Libraries/XMCLib/src/xmc_usbh.o
 .text.XMC_USBH_HandleIrq
                0x00000000      0x664 ./Libraries/XMCLib/src/xmc_usbh.o
 .text.XMC_USBH_GetInterruptStatus
                0x00000000       0x18 ./Libraries/XMCLib/src/xmc_usbh.o
 .text.XMC_USBH_Select_VBUS
                0x00000000       0x38 ./Libraries/XMCLib/src/xmc_usbh.o
 .text.XMC_USBH_TurnOffResumeBit
                0x00000000       0x38 ./Libraries/XMCLib/src/xmc_usbh.o
 .rodata.Driver_USBH0
                0x00000000       0x48 ./Libraries/XMCLib/src/xmc_usbh.o
 .text.XMC_USBH_osDelay
                0x00000000        0xc ./Libraries/XMCLib/src/xmc_usbh.o
 .debug_info    0x00000000     0x1fdf ./Libraries/XMCLib/src/xmc_usbh.o
 .debug_abbrev  0x00000000      0x35f ./Libraries/XMCLib/src/xmc_usbh.o
 .debug_loc     0x00000000      0x9ac ./Libraries/XMCLib/src/xmc_usbh.o
 .debug_aranges
                0x00000000      0x108 ./Libraries/XMCLib/src/xmc_usbh.o
 .debug_ranges  0x00000000       0xf8 ./Libraries/XMCLib/src/xmc_usbh.o
 .debug_line    0x00000000      0x7cb ./Libraries/XMCLib/src/xmc_usbh.o
 .debug_str     0x00000000     0x1df5 ./Libraries/XMCLib/src/xmc_usbh.o
 .comment       0x00000000       0x71 ./Libraries/XMCLib/src/xmc_usbh.o
 .debug_frame   0x00000000      0x4a4 ./Libraries/XMCLib/src/xmc_usbh.o
 .ARM.attributes
                0x00000000       0x37 ./Libraries/XMCLib/src/xmc_usbh.o
 COMMON         0x00000000      0x1ce ./Libraries/XMCLib/src/xmc_usbh.o
 .text          0x00000000        0x0 ./Libraries/XMCLib/src/xmc_usic.o
 .data          0x00000000        0x0 ./Libraries/XMCLib/src/xmc_usic.o
 .bss           0x00000000        0x0 ./Libraries/XMCLib/src/xmc_usic.o
 .text.XMC_USIC_CH_SetInputTriggerCombinationMode
                0x00000000       0x3c ./Libraries/XMCLib/src/xmc_usic.o
 .text.XMC_USIC_CH_SetBRGInputClockSource
                0x00000000       0x28 ./Libraries/XMCLib/src/xmc_usic.o
 .text.XMC_USIC_CH_Enable
                0x00000000       0x98 ./Libraries/XMCLib/src/xmc_usic.o
 .text.XMC_USIC_CH_Disable
                0x00000000       0x24 ./Libraries/XMCLib/src/xmc_usic.o
 .text.XMC_USIC_CH_SetBaudrate
                0x00000000       0xe0 ./Libraries/XMCLib/src/xmc_usic.o
 .text.XMC_USIC_CH_ConfigExternalInputSignalToBRG
                0x00000000       0x50 ./Libraries/XMCLib/src/xmc_usic.o
 .text.XMC_USIC_CH_TXFIFO_Configure
                0x00000000       0x50 ./Libraries/XMCLib/src/xmc_usic.o
 .text.XMC_USIC_CH_RXFIFO_Configure
                0x00000000       0x54 ./Libraries/XMCLib/src/xmc_usic.o
 .text.XMC_USIC_CH_TXFIFO_SetSizeTriggerLimit
                0x00000000       0x44 ./Libraries/XMCLib/src/xmc_usic.o
 .text.XMC_USIC_CH_RXFIFO_SetSizeTriggerLimit
                0x00000000       0x44 ./Libraries/XMCLib/src/xmc_usic.o
 .text.XMC_USIC_CH_SetInterruptNodePointer
                0x00000000       0x38 ./Libraries/XMCLib/src/xmc_usic.o
 .text.XMC_USIC_CH_TXFIFO_SetInterruptNodePointer
                0x00000000       0x3c ./Libraries/XMCLib/src/xmc_usic.o
 .text.XMC_USIC_CH_RXFIFO_SetInterruptNodePointer
                0x00000000       0x3c ./Libraries/XMCLib/src/xmc_usic.o
 .text.XMC_USIC_Enable
                0x00000000       0x68 ./Libraries/XMCLib/src/xmc_usic.o
 .text.XMC_USIC_Disable
                0x00000000       0x68 ./Libraries/XMCLib/src/xmc_usic.o
 .debug_info    0x00000000      0xc5e ./Libraries/XMCLib/src/xmc_usic.o
 .debug_abbrev  0x00000000      0x1eb ./Libraries/XMCLib/src/xmc_usic.o
 .debug_loc     0x00000000      0x52a ./Libraries/XMCLib/src/xmc_usic.o
 .debug_aranges
                0x00000000       0x90 ./Libraries/XMCLib/src/xmc_usic.o
 .debug_ranges  0x00000000       0x80 ./Libraries/XMCLib/src/xmc_usic.o
 .debug_line    0x00000000      0x41f ./Libraries/XMCLib/src/xmc_usic.o
 .debug_str     0x00000000     0x13db ./Libraries/XMCLib/src/xmc_usic.o
 .comment       0x00000000       0x71 ./Libraries/XMCLib/src/xmc_usic.o
 .debug_frame   0x00000000      0x268 ./Libraries/XMCLib/src/xmc_usic.o
 .ARM.attributes
                0x00000000       0x37 ./Libraries/XMCLib/src/xmc_usic.o
 .text          0x00000000        0x0 ./Libraries/XMCLib/src/xmc_vadc.o
 .data          0x00000000        0x0 ./Libraries/XMCLib/src/xmc_vadc.o
 .bss           0x00000000        0x0 ./Libraries/XMCLib/src/xmc_vadc.o
 .text.XMC_VADC_GROUP_ExternalMuxControlInit
                0x00000000       0x7c ./Libraries/XMCLib/src/xmc_vadc.o
 .text.XMC_VADC_GROUP_ScanEnableArbitrationSlot
                0x00000000       0x24 ./Libraries/XMCLib/src/xmc_vadc.o
 .text.XMC_VADC_GROUP_ScanDisableArbitrationSlot
                0x00000000       0x24 ./Libraries/XMCLib/src/xmc_vadc.o
 .text.XMC_VADC_GROUP_BackgroundEnableArbitrationSlot
                0x00000000       0x24 ./Libraries/XMCLib/src/xmc_vadc.o
 .text.XMC_VADC_GROUP_BackgroundDisableArbitrationSlot
                0x00000000       0x24 ./Libraries/XMCLib/src/xmc_vadc.o
 .text.XMC_VADC_GROUP_QueueEnableArbitrationSlot
                0x00000000       0x24 ./Libraries/XMCLib/src/xmc_vadc.o
 .text.XMC_VADC_GROUP_QueueDisableArbitrationSlot
                0x00000000       0x24 ./Libraries/XMCLib/src/xmc_vadc.o
 .text.XMC_VADC_GROUP_QueueFlushEntries
                0x00000000       0x34 ./Libraries/XMCLib/src/xmc_vadc.o
 .rodata.g_xmc_vadc_group_array
                0x00000000       0x10 ./Libraries/XMCLib/src/xmc_vadc.o
 .text.XMC_VADC_GLOBAL_EnableModule
                0x00000000       0x14 ./Libraries/XMCLib/src/xmc_vadc.o
 .text.XMC_VADC_GLOBAL_DisableModule
                0x00000000       0x14 ./Libraries/XMCLib/src/xmc_vadc.o
 .text.XMC_VADC_GLOBAL_Init
                0x00000000       0x54 ./Libraries/XMCLib/src/xmc_vadc.o
 .text.XMC_VADC_GLOBAL_InputClassInit
                0x00000000       0x48 ./Libraries/XMCLib/src/xmc_vadc.o
 .text.XMC_VADC_GLOBAL_StartupCalibration
                0x00000000       0x60 ./Libraries/XMCLib/src/xmc_vadc.o
 .text.XMC_VADC_GLOBAL_SetBoundaries
                0x00000000       0x34 ./Libraries/XMCLib/src/xmc_vadc.o
 .text.XMC_VADC_GLOBAL_SetIndividualBoundary
                0x00000000       0x64 ./Libraries/XMCLib/src/xmc_vadc.o
 .text.XMC_VADC_GLOBAL_SetCompareValue
                0x00000000       0x38 ./Libraries/XMCLib/src/xmc_vadc.o
 .text.XMC_VADC_GLOBAL_GetCompareResult
                0x00000000       0x38 ./Libraries/XMCLib/src/xmc_vadc.o
 .text.XMC_VADC_GLOBAL_BindGroupToEMux
                0x00000000       0x58 ./Libraries/XMCLib/src/xmc_vadc.o
 .text.XMC_VADC_GLOBAL_SetResultEventInterruptNode
                0x00000000       0x4c ./Libraries/XMCLib/src/xmc_vadc.o
 .text.XMC_VADC_GLOBAL_BackgroundSetReqSrcEventInterruptNode
                0x00000000       0x48 ./Libraries/XMCLib/src/xmc_vadc.o
 .text.XMC_VADC_GROUP_Init
                0x00000000       0x68 ./Libraries/XMCLib/src/xmc_vadc.o
 .text.XMC_VADC_GROUP_InputClassInit
                0x00000000       0xb8 ./Libraries/XMCLib/src/xmc_vadc.o
 .text.XMC_VADC_GROUP_SetPowerMode
                0x00000000       0x38 ./Libraries/XMCLib/src/xmc_vadc.o
 .text.XMC_VADC_GROUP_SetSyncSlave
                0x00000000       0x44 ./Libraries/XMCLib/src/xmc_vadc.o
 .text.XMC_VADC_GROUP_SetSyncMaster
                0x00000000       0x2c ./Libraries/XMCLib/src/xmc_vadc.o
 .text.XMC_VADC_GROUP_CheckSlaveReadiness
                0x00000000       0x68 ./Libraries/XMCLib/src/xmc_vadc.o
 .text.XMC_VADC_GROUP_IgnoreSlaveReadiness
                0x00000000       0x68 ./Libraries/XMCLib/src/xmc_vadc.o
 .text.XMC_VADC_GROUP_SetSyncSlaveReadySignal
                0x00000000       0x3c ./Libraries/XMCLib/src/xmc_vadc.o
 .text.XMC_VADC_GROUP_EnableChannelSyncRequest
                0x00000000       0x40 ./Libraries/XMCLib/src/xmc_vadc.o
 .text.XMC_VADC_GROUP_DisableChannelSyncRequest
                0x00000000       0x40 ./Libraries/XMCLib/src/xmc_vadc.o
 .text.XMC_VADC_GROUP_IsConverterBusy
                0x00000000       0x30 ./Libraries/XMCLib/src/xmc_vadc.o
 .text.XMC_VADC_GROUP_SetBoundaries
                0x00000000       0x50 ./Libraries/XMCLib/src/xmc_vadc.o
 .text.XMC_VADC_GROUP_SetIndividualBoundary
                0x00000000       0x64 ./Libraries/XMCLib/src/xmc_vadc.o
 .text.XMC_VADC_GROUP_TriggerServiceRequest
                0x00000000       0x50 ./Libraries/XMCLib/src/xmc_vadc.o
 .text.XMC_VADC_GROUP_SetBoundaryEventInterruptNode
                0x00000000       0x50 ./Libraries/XMCLib/src/xmc_vadc.o
 .text.XMC_VADC_GROUP_ScanInit
                0x00000000       0x9c ./Libraries/XMCLib/src/xmc_vadc.o
 .text.XMC_VADC_GROUP_ScanSelectTrigger
                0x00000000       0x40 ./Libraries/XMCLib/src/xmc_vadc.o
 .text.XMC_VADC_GROUP_ScanSelectTriggerEdge
                0x00000000       0x40 ./Libraries/XMCLib/src/xmc_vadc.o
 .text.XMC_VADC_GROUP_ScanSelectGating
                0x00000000       0x40 ./Libraries/XMCLib/src/xmc_vadc.o
 .text.XMC_VADC_GROUP_ScanSequenceAbort
                0x00000000       0x80 ./Libraries/XMCLib/src/xmc_vadc.o
 .text.XMC_VADC_GROUP_ScanGetNumChannelsPending
                0x00000000       0x54 ./Libraries/XMCLib/src/xmc_vadc.o
 .text.XMC_VADC_GROUP_ScanSetReqSrcEventInterruptNode
                0x00000000       0x38 ./Libraries/XMCLib/src/xmc_vadc.o
 .text.XMC_VADC_GROUP_ScanRemoveChannel
                0x00000000       0x38 ./Libraries/XMCLib/src/xmc_vadc.o
 .text.XMC_VADC_GLOBAL_BackgroundInit
                0x00000000       0xfc ./Libraries/XMCLib/src/xmc_vadc.o
 .text.XMC_VADC_GLOBAL_BackgroundSelectTrigger
                0x00000000       0x40 ./Libraries/XMCLib/src/xmc_vadc.o
 .text.XMC_VADC_GLOBAL_BackgroundSelectTriggerEdge
                0x00000000       0x40 ./Libraries/XMCLib/src/xmc_vadc.o
 .text.XMC_VADC_GLOBAL_BackgroundSelectGating
                0x00000000       0x40 ./Libraries/XMCLib/src/xmc_vadc.o
 .text.XMC_VADC_GLOBAL_BackgroundAbortSequence
                0x00000000       0xb0 ./Libraries/XMCLib/src/xmc_vadc.o
 .text.XMC_VADC_GLOBAL_BackgroundGetNumChannelsPending
                0x00000000       0x70 ./Libraries/XMCLib/src/xmc_vadc.o
 .text.XMC_VADC_GROUP_QueueInit
                0x00000000       0x9c ./Libraries/XMCLib/src/xmc_vadc.o
 .text.XMC_VADC_GROUP_QueueSelectTrigger
                0x00000000       0x40 ./Libraries/XMCLib/src/xmc_vadc.o
 .text.XMC_VADC_GROUP_QueueSelectTriggerEdge
                0x00000000       0x40 ./Libraries/XMCLib/src/xmc_vadc.o
 .text.XMC_VADC_GROUP_QueueSelectGating
                0x00000000       0x40 ./Libraries/XMCLib/src/xmc_vadc.o
 .text.XMC_VADC_GROUP_QueueGetLength
                0x00000000       0x50 ./Libraries/XMCLib/src/xmc_vadc.o
 .text.XMC_VADC_GROUP_QueueAbortSequence
                0x00000000       0x68 ./Libraries/XMCLib/src/xmc_vadc.o
 .text.XMC_VADC_GROUP_QueueRemoveChannel
                0x00000000       0x98 ./Libraries/XMCLib/src/xmc_vadc.o
 .text.XMC_VADC_GROUP_QueueGetNextChannel
                0x00000000       0x54 ./Libraries/XMCLib/src/xmc_vadc.o
 .text.XMC_VADC_GROUP_QueueGetInterruptedChannel
                0x00000000       0x38 ./Libraries/XMCLib/src/xmc_vadc.o
 .text.XMC_VADC_GROUP_QueueSetReqSrcEventInterruptNode
                0x00000000       0x38 ./Libraries/XMCLib/src/xmc_vadc.o
 .text.XMC_VADC_GROUP_ChannelInit
                0x00000000       0xdc ./Libraries/XMCLib/src/xmc_vadc.o
 .text.XMC_VADC_GROUP_SetChannelAlias
                0x00000000       0x58 ./Libraries/XMCLib/src/xmc_vadc.o
 .text.XMC_VADC_GROUP_ChannelIsResultOutOfBounds
                0x00000000       0x60 ./Libraries/XMCLib/src/xmc_vadc.o
 .text.XMC_VADC_GROUP_ChannelSetInputReference
                0x00000000       0x44 ./Libraries/XMCLib/src/xmc_vadc.o
 .text.XMC_VADC_GROUP_ChannelSetResultRegister
                0x00000000       0x40 ./Libraries/XMCLib/src/xmc_vadc.o
 .text.XMC_VADC_GROUP_ChannelSetIclass
                0x00000000       0x40 ./Libraries/XMCLib/src/xmc_vadc.o
 .text.XMC_VADC_GROUP_ChannelGetResultRegister
                0x00000000       0x2c ./Libraries/XMCLib/src/xmc_vadc.o
 .text.XMC_VADC_GROUP_ChannelTriggerEvent
                0x00000000       0x34 ./Libraries/XMCLib/src/xmc_vadc.o
 .text.XMC_VADC_GROUP_ChannelSetEventInterruptNode
                0x00000000       0x48 ./Libraries/XMCLib/src/xmc_vadc.o
 .text.XMC_VADC_GROUP_ChannelTriggerEventGenCriteria
                0x00000000       0x44 ./Libraries/XMCLib/src/xmc_vadc.o
 .text.XMC_VADC_GROUP_ChannelSetBoundarySelection
                0x00000000       0x64 ./Libraries/XMCLib/src/xmc_vadc.o
 .text.XMC_VADC_GROUP_AddResultToFifo
                0x00000000       0x3c ./Libraries/XMCLib/src/xmc_vadc.o
 .text.XMC_VADC_GROUP_SetResultFastCompareValue
                0x00000000       0x44 ./Libraries/XMCLib/src/xmc_vadc.o
 .text.XMC_VADC_GROUP_GetFastCompareResult
                0x00000000       0x3c ./Libraries/XMCLib/src/xmc_vadc.o
 .text.XMC_VADC_GROUP_SetResultSubtractionValue
                0x00000000       0x38 ./Libraries/XMCLib/src/xmc_vadc.o
 .text.XMC_VADC_GROUP_SetResultInterruptNode
                0x00000000       0x90 ./Libraries/XMCLib/src/xmc_vadc.o
 .text.XMC_VADC_GROUP_GetResultFifoTail
                0x00000000       0x8c ./Libraries/XMCLib/src/xmc_vadc.o
 .text.XMC_VADC_GROUP_GetResultFifoHead
                0x00000000       0x60 ./Libraries/XMCLib/src/xmc_vadc.o
 .text.XMC_VADC_GROUP_IsResultRegisterFifoHead
                0x00000000       0x60 ./Libraries/XMCLib/src/xmc_vadc.o
 .debug_info    0x00000000     0x3137 ./Libraries/XMCLib/src/xmc_vadc.o
 .debug_abbrev  0x00000000      0x266 ./Libraries/XMCLib/src/xmc_vadc.o
 .debug_loc     0x00000000     0x1b24 ./Libraries/XMCLib/src/xmc_vadc.o
 .debug_aranges
                0x00000000      0x288 ./Libraries/XMCLib/src/xmc_vadc.o
 .debug_ranges  0x00000000      0x278 ./Libraries/XMCLib/src/xmc_vadc.o
 .debug_line    0x00000000      0xb0d ./Libraries/XMCLib/src/xmc_vadc.o
 .debug_str     0x00000000     0x2d49 ./Libraries/XMCLib/src/xmc_vadc.o
 .comment       0x00000000       0x71 ./Libraries/XMCLib/src/xmc_vadc.o
 .debug_frame   0x00000000      0xc28 ./Libraries/XMCLib/src/xmc_vadc.o
 .ARM.attributes
                0x00000000       0x37 ./Libraries/XMCLib/src/xmc_vadc.o
 .text          0x00000000        0x0 ./Libraries/XMCLib/src/xmc_wdt.o
 .data          0x00000000        0x0 ./Libraries/XMCLib/src/xmc_wdt.o
 .bss           0x00000000        0x0 ./Libraries/XMCLib/src/xmc_wdt.o
 .text.XMC_WDT_Enable
                0x00000000       0x1c ./Libraries/XMCLib/src/xmc_wdt.o
 .text.XMC_WDT_Disable
                0x00000000       0x1c ./Libraries/XMCLib/src/xmc_wdt.o
 .text.XMC_WDT_Init
                0x00000000       0x30 ./Libraries/XMCLib/src/xmc_wdt.o
 .debug_info    0x00000000      0x47e ./Libraries/XMCLib/src/xmc_wdt.o
 .debug_abbrev  0x00000000      0x16d ./Libraries/XMCLib/src/xmc_wdt.o
 .debug_loc     0x00000000       0xa8 ./Libraries/XMCLib/src/xmc_wdt.o
 .debug_aranges
                0x00000000       0x30 ./Libraries/XMCLib/src/xmc_wdt.o
 .debug_ranges  0x00000000       0x20 ./Libraries/XMCLib/src/xmc_wdt.o
 .debug_line    0x00000000      0x29e ./Libraries/XMCLib/src/xmc_wdt.o
 .debug_str     0x00000000      0xa16 ./Libraries/XMCLib/src/xmc_wdt.o
 .comment       0x00000000       0x71 ./Libraries/XMCLib/src/xmc_wdt.o
 .debug_frame   0x00000000       0x70 ./Libraries/XMCLib/src/xmc_wdt.o
 .ARM.attributes
                0x00000000       0x37 ./Libraries/XMCLib/src/xmc_wdt.o
 .text          0x00000000        0x0 ./Libraries/Newlib/syscalls.o
 .data          0x00000000        0x0 ./Libraries/Newlib/syscalls.o
 .bss           0x00000000        0x0 ./Libraries/Newlib/syscalls.o
 .bss.__dso_handle
                0x00000000        0x4 ./Libraries/Newlib/syscalls.o
 .comment       0x00000000       0x71 ./Libraries/Newlib/syscalls.o
 .text          0x00000000        0x0 ./Dave/Generated/TIMER/timer.o
 .data          0x00000000        0x0 ./Dave/Generated/TIMER/timer.o
 .bss           0x00000000        0x0 ./Dave/Generated/TIMER/timer.o
 .text.XMC_CCU4_SLICE_IsTimerRunning
                0x00000000       0x28 ./Dave/Generated/TIMER/timer.o
 .text.XMC_CCU4_SLICE_StopTimer
                0x00000000       0x18 ./Dave/Generated/TIMER/timer.o
 .text.XMC_CCU4_SLICE_GetTimerValue
                0x00000000       0x1c ./Dave/Generated/TIMER/timer.o
 .text.XMC_CCU4_SLICE_ClearEvent
                0x00000000       0x2c ./Dave/Generated/TIMER/timer.o
 .text.XMC_CCU4_SLICE_GetEvent
                0x00000000       0x34 ./Dave/Generated/TIMER/timer.o
 .text.TIMER_GetAppVersion
                0x00000000       0x44 ./Dave/Generated/TIMER/timer.o
 .text.TIMER_Stop
                0x00000000       0x48 ./Dave/Generated/TIMER/timer.o
 .text.TIMER_GetTimerStatus
                0x00000000       0x30 ./Dave/Generated/TIMER/timer.o
 .text.TIMER_SetTimeInterval
                0x00000000      0x128 ./Dave/Generated/TIMER/timer.o
 .text.TIMER_GetInterruptStatus
                0x00000000       0x30 ./Dave/Generated/TIMER/timer.o
 .text.TIMER_ClearEvent
                0x00000000       0x24 ./Dave/Generated/TIMER/timer.o
 .text.TIMER_GetTime
                0x00000000       0x88 ./Dave/Generated/TIMER/timer.o
 .text.TIMER_Clear
                0x00000000       0x3c ./Dave/Generated/TIMER/timer.o
 .comment       0x00000000       0x71 ./Dave/Generated/TIMER/timer.o
 .text          0x00000000        0x0 ./Dave/Generated/TIMER/timer_conf.o
 .data          0x00000000        0x0 ./Dave/Generated/TIMER/timer_conf.o
 .bss           0x00000000        0x0 ./Dave/Generated/TIMER/timer_conf.o
 .comment       0x00000000       0x71 ./Dave/Generated/TIMER/timer_conf.o
 .text          0x00000000        0x0 ./Dave/Generated/PWM_CCU8/pwm_ccu8.o
 .data          0x00000000        0x0 ./Dave/Generated/PWM_CCU8/pwm_ccu8.o
 .bss           0x00000000        0x0 ./Dave/Generated/PWM_CCU8/pwm_ccu8.o
 .text.XMC_CCU8_DisableClock
                0x00000000       0x28 ./Dave/Generated/PWM_CCU8/pwm_ccu8.o
 .text.XMC_CCU8_SLICE_IsTimerRunning
                0x00000000       0x28 ./Dave/Generated/PWM_CCU8/pwm_ccu8.o
 .text.XMC_CCU8_SLICE_StopTimer
                0x00000000       0x18 ./Dave/Generated/PWM_CCU8/pwm_ccu8.o
 .text.XMC_CCU8_SLICE_ClearTimer
                0x00000000       0x18 ./Dave/Generated/PWM_CCU8/pwm_ccu8.o
 .text.XMC_CCU8_SLICE_GetTimerPeriodMatch
                0x00000000       0x1c ./Dave/Generated/PWM_CCU8/pwm_ccu8.o
 .text.XMC_CCU8_SLICE_GetTimerValue
                0x00000000       0x1c ./Dave/Generated/PWM_CCU8/pwm_ccu8.o
 .text.XMC_CCU8_SLICE_ClearEvent
                0x00000000       0x2c ./Dave/Generated/PWM_CCU8/pwm_ccu8.o
 .text.XMC_CCU8_SLICE_GetEvent
                0x00000000       0x34 ./Dave/Generated/PWM_CCU8/pwm_ccu8.o
 .text.PWM_CCU8_GetAppVersion
                0x00000000       0x44 ./Dave/Generated/PWM_CCU8/pwm_ccu8.o
 .text.PWM_CCU8_Stop
                0x00000000       0x4c ./Dave/Generated/PWM_CCU8/pwm_ccu8.o
 .text.PWM_CCU8_GetTimerValue
                0x00000000       0x20 ./Dave/Generated/PWM_CCU8/pwm_ccu8.o
 .text.PWM_CCU8_GetTimerStatus
                0x00000000       0x20 ./Dave/Generated/PWM_CCU8/pwm_ccu8.o
 .text.PWM_CCU8_SetFreqSymmetric
                0x00000000      0x100 ./Dave/Generated/PWM_CCU8/pwm_ccu8.o
 .text.PWM_CCU8_SetDutyCycleSymmetric
                0x00000000       0x98 ./Dave/Generated/PWM_CCU8/pwm_ccu8.o
 .text.PWM_CCU8_SetFreqAndDutyCycleSymmetric
                0x00000000      0x10c ./Dave/Generated/PWM_CCU8/pwm_ccu8.o
 .text.PWM_CCU8_SetFreqAsymmetric
                0x00000000      0x18c ./Dave/Generated/PWM_CCU8/pwm_ccu8.o
 .text.PWM_CCU8_SetDutyCycleAsymmetric
                0x00000000      0x174 ./Dave/Generated/PWM_CCU8/pwm_ccu8.o
 .text.PWM_CCU8_SetFreqAndDutyCycleAsymmetric
                0x00000000      0x1c8 ./Dave/Generated/PWM_CCU8/pwm_ccu8.o
 .text.PWM_CCU8_SetDither
                0x00000000       0x40 ./Dave/Generated/PWM_CCU8/pwm_ccu8.o
 .text.PWM_CCU8_ClearTrap
                0x00000000       0x1c ./Dave/Generated/PWM_CCU8/pwm_ccu8.o
 .text.PWM_CCU8_SetDeadTime
                0x00000000       0x30 ./Dave/Generated/PWM_CCU8/pwm_ccu8.o
 .text.PWM_CCU8_GetInterruptStatus
                0x00000000       0x2c ./Dave/Generated/PWM_CCU8/pwm_ccu8.o
 .text.PWM_CCU8_ClearEvent
                0x00000000       0x20 ./Dave/Generated/PWM_CCU8/pwm_ccu8.o
 .comment       0x00000000       0x71 ./Dave/Generated/PWM_CCU8/pwm_ccu8.o
 .text          0x00000000        0x0 ./Dave/Generated/PWM_CCU8/pwm_ccu8_conf.o
 .data          0x00000000        0x0 ./Dave/Generated/PWM_CCU8/pwm_ccu8_conf.o
 .bss           0x00000000        0x0 ./Dave/Generated/PWM_CCU8/pwm_ccu8_conf.o
 .comment       0x00000000       0x71 ./Dave/Generated/PWM_CCU8/pwm_ccu8_conf.o
 .text          0x00000000        0x0 ./Dave/Generated/INTERRUPT/interrupt.o
 .data          0x00000000        0x0 ./Dave/Generated/INTERRUPT/interrupt.o
 .bss           0x00000000        0x0 ./Dave/Generated/INTERRUPT/interrupt.o
 .text.INTERRUPT_GetAppVersion
                0x00000000       0x44 ./Dave/Generated/INTERRUPT/interrupt.o
 .comment       0x00000000       0x71 ./Dave/Generated/INTERRUPT/interrupt.o
 .text          0x00000000        0x0 ./Dave/Generated/INTERRUPT/interrupt_conf.o
 .data          0x00000000        0x0 ./Dave/Generated/INTERRUPT/interrupt_conf.o
 .bss           0x00000000        0x0 ./Dave/Generated/INTERRUPT/interrupt_conf.o
 .comment       0x00000000       0x71 ./Dave/Generated/INTERRUPT/interrupt_conf.o
 .text          0x00000000        0x0 ./Dave/Generated/GLOBAL_CCU8/global_ccu8.o
 .data          0x00000000        0x0 ./Dave/Generated/GLOBAL_CCU8/global_ccu8.o
 .bss           0x00000000        0x0 ./Dave/Generated/GLOBAL_CCU8/global_ccu8.o
 .text.GLOBAL_CCU8_GetAppVersion
                0x00000000       0x44 ./Dave/Generated/GLOBAL_CCU8/global_ccu8.o
 .comment       0x00000000       0x71 ./Dave/Generated/GLOBAL_CCU8/global_ccu8.o
 .text          0x00000000        0x0 ./Dave/Generated/GLOBAL_CCU8/global_ccu8_conf.o
 .data          0x00000000        0x0 ./Dave/Generated/GLOBAL_CCU8/global_ccu8_conf.o
 .bss           0x00000000        0x0 ./Dave/Generated/GLOBAL_CCU8/global_ccu8_conf.o
 .comment       0x00000000       0x71 ./Dave/Generated/GLOBAL_CCU8/global_ccu8_conf.o
 .text          0x00000000        0x0 ./Dave/Generated/GLOBAL_CCU4/global_ccu4.o
 .data          0x00000000        0x0 ./Dave/Generated/GLOBAL_CCU4/global_ccu4.o
 .bss           0x00000000        0x0 ./Dave/Generated/GLOBAL_CCU4/global_ccu4.o
 .text.GLOBAL_CCU4_GetAppVersion
                0x00000000       0x44 ./Dave/Generated/GLOBAL_CCU4/global_ccu4.o
 .comment       0x00000000       0x71 ./Dave/Generated/GLOBAL_CCU4/global_ccu4.o
 .text          0x00000000        0x0 ./Dave/Generated/GLOBAL_CCU4/global_ccu4_conf.o
 .data          0x00000000        0x0 ./Dave/Generated/GLOBAL_CCU4/global_ccu4_conf.o
 .bss           0x00000000        0x0 ./Dave/Generated/GLOBAL_CCU4/global_ccu4_conf.o
 .comment       0x00000000       0x71 ./Dave/Generated/GLOBAL_CCU4/global_ccu4_conf.o
 .text          0x00000000        0x0 ./Dave/Generated/E_EEPROM_XMC4/e_eeprom_xmc4.o
 .data          0x00000000        0x0 ./Dave/Generated/E_EEPROM_XMC4/e_eeprom_xmc4.o
 .bss           0x00000000        0x0 ./Dave/Generated/E_EEPROM_XMC4/e_eeprom_xmc4.o
 .text.E_EEPROM_XMC4_GetAppVersion
                0x00000000       0x44 ./Dave/Generated/E_EEPROM_XMC4/e_eeprom_xmc4.o
 .text.E_EEPROM_XMC4_WriteByte
                0x00000000       0x30 ./Dave/Generated/E_EEPROM_XMC4/e_eeprom_xmc4.o
 .text.E_EEPROM_XMC4_ReadByte
                0x00000000       0x2c ./Dave/Generated/E_EEPROM_XMC4/e_eeprom_xmc4.o
 .comment       0x00000000       0x71 ./Dave/Generated/E_EEPROM_XMC4/e_eeprom_xmc4.o
 .text          0x00000000        0x0 ./Dave/Generated/E_EEPROM_XMC4/e_eeprom_xmc4_conf.o
 .data          0x00000000        0x0 ./Dave/Generated/E_EEPROM_XMC4/e_eeprom_xmc4_conf.o
 .bss           0x00000000        0x0 ./Dave/Generated/E_EEPROM_XMC4/e_eeprom_xmc4_conf.o
 .comment       0x00000000       0x71 ./Dave/Generated/E_EEPROM_XMC4/e_eeprom_xmc4_conf.o
 .text          0x00000000        0x0 ./Dave/Generated/EVENT_GENERATOR/event_generator.o
 .data          0x00000000        0x0 ./Dave/Generated/EVENT_GENERATOR/event_generator.o
 .bss           0x00000000        0x0 ./Dave/Generated/EVENT_GENERATOR/event_generator.o
 .text.EVENT_GENERATOR_GetAppVersion
                0x00000000       0x44 ./Dave/Generated/EVENT_GENERATOR/event_generator.o
 .comment       0x00000000       0x71 ./Dave/Generated/EVENT_GENERATOR/event_generator.o
 .text          0x00000000        0x0 ./Dave/Generated/EVENT_GENERATOR/event_generator_conf.o
 .data          0x00000000        0x0 ./Dave/Generated/EVENT_GENERATOR/event_generator_conf.o
 .bss           0x00000000        0x0 ./Dave/Generated/EVENT_GENERATOR/event_generator_conf.o
 .comment       0x00000000       0x71 ./Dave/Generated/EVENT_GENERATOR/event_generator_conf.o
 .text          0x00000000        0x0 ./Dave/Generated/EVENT_DETECTOR/event_detector.o
 .data          0x00000000        0x0 ./Dave/Generated/EVENT_DETECTOR/event_detector.o
 .bss           0x00000000        0x0 ./Dave/Generated/EVENT_DETECTOR/event_detector.o
 .text.EVENT_DETECTOR_GetAppVersion
                0x00000000       0x44 ./Dave/Generated/EVENT_DETECTOR/event_detector.o
 .comment       0x00000000       0x71 ./Dave/Generated/EVENT_DETECTOR/event_detector.o
 .text          0x00000000        0x0 ./Dave/Generated/EVENT_DETECTOR/event_detector_conf.o
 .data          0x00000000        0x0 ./Dave/Generated/EVENT_DETECTOR/event_detector_conf.o
 .bss           0x00000000        0x0 ./Dave/Generated/EVENT_DETECTOR/event_detector_conf.o
 .comment       0x00000000       0x71 ./Dave/Generated/EVENT_DETECTOR/event_detector_conf.o
 .text          0x00000000        0x0 ./Dave/Generated/ECAT_SSC/ecat_ssc.o
 .data          0x00000000        0x0 ./Dave/Generated/ECAT_SSC/ecat_ssc.o
 .bss           0x00000000        0x0 ./Dave/Generated/ECAT_SSC/ecat_ssc.o
 .text.ECAT_SSC_GetAppVersion
                0x00000000       0x44 ./Dave/Generated/ECAT_SSC/ecat_ssc.o
 .comment       0x00000000       0x71 ./Dave/Generated/ECAT_SSC/ecat_ssc.o
 .text          0x00000000        0x0 ./Dave/Generated/ECAT_SSC/ecat_ssc_conf.o
 .data          0x00000000        0x0 ./Dave/Generated/ECAT_SSC/ecat_ssc_conf.o
 .bss           0x00000000        0x0 ./Dave/Generated/ECAT_SSC/ecat_ssc_conf.o
 .comment       0x00000000       0x71 ./Dave/Generated/ECAT_SSC/ecat_ssc_conf.o
 .text          0x00000000        0x0 ./Dave/Generated/ECAT_SSC/xmc_eschw.o
 .data          0x00000000        0x0 ./Dave/Generated/ECAT_SSC/xmc_eschw.o
 .bss           0x00000000        0x0 ./Dave/Generated/ECAT_SSC/xmc_eschw.o
 .text.HW_Release
                0x00000000        0xc ./Dave/Generated/ECAT_SSC/xmc_eschw.o
 .text.HW_RestartTarget
                0x00000000        0xc ./Dave/Generated/ECAT_SSC/xmc_eschw.o
 .comment       0x00000000       0x71 ./Dave/Generated/ECAT_SSC/xmc_eschw.o
 .text          0x00000000        0x0 ./Dave/Generated/CPU_CTRL_XMC4/cpu_ctrl_xmc4.o
 .data          0x00000000        0x0 ./Dave/Generated/CPU_CTRL_XMC4/cpu_ctrl_xmc4.o
 .bss           0x00000000        0x0 ./Dave/Generated/CPU_CTRL_XMC4/cpu_ctrl_xmc4.o
 .text.CPU_CTRL_XMC4_GetAppVersion
                0x00000000       0x44 ./Dave/Generated/CPU_CTRL_XMC4/cpu_ctrl_xmc4.o
 .text.CPU_CTRL_XMC4_Init
                0x00000000       0x18 ./Dave/Generated/CPU_CTRL_XMC4/cpu_ctrl_xmc4.o
 .text.CPU_CTRL_XMC4_MPU_Enable
                0x00000000       0x28 ./Dave/Generated/CPU_CTRL_XMC4/cpu_ctrl_xmc4.o
 .text.CPU_CTRL_XMC4_MPU_Disable
                0x00000000       0x1c ./Dave/Generated/CPU_CTRL_XMC4/cpu_ctrl_xmc4.o
 .debug_info    0x00000000      0x31f ./Dave/Generated/CPU_CTRL_XMC4/cpu_ctrl_xmc4.o
 .debug_abbrev  0x00000000      0x141 ./Dave/Generated/CPU_CTRL_XMC4/cpu_ctrl_xmc4.o
 .debug_loc     0x00000000      0x158 ./Dave/Generated/CPU_CTRL_XMC4/cpu_ctrl_xmc4.o
 .debug_aranges
                0x00000000       0x38 ./Dave/Generated/CPU_CTRL_XMC4/cpu_ctrl_xmc4.o
 .debug_ranges  0x00000000       0x28 ./Dave/Generated/CPU_CTRL_XMC4/cpu_ctrl_xmc4.o
 .debug_line    0x00000000      0x253 ./Dave/Generated/CPU_CTRL_XMC4/cpu_ctrl_xmc4.o
 .debug_str     0x00000000      0x3ce ./Dave/Generated/CPU_CTRL_XMC4/cpu_ctrl_xmc4.o
 .comment       0x00000000       0x71 ./Dave/Generated/CPU_CTRL_XMC4/cpu_ctrl_xmc4.o
 .debug_frame   0x00000000       0xac ./Dave/Generated/CPU_CTRL_XMC4/cpu_ctrl_xmc4.o
 .ARM.attributes
                0x00000000       0x37 ./Dave/Generated/CPU_CTRL_XMC4/cpu_ctrl_xmc4.o
 .text          0x00000000        0x0 ./Dave/Generated/CPU_CTRL_XMC4/cpu_ctrl_xmc4_conf.o
 .data          0x00000000        0x0 ./Dave/Generated/CPU_CTRL_XMC4/cpu_ctrl_xmc4_conf.o
 .bss           0x00000000        0x0 ./Dave/Generated/CPU_CTRL_XMC4/cpu_ctrl_xmc4_conf.o
 .bss.CPU_CTRL_XMC4_0
                0x00000000        0x4 ./Dave/Generated/CPU_CTRL_XMC4/cpu_ctrl_xmc4_conf.o
 .comment       0x00000000       0x71 ./Dave/Generated/CPU_CTRL_XMC4/cpu_ctrl_xmc4_conf.o
 .text          0x00000000        0x0 ./Dave/Generated/CLOCK_XMC4/clock_xmc4.o
 .data          0x00000000        0x0 ./Dave/Generated/CLOCK_XMC4/clock_xmc4.o
 .bss           0x00000000        0x0 ./Dave/Generated/CLOCK_XMC4/clock_xmc4.o
 .text.CLOCK_XMC4_GetAppVersion
                0x00000000       0x44 ./Dave/Generated/CLOCK_XMC4/clock_xmc4.o
 .text.CLOCK_XMC4_StepSystemPllFrequency
                0x00000000       0x14 ./Dave/Generated/CLOCK_XMC4/clock_xmc4.o
 .comment       0x00000000       0x71 ./Dave/Generated/CLOCK_XMC4/clock_xmc4.o
 .text          0x00000000        0x0 ./Dave/Generated/CLOCK_XMC4/clock_xmc4_conf.o
 .data          0x00000000        0x0 ./Dave/Generated/CLOCK_XMC4/clock_xmc4_conf.o
 .bss           0x00000000        0x0 ./Dave/Generated/CLOCK_XMC4/clock_xmc4_conf.o
 .comment       0x00000000       0x71 ./Dave/Generated/CLOCK_XMC4/clock_xmc4_conf.o
 .text          0x00000000        0x0 ./Dave/Generated/DAVE.o
 .data          0x00000000        0x0 ./Dave/Generated/DAVE.o
 .bss           0x00000000        0x0 ./Dave/Generated/DAVE.o
 .comment       0x00000000       0x71 ./Dave/Generated/DAVE.o
 .text          0x00000000        0x0 ./firmwareupdate_SSC.o
 .data          0x00000000        0x0 ./firmwareupdate_SSC.o
 .bss           0x00000000        0x0 ./firmwareupdate_SSC.o
 .comment       0x00000000       0x71 ./firmwareupdate_SSC.o
 .text          0x00000000        0x0 ./flashprog.o
 .data          0x00000000        0x0 ./flashprog.o
 .bss           0x00000000        0x0 ./flashprog.o
 .text.Flash_lGetPhysicalSectorAddress
                0x00000000       0x24 ./flashprog.o
 .text.Flash_lCheckPhysicalSectorNumberInRange
                0x00000000       0x94 ./flashprog.o
 .text.FLASHPROG_Delete_physical_sector
                0x00000000       0x14 ./flashprog.o
 .text.FLASHPROG_Delete_physical_sectors
                0x00000000       0x44 ./flashprog.o
 .comment       0x00000000       0x71 ./flashprog.o
 .text          0x00000000        0x0 ./main.o
 .data          0x00000000        0x0 ./main.o
 .bss           0x00000000        0x0 ./main.o
 .comment       0x00000000       0x71 ./main.o
 .text          0x00000000       0x2c c:/davev4-64bit/dave-4.3.2/eclipse/arm-gcc-49/bin/../lib/gcc/arm-none-eabi/4.9.3/armv7e-m/softfp\libgcc.a(_aeabi_uldivmod.o)
 .data          0x00000000        0x0 c:/davev4-64bit/dave-4.3.2/eclipse/arm-gcc-49/bin/../lib/gcc/arm-none-eabi/4.9.3/armv7e-m/softfp\libgcc.a(_aeabi_uldivmod.o)
 .bss           0x00000000        0x0 c:/davev4-64bit/dave-4.3.2/eclipse/arm-gcc-49/bin/../lib/gcc/arm-none-eabi/4.9.3/armv7e-m/softfp\libgcc.a(_aeabi_uldivmod.o)
 .debug_frame   0x00000000       0x28 c:/davev4-64bit/dave-4.3.2/eclipse/arm-gcc-49/bin/../lib/gcc/arm-none-eabi/4.9.3/armv7e-m/softfp\libgcc.a(_aeabi_uldivmod.o)
 .ARM.attributes
                0x00000000       0x22 c:/davev4-64bit/dave-4.3.2/eclipse/arm-gcc-49/bin/../lib/gcc/arm-none-eabi/4.9.3/armv7e-m/softfp\libgcc.a(_aeabi_uldivmod.o)
 .text          0x00000000       0x60 c:/davev4-64bit/dave-4.3.2/eclipse/arm-gcc-49/bin/../lib/gcc/arm-none-eabi/4.9.3/armv7e-m/softfp\libgcc.a(bpabi.o)
 .data          0x00000000        0x0 c:/davev4-64bit/dave-4.3.2/eclipse/arm-gcc-49/bin/../lib/gcc/arm-none-eabi/4.9.3/armv7e-m/softfp\libgcc.a(bpabi.o)
 .bss           0x00000000        0x0 c:/davev4-64bit/dave-4.3.2/eclipse/arm-gcc-49/bin/../lib/gcc/arm-none-eabi/4.9.3/armv7e-m/softfp\libgcc.a(bpabi.o)
 .debug_frame   0x00000000       0x50 c:/davev4-64bit/dave-4.3.2/eclipse/arm-gcc-49/bin/../lib/gcc/arm-none-eabi/4.9.3/armv7e-m/softfp\libgcc.a(bpabi.o)
 .ARM.attributes
                0x00000000       0x32 c:/davev4-64bit/dave-4.3.2/eclipse/arm-gcc-49/bin/../lib/gcc/arm-none-eabi/4.9.3/armv7e-m/softfp\libgcc.a(bpabi.o)
 .text          0x00000000        0x4 c:/davev4-64bit/dave-4.3.2/eclipse/arm-gcc-49/bin/../lib/gcc/arm-none-eabi/4.9.3/armv7e-m/softfp\libgcc.a(_dvmd_tls.o)
 .data          0x00000000        0x0 c:/davev4-64bit/dave-4.3.2/eclipse/arm-gcc-49/bin/../lib/gcc/arm-none-eabi/4.9.3/armv7e-m/softfp\libgcc.a(_dvmd_tls.o)
 .bss           0x00000000        0x0 c:/davev4-64bit/dave-4.3.2/eclipse/arm-gcc-49/bin/../lib/gcc/arm-none-eabi/4.9.3/armv7e-m/softfp\libgcc.a(_dvmd_tls.o)
 .ARM.attributes
                0x00000000       0x22 c:/davev4-64bit/dave-4.3.2/eclipse/arm-gcc-49/bin/../lib/gcc/arm-none-eabi/4.9.3/armv7e-m/softfp\libgcc.a(_dvmd_tls.o)
 .text          0x00000000      0x29c c:/davev4-64bit/dave-4.3.2/eclipse/arm-gcc-49/bin/../lib/gcc/arm-none-eabi/4.9.3/armv7e-m/softfp\libgcc.a(_divdi3.o)
 .data          0x00000000        0x0 c:/davev4-64bit/dave-4.3.2/eclipse/arm-gcc-49/bin/../lib/gcc/arm-none-eabi/4.9.3/armv7e-m/softfp\libgcc.a(_divdi3.o)
 .bss           0x00000000        0x0 c:/davev4-64bit/dave-4.3.2/eclipse/arm-gcc-49/bin/../lib/gcc/arm-none-eabi/4.9.3/armv7e-m/softfp\libgcc.a(_divdi3.o)
 .ARM.extab     0x00000000        0x0 c:/davev4-64bit/dave-4.3.2/eclipse/arm-gcc-49/bin/../lib/gcc/arm-none-eabi/4.9.3/armv7e-m/softfp\libgcc.a(_divdi3.o)
 .ARM.exidx     0x00000000        0x8 c:/davev4-64bit/dave-4.3.2/eclipse/arm-gcc-49/bin/../lib/gcc/arm-none-eabi/4.9.3/armv7e-m/softfp\libgcc.a(_divdi3.o)
 .debug_frame   0x00000000       0x34 c:/davev4-64bit/dave-4.3.2/eclipse/arm-gcc-49/bin/../lib/gcc/arm-none-eabi/4.9.3/armv7e-m/softfp\libgcc.a(_divdi3.o)
 .ARM.attributes
                0x00000000       0x32 c:/davev4-64bit/dave-4.3.2/eclipse/arm-gcc-49/bin/../lib/gcc/arm-none-eabi/4.9.3/armv7e-m/softfp\libgcc.a(_divdi3.o)
 .text          0x00000000      0x26c c:/davev4-64bit/dave-4.3.2/eclipse/arm-gcc-49/bin/../lib/gcc/arm-none-eabi/4.9.3/armv7e-m/softfp\libgcc.a(_udivdi3.o)
 .data          0x00000000        0x0 c:/davev4-64bit/dave-4.3.2/eclipse/arm-gcc-49/bin/../lib/gcc/arm-none-eabi/4.9.3/armv7e-m/softfp\libgcc.a(_udivdi3.o)
 .bss           0x00000000        0x0 c:/davev4-64bit/dave-4.3.2/eclipse/arm-gcc-49/bin/../lib/gcc/arm-none-eabi/4.9.3/armv7e-m/softfp\libgcc.a(_udivdi3.o)
 .ARM.extab     0x00000000        0x0 c:/davev4-64bit/dave-4.3.2/eclipse/arm-gcc-49/bin/../lib/gcc/arm-none-eabi/4.9.3/armv7e-m/softfp\libgcc.a(_udivdi3.o)
 .ARM.exidx     0x00000000        0x8 c:/davev4-64bit/dave-4.3.2/eclipse/arm-gcc-49/bin/../lib/gcc/arm-none-eabi/4.9.3/armv7e-m/softfp\libgcc.a(_udivdi3.o)
 .debug_frame   0x00000000       0x30 c:/davev4-64bit/dave-4.3.2/eclipse/arm-gcc-49/bin/../lib/gcc/arm-none-eabi/4.9.3/armv7e-m/softfp\libgcc.a(_udivdi3.o)
 .ARM.attributes
                0x00000000       0x32 c:/davev4-64bit/dave-4.3.2/eclipse/arm-gcc-49/bin/../lib/gcc/arm-none-eabi/4.9.3/armv7e-m/softfp\libgcc.a(_udivdi3.o)
 .text          0x00000000        0x0 c:/davev4-64bit/dave-4.3.2/eclipse/arm-gcc-49/bin/../lib/gcc/arm-none-eabi/4.9.3/../../../../arm-none-eabi/lib/armv7e-m/softfp\libg_nano.a(lib_a-errno.o)
 .data          0x00000000        0x0 c:/davev4-64bit/dave-4.3.2/eclipse/arm-gcc-49/bin/../lib/gcc/arm-none-eabi/4.9.3/../../../../arm-none-eabi/lib/armv7e-m/softfp\libg_nano.a(lib_a-errno.o)
 .bss           0x00000000        0x0 c:/davev4-64bit/dave-4.3.2/eclipse/arm-gcc-49/bin/../lib/gcc/arm-none-eabi/4.9.3/../../../../arm-none-eabi/lib/armv7e-m/softfp\libg_nano.a(lib_a-errno.o)
 .text          0x00000000        0x0 c:/davev4-64bit/dave-4.3.2/eclipse/arm-gcc-49/bin/../lib/gcc/arm-none-eabi/4.9.3/../../../../arm-none-eabi/lib/armv7e-m/softfp\libg_nano.a(lib_a-impure.o)
 .data          0x00000000        0x0 c:/davev4-64bit/dave-4.3.2/eclipse/arm-gcc-49/bin/../lib/gcc/arm-none-eabi/4.9.3/../../../../arm-none-eabi/lib/armv7e-m/softfp\libg_nano.a(lib_a-impure.o)
 .bss           0x00000000        0x0 c:/davev4-64bit/dave-4.3.2/eclipse/arm-gcc-49/bin/../lib/gcc/arm-none-eabi/4.9.3/../../../../arm-none-eabi/lib/armv7e-m/softfp\libg_nano.a(lib_a-impure.o)
 .rodata._global_impure_ptr
                0x00000000        0x4 c:/davev4-64bit/dave-4.3.2/eclipse/arm-gcc-49/bin/../lib/gcc/arm-none-eabi/4.9.3/../../../../arm-none-eabi/lib/armv7e-m/softfp\libg_nano.a(lib_a-impure.o)
 .text          0x00000000        0x0 c:/davev4-64bit/dave-4.3.2/eclipse/arm-gcc-49/bin/../lib/gcc/arm-none-eabi/4.9.3/../../../../arm-none-eabi/lib/armv7e-m/softfp\libg_nano.a(lib_a-init.o)
 .data          0x00000000        0x0 c:/davev4-64bit/dave-4.3.2/eclipse/arm-gcc-49/bin/../lib/gcc/arm-none-eabi/4.9.3/../../../../arm-none-eabi/lib/armv7e-m/softfp\libg_nano.a(lib_a-init.o)
 .bss           0x00000000        0x0 c:/davev4-64bit/dave-4.3.2/eclipse/arm-gcc-49/bin/../lib/gcc/arm-none-eabi/4.9.3/../../../../arm-none-eabi/lib/armv7e-m/softfp\libg_nano.a(lib_a-init.o)
 .text          0x00000000        0x0 c:/davev4-64bit/dave-4.3.2/eclipse/arm-gcc-49/bin/../lib/gcc/arm-none-eabi/4.9.3/../../../../arm-none-eabi/lib/armv7e-m/softfp\libg_nano.a(lib_a-malloc.o)
 .data          0x00000000        0x0 c:/davev4-64bit/dave-4.3.2/eclipse/arm-gcc-49/bin/../lib/gcc/arm-none-eabi/4.9.3/../../../../arm-none-eabi/lib/armv7e-m/softfp\libg_nano.a(lib_a-malloc.o)
 .bss           0x00000000        0x0 c:/davev4-64bit/dave-4.3.2/eclipse/arm-gcc-49/bin/../lib/gcc/arm-none-eabi/4.9.3/../../../../arm-none-eabi/lib/armv7e-m/softfp\libg_nano.a(lib_a-malloc.o)
 .text          0x00000000        0x0 c:/davev4-64bit/dave-4.3.2/eclipse/arm-gcc-49/bin/../lib/gcc/arm-none-eabi/4.9.3/../../../../arm-none-eabi/lib/armv7e-m/softfp\libg_nano.a(lib_a-memcpy.o)
 .data          0x00000000        0x0 c:/davev4-64bit/dave-4.3.2/eclipse/arm-gcc-49/bin/../lib/gcc/arm-none-eabi/4.9.3/../../../../arm-none-eabi/lib/armv7e-m/softfp\libg_nano.a(lib_a-memcpy.o)
 .bss           0x00000000        0x0 c:/davev4-64bit/dave-4.3.2/eclipse/arm-gcc-49/bin/../lib/gcc/arm-none-eabi/4.9.3/../../../../arm-none-eabi/lib/armv7e-m/softfp\libg_nano.a(lib_a-memcpy.o)
 .text          0x00000000        0x0 c:/davev4-64bit/dave-4.3.2/eclipse/arm-gcc-49/bin/../lib/gcc/arm-none-eabi/4.9.3/../../../../arm-none-eabi/lib/armv7e-m/softfp\libg_nano.a(lib_a-memset.o)
 .data          0x00000000        0x0 c:/davev4-64bit/dave-4.3.2/eclipse/arm-gcc-49/bin/../lib/gcc/arm-none-eabi/4.9.3/../../../../arm-none-eabi/lib/armv7e-m/softfp\libg_nano.a(lib_a-memset.o)
 .bss           0x00000000        0x0 c:/davev4-64bit/dave-4.3.2/eclipse/arm-gcc-49/bin/../lib/gcc/arm-none-eabi/4.9.3/../../../../arm-none-eabi/lib/armv7e-m/softfp\libg_nano.a(lib_a-memset.o)
 .text          0x00000000        0x0 c:/davev4-64bit/dave-4.3.2/eclipse/arm-gcc-49/bin/../lib/gcc/arm-none-eabi/4.9.3/../../../../arm-none-eabi/lib/armv7e-m/softfp\libg_nano.a(lib_a-nano-freer.o)
 .data          0x00000000        0x0 c:/davev4-64bit/dave-4.3.2/eclipse/arm-gcc-49/bin/../lib/gcc/arm-none-eabi/4.9.3/../../../../arm-none-eabi/lib/armv7e-m/softfp\libg_nano.a(lib_a-nano-freer.o)
 .bss           0x00000000        0x0 c:/davev4-64bit/dave-4.3.2/eclipse/arm-gcc-49/bin/../lib/gcc/arm-none-eabi/4.9.3/../../../../arm-none-eabi/lib/armv7e-m/softfp\libg_nano.a(lib_a-nano-freer.o)
 .text          0x00000000        0x0 c:/davev4-64bit/dave-4.3.2/eclipse/arm-gcc-49/bin/../lib/gcc/arm-none-eabi/4.9.3/../../../../arm-none-eabi/lib/armv7e-m/softfp\libg_nano.a(lib_a-nano-mallocr.o)
 .data          0x00000000        0x0 c:/davev4-64bit/dave-4.3.2/eclipse/arm-gcc-49/bin/../lib/gcc/arm-none-eabi/4.9.3/../../../../arm-none-eabi/lib/armv7e-m/softfp\libg_nano.a(lib_a-nano-mallocr.o)
 .bss           0x00000000        0x0 c:/davev4-64bit/dave-4.3.2/eclipse/arm-gcc-49/bin/../lib/gcc/arm-none-eabi/4.9.3/../../../../arm-none-eabi/lib/armv7e-m/softfp\libg_nano.a(lib_a-nano-mallocr.o)
 .text          0x00000000        0x0 c:/davev4-64bit/dave-4.3.2/eclipse/arm-gcc-49/bin/../lib/gcc/arm-none-eabi/4.9.3/../../../../arm-none-eabi/lib/armv7e-m/softfp\libg_nano.a(lib_a-sbrkr.o)
 .data          0x00000000        0x0 c:/davev4-64bit/dave-4.3.2/eclipse/arm-gcc-49/bin/../lib/gcc/arm-none-eabi/4.9.3/../../../../arm-none-eabi/lib/armv7e-m/softfp\libg_nano.a(lib_a-sbrkr.o)
 .bss           0x00000000        0x0 c:/davev4-64bit/dave-4.3.2/eclipse/arm-gcc-49/bin/../lib/gcc/arm-none-eabi/4.9.3/../../../../arm-none-eabi/lib/armv7e-m/softfp\libg_nano.a(lib_a-sbrkr.o)
 .text          0x00000000        0x0 c:/davev4-64bit/dave-4.3.2/eclipse/arm-gcc-49/bin/../lib/gcc/arm-none-eabi/4.9.3/../../../../arm-none-eabi/lib/armv7e-m/softfp\libg_nano.a(lib_a-strlen.o)
 .data          0x00000000        0x0 c:/davev4-64bit/dave-4.3.2/eclipse/arm-gcc-49/bin/../lib/gcc/arm-none-eabi/4.9.3/../../../../arm-none-eabi/lib/armv7e-m/softfp\libg_nano.a(lib_a-strlen.o)
 .bss           0x00000000        0x0 c:/davev4-64bit/dave-4.3.2/eclipse/arm-gcc-49/bin/../lib/gcc/arm-none-eabi/4.9.3/../../../../arm-none-eabi/lib/armv7e-m/softfp\libg_nano.a(lib_a-strlen.o)
 .text          0x00000000        0x0 c:/davev4-64bit/dave-4.3.2/eclipse/arm-gcc-49/bin/../lib/gcc/arm-none-eabi/4.9.3/../../../../arm-none-eabi/lib/armv7e-m/softfp\libg_nano.a(lib_a-reent.o)
 .data          0x00000000        0x0 c:/davev4-64bit/dave-4.3.2/eclipse/arm-gcc-49/bin/../lib/gcc/arm-none-eabi/4.9.3/../../../../arm-none-eabi/lib/armv7e-m/softfp\libg_nano.a(lib_a-reent.o)
 .bss           0x00000000        0x0 c:/davev4-64bit/dave-4.3.2/eclipse/arm-gcc-49/bin/../lib/gcc/arm-none-eabi/4.9.3/../../../../arm-none-eabi/lib/armv7e-m/softfp\libg_nano.a(lib_a-reent.o)
 .text.cleanup_glue
                0x00000000       0x1a c:/davev4-64bit/dave-4.3.2/eclipse/arm-gcc-49/bin/../lib/gcc/arm-none-eabi/4.9.3/../../../../arm-none-eabi/lib/armv7e-m/softfp\libg_nano.a(lib_a-reent.o)
 .text._reclaim_reent
                0x00000000       0xb4 c:/davev4-64bit/dave-4.3.2/eclipse/arm-gcc-49/bin/../lib/gcc/arm-none-eabi/4.9.3/../../../../arm-none-eabi/lib/armv7e-m/softfp\libg_nano.a(lib_a-reent.o)

Memory Configuration

Name             Origin             Length             Attributes
FLASH_0_cached   0x08000000         0x00010000         xr
FLASH_0_uncached 0x0c000000         0x00010000         xr
FLASH_1_cached   0x08020000         0x001e0000         xr
FLASH_1_uncached 0x0c020000         0x001e0000         xr
PSRAM_1          0x1ffe8000         0x00018000         !xr
DSRAM_1_system   0x20000000         0x00020000         !xr
DSRAM_2_comm     0x20020000         0x00020000         !xr
SRAM_combined    0x1ffe8000         0x00058000         !xr
*default*        0x00000000         0xffffffff

Linker script and memory map

LOAD ./Startup/startup_XMC4800.o
LOAD ./Startup/system_XMC4800.o
LOAD ./SSC/Src/XMC_ESC.o
LOAD ./SSC/Src/bootmode.o
LOAD ./SSC/Src/coeappl.o
LOAD ./SSC/Src/ecatappl.o
LOAD ./SSC/Src/ecatcoe.o
LOAD ./SSC/Src/ecatfoe.o
LOAD ./SSC/Src/ecatslv.o
LOAD ./SSC/Src/foeappl.o
LOAD ./SSC/Src/mailbox.o
LOAD ./SSC/Src/objdef.o
LOAD ./SSC/Src/sdoserv.o
LOAD ./Libraries/XMCLib/src/xmc4_eru.o
LOAD ./Libraries/XMCLib/src/xmc4_flash.o
LOAD ./Libraries/XMCLib/src/xmc4_gpio.o
LOAD ./Libraries/XMCLib/src/xmc4_rtc.o
LOAD ./Libraries/XMCLib/src/xmc4_scu.o
LOAD ./Libraries/XMCLib/src/xmc_can.o
LOAD ./Libraries/XMCLib/src/xmc_ccu4.o
LOAD ./Libraries/XMCLib/src/xmc_ccu8.o
LOAD ./Libraries/XMCLib/src/xmc_common.o
LOAD ./Libraries/XMCLib/src/xmc_dac.o
LOAD ./Libraries/XMCLib/src/xmc_dma.o
LOAD ./Libraries/XMCLib/src/xmc_dsd.o
LOAD ./Libraries/XMCLib/src/xmc_ebu.o
LOAD ./Libraries/XMCLib/src/xmc_ecat.o
LOAD ./Libraries/XMCLib/src/xmc_eru.o
LOAD ./Libraries/XMCLib/src/xmc_eth_mac.o
LOAD ./Libraries/XMCLib/src/xmc_fce.o
LOAD ./Libraries/XMCLib/src/xmc_gpio.o
LOAD ./Libraries/XMCLib/src/xmc_hrpwm.o
LOAD ./Libraries/XMCLib/src/xmc_i2c.o
LOAD ./Libraries/XMCLib/src/xmc_i2s.o
LOAD ./Libraries/XMCLib/src/xmc_ledts.o
LOAD ./Libraries/XMCLib/src/xmc_posif.o
LOAD ./Libraries/XMCLib/src/xmc_rtc.o
LOAD ./Libraries/XMCLib/src/xmc_sdmmc.o
LOAD ./Libraries/XMCLib/src/xmc_spi.o
LOAD ./Libraries/XMCLib/src/xmc_uart.o
LOAD ./Libraries/XMCLib/src/xmc_usbd.o
LOAD ./Libraries/XMCLib/src/xmc_usbh.o
LOAD ./Libraries/XMCLib/src/xmc_usic.o
LOAD ./Libraries/XMCLib/src/xmc_vadc.o
LOAD ./Libraries/XMCLib/src/xmc_wdt.o
LOAD ./Libraries/Newlib/syscalls.o
LOAD ./Dave/Generated/TIMER/timer.o
LOAD ./Dave/Generated/TIMER/timer_conf.o
LOAD ./Dave/Generated/PWM_CCU8/pwm_ccu8.o
LOAD ./Dave/Generated/PWM_CCU8/pwm_ccu8_conf.o
LOAD ./Dave/Generated/INTERRUPT/interrupt.o
LOAD ./Dave/Generated/INTERRUPT/interrupt_conf.o
LOAD ./Dave/Generated/GLOBAL_CCU8/global_ccu8.o
LOAD ./Dave/Generated/GLOBAL_CCU8/global_ccu8_conf.o
LOAD ./Dave/Generated/GLOBAL_CCU4/global_ccu4.o
LOAD ./Dave/Generated/GLOBAL_CCU4/global_ccu4_conf.o
LOAD ./Dave/Generated/E_EEPROM_XMC4/e_eeprom_xmc4.o
LOAD ./Dave/Generated/E_EEPROM_XMC4/e_eeprom_xmc4_conf.o
LOAD ./Dave/Generated/EVENT_GENERATOR/event_generator.o
LOAD ./Dave/Generated/EVENT_GENERATOR/event_generator_conf.o
LOAD ./Dave/Generated/EVENT_DETECTOR/event_detector.o
LOAD ./Dave/Generated/EVENT_DETECTOR/event_detector_conf.o
LOAD ./Dave/Generated/ECAT_SSC/ecat_ssc.o
LOAD ./Dave/Generated/ECAT_SSC/ecat_ssc_conf.o
LOAD ./Dave/Generated/ECAT_SSC/xmc_eschw.o
LOAD ./Dave/Generated/CPU_CTRL_XMC4/cpu_ctrl_xmc4.o
LOAD ./Dave/Generated/CPU_CTRL_XMC4/cpu_ctrl_xmc4_conf.o
LOAD ./Dave/Generated/CLOCK_XMC4/clock_xmc4.o
LOAD ./Dave/Generated/CLOCK_XMC4/clock_xmc4_conf.o
LOAD ./Dave/Generated/DAVE.o
LOAD ./firmwareupdate_SSC.o
LOAD ./flashprog.o
LOAD ./main.o
LOAD c:/davev4-64bit/dave-4.3.2/eclipse/arm-gcc-49/bin/../lib/gcc/arm-none-eabi/4.9.3/../../../../arm-none-eabi/lib/armv7e-m/softfp\libm.a
START GROUP
LOAD c:/davev4-64bit/dave-4.3.2/eclipse/arm-gcc-49/bin/../lib/gcc/arm-none-eabi/4.9.3/armv7e-m/softfp\libgcc.a
LOAD c:/davev4-64bit/dave-4.3.2/eclipse/arm-gcc-49/bin/../lib/gcc/arm-none-eabi/4.9.3/../../../../arm-none-eabi/lib/armv7e-m/softfp\libg_nano.a
LOAD c:/davev4-64bit/dave-4.3.2/eclipse/arm-gcc-49/bin/../lib/gcc/arm-none-eabi/4.9.3/../../../../arm-none-eabi/lib/armv7e-m/softfp\libc_nano.a
END GROUP
START GROUP
LOAD c:/davev4-64bit/dave-4.3.2/eclipse/arm-gcc-49/bin/../lib/gcc/arm-none-eabi/4.9.3/armv7e-m/softfp\libgcc.a
LOAD c:/davev4-64bit/dave-4.3.2/eclipse/arm-gcc-49/bin/../lib/gcc/arm-none-eabi/4.9.3/../../../../arm-none-eabi/lib/armv7e-m/softfp\libc_nano.a
LOAD c:/davev4-64bit/dave-4.3.2/eclipse/arm-gcc-49/bin/../lib/gcc/arm-none-eabi/4.9.3/../../../../arm-none-eabi/lib/armv7e-m/softfp\libnosys.a
END GROUP
START GROUP
LOAD c:/davev4-64bit/dave-4.3.2/eclipse/arm-gcc-49/bin/../lib/gcc/arm-none-eabi/4.9.3/armv7e-m/softfp\libgcc.a
LOAD c:/davev4-64bit/dave-4.3.2/eclipse/arm-gcc-49/bin/../lib/gcc/arm-none-eabi/4.9.3/../../../../arm-none-eabi/lib/armv7e-m/softfp\libc_nano.a
LOAD c:/davev4-64bit/dave-4.3.2/eclipse/arm-gcc-49/bin/../lib/gcc/arm-none-eabi/4.9.3/../../../../arm-none-eabi/lib/armv7e-m/softfp\libnosys.a
END GROUP
                0x00000800                stack_size = DEFINED (stack_size)?stack_size:0x800
                0x00000040                no_init_size = 0x40

.text           0x08020000     0xae96 load address 0x0c020000
                0x08020000                sText = .
 *(.reset)
 .reset         0x08020000      0x29c ./Startup/startup_XMC4800.o
                0x08020000                __Vectors
                0x08020200                Reset_Handler
                0x08020298                DSD0_7_IRQHandler
                0x08020298                DebugMon_Handler
                0x08020298                VADC0_C0_0_IRQHandler
                0x08020298                CAN0_4_IRQHandler
                0x08020298                VADC0_G2_0_IRQHandler
                0x08020298                USIC0_5_IRQHandler
                0x08020298                POSIF0_0_IRQHandler
                0x08020298                POSIF1_0_IRQHandler
                0x08020298                HardFault_Handler
                0x08020298                VADC0_G1_1_IRQHandler
                0x08020298                SysTick_Handler
                0x08020298                PendSV_Handler
                0x08020298                NMI_Handler
                0x08020298                USIC1_3_IRQHandler
                0x08020298                CCU40_2_IRQHandler
                0x08020298                SCU_0_IRQHandler
                0x08020298                ERU0_0_IRQHandler
                0x08020298                CCU41_0_IRQHandler
                0x08020298                USIC1_5_IRQHandler
                0x08020298                DSD0_4_IRQHandler
                0x08020298                CCU80_1_IRQHandler
                0x08020298                CCU81_0_IRQHandler
                0x08020298                UsageFault_Handler
                0x08020298                USIC0_0_IRQHandler
                0x08020298                POSIF1_1_IRQHandler
                0x08020298                ERU0_2_IRQHandler
                0x08020298                CCU81_1_IRQHandler
                0x08020298                ERU1_1_IRQHandler
                0x08020298                VADC0_G2_3_IRQHandler
                0x08020298                VADC0_G2_2_IRQHandler
                0x08020298                CCU42_3_IRQHandler
                0x08020298                ERU0_3_IRQHandler
                0x08020298                DSD0_5_IRQHandler
                0x08020298                VADC0_C0_3_IRQHandler
                0x08020298                CAN0_6_IRQHandler
                0x08020298                CCU43_0_IRQHandler
                0x08020298                VADC0_G0_1_IRQHandler
                0x08020298                CCU81_2_IRQHandler
                0x08020298                USIC2_4_IRQHandler
                0x08020298                CCU81_3_IRQHandler
                0x08020298                CCU42_1_IRQHandler
                0x08020298                USIC1_1_IRQHandler
                0x08020298                USIC2_5_IRQHandler
                0x08020298                CCU40_0_IRQHandler
                0x08020298                CAN0_0_IRQHandler
                0x08020298                CCU42_2_IRQHandler
                0x08020298                Default_Handler
                0x08020298                USIC1_4_IRQHandler
                0x08020298                USIC1_0_IRQHandler
                0x08020298                POSIF0_1_IRQHandler
                0x08020298                VADC0_G0_0_IRQHandler
                0x08020298                DSD0_2_IRQHandler
                0x08020298                CCU80_3_IRQHandler
                0x08020298                CCU41_3_IRQHandler
                0x08020298                CCU80_2_IRQHandler
                0x08020298                VADC0_G1_3_IRQHandler
                0x08020298                VADC0_G0_3_IRQHandler
                0x08020298                GPDMA0_0_IRQHandler
                0x08020298                PMU0_0_IRQHandler
                0x08020298                CAN0_7_IRQHandler
                0x08020298                DSD0_1_IRQHandler
                0x08020298                CCU41_2_IRQHandler
                0x08020298                VADC0_C0_1_IRQHandler
                0x08020298                CCU43_2_IRQHandler
                0x08020298                USIC2_2_IRQHandler
                0x08020298                MemManage_Handler
                0x08020298                VADC0_G3_1_IRQHandler
                0x08020298                DAC0_0_IRQHandler
                0x08020298                SVC_Handler
                0x08020298                VADC0_G3_3_IRQHandler
                0x08020298                ERU1_2_IRQHandler
                0x08020298                CCU41_1_IRQHandler
                0x08020298                DSD0_6_IRQHandler
                0x08020298                VADC0_G1_2_IRQHandler
                0x08020298                USIC2_3_IRQHandler
                0x08020298                CAN0_2_IRQHandler
                0x08020298                USIC2_0_IRQHandler
                0x08020298                VADC0_G0_2_IRQHandler
                0x08020298                VADC0_G2_1_IRQHandler
                0x08020298                CAN0_3_IRQHandler
                0x08020298                ETH0_0_IRQHandler
                0x08020298                USIC0_3_IRQHandler
                0x08020298                DSD0_0_IRQHandler
                0x08020298                VADC0_C0_2_IRQHandler
                0x08020298                CCU42_0_IRQHandler
                0x08020298                FCE0_0_IRQHandler
                0x08020298                VADC0_G1_0_IRQHandler
                0x08020298                USB0_0_IRQHandler
                0x08020298                CAN0_5_IRQHandler
                0x08020298                CCU80_0_IRQHandler
                0x08020298                CCU40_1_IRQHandler
                0x08020298                USIC2_1_IRQHandler
                0x08020298                USIC0_1_IRQHandler
                0x08020298                VADC0_G3_2_IRQHandler
                0x08020298                CCU40_3_IRQHandler
                0x08020298                BusFault_Handler
                0x08020298                LEDTS0_0_IRQHandler
                0x08020298                USIC0_4_IRQHandler
                0x08020298                CCU43_3_IRQHandler
                0x08020298                ERU0_1_IRQHandler
                0x08020298                VADC0_G3_0_IRQHandler
                0x08020298                USIC1_2_IRQHandler
                0x08020298                DSD0_3_IRQHandler
                0x08020298                SDMMC0_0_IRQHandler
                0x08020298                CAN0_1_IRQHandler
                0x08020298                USIC0_2_IRQHandler
                0x08020298                DAC0_1_IRQHandler
                0x08020298                GPDMA1_0_IRQHandler
 *(.text .text.* .gnu.linkonce.t.*)
 .text.SystemInit
                0x0802029c       0x20 ./Startup/system_XMC4800.o
                0x0802029c                SystemInit
 .text.SystemCoreClockUpdate
                0x080202bc       0xd4 ./Startup/system_XMC4800.o
                0x080202bc                SystemCoreClockUpdate
 .text.APPL_AckErrorInd
                0x08020390       0x14 ./SSC/Src/XMC_ESC.o
                0x08020390                APPL_AckErrorInd
 .text.APPL_StartMailboxHandler
                0x080203a4       0x10 ./SSC/Src/XMC_ESC.o
                0x080203a4                APPL_StartMailboxHandler
 .text.APPL_StopMailboxHandler
                0x080203b4       0x10 ./SSC/Src/XMC_ESC.o
                0x080203b4                APPL_StopMailboxHandler
 .text.APPL_StartInputHandler
                0x080203c4       0x18 ./SSC/Src/XMC_ESC.o
                0x080203c4                APPL_StartInputHandler
 .text.APPL_StopInputHandler
                0x080203dc       0x10 ./SSC/Src/XMC_ESC.o
                0x080203dc                APPL_StopInputHandler
 .text.APPL_StartOutputHandler
                0x080203ec       0x10 ./SSC/Src/XMC_ESC.o
                0x080203ec                APPL_StartOutputHandler
 .text.APPL_StopOutputHandler
                0x080203fc       0x10 ./SSC/Src/XMC_ESC.o
                0x080203fc                APPL_StopOutputHandler
 .text.APPL_GenerateMapping
                0x0802040c      0x168 ./SSC/Src/XMC_ESC.o
                0x0802040c                APPL_GenerateMapping
 .text.APPL_InputMapping
                0x08020574       0x1c ./SSC/Src/XMC_ESC.o
                0x08020574                APPL_InputMapping
 .text.APPL_OutputMapping
                0x08020590       0x1c ./SSC/Src/XMC_ESC.o
                0x08020590                APPL_OutputMapping
 .text.APPL_Application
                0x080205ac       0x18 ./SSC/Src/XMC_ESC.o
                0x080205ac                APPL_Application
 .text.BL_Start
                0x080205c4       0x14 ./SSC/Src/bootmode.o
                0x080205c4                BL_Start
 .text.COE_GetObjectDictionary
                0x080205d8       0x18 ./SSC/Src/coeappl.o
                0x080205d8                COE_GetObjectDictionary
 .text.COE_ObjInit
                0x080205f0      0x108 ./SSC/Src/coeappl.o
                0x080205f0                COE_ObjInit
 .text.COE_AddObjectToDic
                0x080206f8       0xe8 ./SSC/Src/coeappl.o
                0x080206f8                COE_AddObjectToDic
 .text.COE_RemoveDicEntry
                0x080207e0       0x80 ./SSC/Src/coeappl.o
                0x080207e0                COE_RemoveDicEntry
 .text.COE_ClearObjDictionary
                0x08020860       0x3c ./SSC/Src/coeappl.o
                0x08020860                COE_ClearObjDictionary
 .text.AddObjectsToObjDictionary
                0x0802089c       0x44 ./SSC/Src/coeappl.o
                0x0802089c                AddObjectsToObjDictionary
 .text.COE_ObjDictionaryInit
                0x080208e0       0x44 ./SSC/Src/coeappl.o
                0x080208e0                COE_ObjDictionaryInit
 .text.COE_Main
                0x08020924       0xe8 ./SSC/Src/coeappl.o
                0x08020924                COE_Main
 .text.NVIC_EnableIRQ
                0x08020a0c       0x30 ./SSC/Src/ecatappl.o
 .text.NVIC_DisableIRQ
                0x08020a3c       0x34 ./SSC/Src/ecatappl.o
 .text.XMC_ECAT_GetALEventRegister
                0x08020a70       0x1c ./SSC/Src/ecatappl.o
 .text.HW_EscRead
                0x08020a8c       0x2c ./SSC/Src/ecatappl.o
 .text.HW_EscReadIsr
                0x08020ab8       0x24 ./SSC/Src/ecatappl.o
 .text.HW_EscWrite
                0x08020adc       0x2c ./SSC/Src/ecatappl.o
 .text.HW_EscWriteIsr
                0x08020b08       0x24 ./SSC/Src/ecatappl.o
 .text.HW_GetALEventRegister
                0x08020b2c       0x10 ./SSC/Src/ecatappl.o
 .text.HW_GetALEventRegister_Isr
                0x08020b3c       0x10 ./SSC/Src/ecatappl.o
 .text.ENABLE_ESC_INT
                0x08020b4c        0xc ./SSC/Src/ecatappl.o
 .text.DISABLE_ESC_INT
                0x08020b58        0xc ./SSC/Src/ecatappl.o
 .text.PDO_InputMapping
                0x08020b64       0x2c ./SSC/Src/ecatappl.o
                0x08020b64                PDO_InputMapping
 .text.PDO_OutputMapping
                0x08020b90       0x2c ./SSC/Src/ecatappl.o
                0x08020b90                PDO_OutputMapping
 .text.ECAT_CheckTimer
                0x08020bbc       0x54 ./SSC/Src/ecatappl.o
                0x08020bbc                ECAT_CheckTimer
 .text.HandleBusCycleCalculation
                0x08020c10       0xd8 ./SSC/Src/ecatappl.o
                0x08020c10                HandleBusCycleCalculation
 .text.PDI_Isr  0x08020ce8      0x160 ./SSC/Src/ecatappl.o
                0x08020ce8                PDI_Isr
 .text.Sync0_Isr
                0x08020e48      0x15c ./SSC/Src/ecatappl.o
                0x08020e48                Sync0_Isr
 .text.Sync1_Isr
                0x08020fa4       0x44 ./SSC/Src/ecatappl.o
                0x08020fa4                Sync1_Isr
 .text.MainInit
                0x08020fe8       0x54 ./SSC/Src/ecatappl.o
                0x08020fe8                MainInit
 .text.MainLoop
                0x0802103c       0xd4 ./SSC/Src/ecatappl.o
                0x0802103c                MainLoop
 .text.ECAT_Application
                0x08021110        0xc ./SSC/Src/ecatappl.o
                0x08021110                ECAT_Application
 .text.EEPROM_CommandHandler
                0x0802111c      0x190 ./SSC/Src/ecatappl.o
                0x0802111c                EEPROM_CommandHandler
 .text.COE_Init
                0x080212ac       0x20 ./SSC/Src/ecatcoe.o
                0x080212ac                COE_Init
 .text.COE_ServiceInd
                0x080212cc       0x70 ./SSC/Src/ecatcoe.o
                0x080212cc                COE_ServiceInd
 .text.COE_ContinueInd
                0x0802133c       0x5c ./SSC/Src/ecatcoe.o
                0x0802133c                COE_ContinueInd
 .text.FOE_ServiceInd
                0x08021398      0x428 ./SSC/Src/ecatfoe.o
                0x08021398                FOE_ServiceInd
 .text.FOE_ContinueInd
                0x080217c0       0x2c ./SSC/Src/ecatfoe.o
                0x080217c0                FOE_ContinueInd
 .text.NVIC_EnableIRQ
                0x080217ec       0x30 ./SSC/Src/ecatslv.o
 .text.NVIC_DisableIRQ
                0x0802181c       0x34 ./SSC/Src/ecatslv.o
 .text.XMC_ECAT_GetALEventRegister
                0x08021850       0x1c ./SSC/Src/ecatslv.o
 .text.HW_EscRead
                0x0802186c       0x2c ./SSC/Src/ecatslv.o
 .text.HW_GetALEventRegister
                0x08021898       0x10 ./SSC/Src/ecatslv.o
 .text.ENABLE_ESC_INT
                0x080218a8        0xc ./SSC/Src/ecatslv.o
 .text.DISABLE_ESC_INT
                0x080218b4        0xc ./SSC/Src/ecatslv.o
 .text.ResetALEventMask
                0x080218c0       0x30 ./SSC/Src/ecatslv.o
                0x080218c0                ResetALEventMask
 .text.SetALEventMask
                0x080218f0       0x30 ./SSC/Src/ecatslv.o
                0x080218f0                SetALEventMask
 .text.UpdateEEPROMLoadedState
                0x08021920       0x44 ./SSC/Src/ecatslv.o
                0x08021920                UpdateEEPROMLoadedState
 .text.GetSyncMan
                0x08021964       0x30 ./SSC/Src/ecatslv.o
                0x08021964                GetSyncMan
 .text.DisableSyncManChannel
                0x08021994       0x54 ./SSC/Src/ecatslv.o
                0x08021994                DisableSyncManChannel
 .text.EnableSyncManChannel
                0x080219e8       0x54 ./SSC/Src/ecatslv.o
                0x080219e8                EnableSyncManChannel
 .text.CheckSmSettings
                0x08021a3c      0x3c0 ./SSC/Src/ecatslv.o
                0x08021a3c                CheckSmSettings
 .text.StartInputHandler
                0x08021dfc      0x764 ./SSC/Src/ecatslv.o
                0x08021dfc                StartInputHandler
 .text.StartOutputHandler
                0x08022560       0x50 ./SSC/Src/ecatslv.o
                0x08022560                StartOutputHandler
 .text.StopOutputHandler
                0x080225b0       0x20 ./SSC/Src/ecatslv.o
                0x080225b0                StopOutputHandler
 .text.StopInputHandler
                0x080225d0      0x108 ./SSC/Src/ecatslv.o
                0x080225d0                StopInputHandler
 .text.BackToInitTransition
                0x080226d8       0x18 ./SSC/Src/ecatslv.o
                0x080226d8                BackToInitTransition
 .text.SetALStatus
                0x080226f0       0xbc ./SSC/Src/ecatslv.o
                0x080226f0                SetALStatus
 .text.AL_ControlInd
                0x080227ac      0x768 ./SSC/Src/ecatslv.o
                0x080227ac                AL_ControlInd
 .text.AL_ControlRes
                0x08022f14      0x2c0 ./SSC/Src/ecatslv.o
                0x08022f14                AL_ControlRes
 .text.DC_CheckWatchdog
                0x080231d4      0x11c ./SSC/Src/ecatslv.o
                0x080231d4                DC_CheckWatchdog
 .text.CheckIfEcatError
                0x080232f0       0xa8 ./SSC/Src/ecatslv.o
                0x080232f0                CheckIfEcatError
 .text.ECAT_Init
                0x08023398      0x14c ./SSC/Src/ecatslv.o
                0x08023398                ECAT_Init
 .text.ECAT_Main
                0x080234e4      0x198 ./SSC/Src/ecatslv.o
                0x080234e4                ECAT_Main
 .text.FOE_Read
                0x0802367c       0xbc ./SSC/Src/foeappl.o
                0x0802367c                FOE_Read
 .text.FOE_Write
                0x08023738       0x40 ./SSC/Src/foeappl.o
                0x08023738                FOE_Write
 .text.FOE_Data
                0x08023778       0x34 ./SSC/Src/foeappl.o
                0x08023778                FOE_Data
 .text.FOE_Ack  0x080237ac       0x78 ./SSC/Src/foeappl.o
                0x080237ac                FOE_Ack
 .text.FOE_Busy
                0x08023824       0x20 ./SSC/Src/foeappl.o
                0x08023824                FOE_Busy
 .text.FOE_Error
                0x08023844       0x38 ./SSC/Src/foeappl.o
                0x08023844                FOE_Error
 .text.HW_EscRead
                0x0802387c       0x2c ./SSC/Src/mailbox.o
 .text.HW_EscReadMbxMem
                0x080238a8       0x24 ./SSC/Src/mailbox.o
 .text.HW_EscWrite
                0x080238cc       0x2c ./SSC/Src/mailbox.o
 .text.HW_EscWriteMbxMem
                0x080238f8       0x24 ./SSC/Src/mailbox.o
 .text.PutInMbxQueue
                0x0802391c       0x54 ./SSC/Src/mailbox.o
                0x0802391c                PutInMbxQueue
 .text.GetOutOfMbxQueue
                0x08023970       0x5c ./SSC/Src/mailbox.o
                0x08023970                GetOutOfMbxQueue
 .text.MBX_Init
                0x080239cc       0xf4 ./SSC/Src/mailbox.o
                0x080239cc                MBX_Init
 .text.MBX_StartMailboxHandler
                0x08023ac0       0xf4 ./SSC/Src/mailbox.o
                0x08023ac0                MBX_StartMailboxHandler
 .text.MBX_StopMailboxHandler
                0x08023bb4      0x138 ./SSC/Src/mailbox.o
                0x08023bb4                MBX_StopMailboxHandler
 .text.MailboxServiceInd
                0x08023cec       0x60 ./SSC/Src/mailbox.o
                0x08023cec                MailboxServiceInd
 .text.MBX_MailboxWriteInd
                0x08023d4c       0xbc ./SSC/Src/mailbox.o
                0x08023d4c                MBX_MailboxWriteInd
 .text.MBX_MailboxReadInd
                0x08023e08       0xf4 ./SSC/Src/mailbox.o
                0x08023e08                MBX_MailboxReadInd
 .text.MBX_MailboxRepeatReq
                0x08023efc       0x84 ./SSC/Src/mailbox.o
                0x08023efc                MBX_MailboxRepeatReq
 .text.MBX_MailboxSendReq
                0x08023f80       0xd4 ./SSC/Src/mailbox.o
                0x08023f80                MBX_MailboxSendReq
 .text.MBX_CheckAndCopyMailbox
                0x08024054      0x148 ./SSC/Src/mailbox.o
                0x08024054                MBX_CheckAndCopyMailbox
 .text.MBX_CopyToSendMailbox
                0x0802419c       0xe0 ./SSC/Src/mailbox.o
                0x0802419c                MBX_CopyToSendMailbox
 .text.MBX_Main
                0x0802427c       0x78 ./SSC/Src/mailbox.o
                0x0802427c                MBX_Main
 .text.OBJ_GetObjectHandle
                0x080242f4       0x38 ./SSC/Src/objdef.o
                0x080242f4                OBJ_GetObjectHandle
 .text.OBJ_GetObjectLength
                0x0802432c      0x10c ./SSC/Src/objdef.o
                0x0802432c                OBJ_GetObjectLength
 .text.OBJ_CopyNumberToString
                0x08024438       0x94 ./SSC/Src/objdef.o
                0x08024438                OBJ_CopyNumberToString
 .text.OBJ_GetNoOfObjects
                0x080244cc       0x98 ./SSC/Src/objdef.o
                0x080244cc                OBJ_GetNoOfObjects
 .text.OBJ_GetObjectList
                0x08024564       0xf8 ./SSC/Src/objdef.o
                0x08024564                OBJ_GetObjectList
 .text.OBJ_GetDesc
                0x0802465c      0x124 ./SSC/Src/objdef.o
                0x0802465c                OBJ_GetDesc
 .text.OBJ_GetEntryDesc
                0x08024780       0x58 ./SSC/Src/objdef.o
                0x08024780                OBJ_GetEntryDesc
 .text.OBJ_GetObjDesc
                0x080247d8       0x18 ./SSC/Src/objdef.o
                0x080247d8                OBJ_GetObjDesc
 .text.OBJ_GetEntryOffset
                0x080247f0      0x164 ./SSC/Src/objdef.o
                0x080247f0                OBJ_GetEntryOffset
 .text.CheckSyncTypeValue
                0x08024954      0x1ac ./SSC/Src/objdef.o
                0x08024954                CheckSyncTypeValue
 .text.OBJ_Read
                0x08024b00      0x5a8 ./SSC/Src/objdef.o
                0x08024b00                OBJ_Read
 .text.OBJ_Write
                0x080250a8      0x644 ./SSC/Src/objdef.o
                0x080250a8                OBJ_Write
 .text.SdoDownloadSegmentInd
                0x080256ec      0x284 ./SSC/Src/sdoserv.o
 .text.SdoUploadSegmentInd
                0x08025970      0x168 ./SSC/Src/sdoserv.o
 .text.SdoRes   0x08025ad8      0x168 ./SSC/Src/sdoserv.o
                0x08025ad8                SdoRes
 .text.SDOS_SdoInd
                0x08025c40      0x56c ./SSC/Src/sdoserv.o
                0x08025c40                SDOS_SdoInd
 .text.SDOS_SdoRes
                0x080261ac      0x124 ./SSC/Src/sdoserv.o
                0x080261ac                SDOS_SdoRes
 .text.SDOS_SdoInfoInd
                0x080262d0      0x3fc ./SSC/Src/sdoserv.o
                0x080262d0                SDOS_SdoInfoInd
 .text.XMC_ERU_Enable
                0x080266cc       0x2c ./Libraries/XMCLib/src/xmc4_eru.o
                0x080266cc                XMC_ERU_Enable
 .text.XMC_FLASH_lEnterPageModeCommand
                0x080266f8       0x20 ./Libraries/XMCLib/src/xmc4_flash.o
                0x080266f8                XMC_FLASH_lEnterPageModeCommand
 .text.XMC_FLASH_lLoadPageCommand
                0x08026718       0x30 ./Libraries/XMCLib/src/xmc4_flash.o
                0x08026718                XMC_FLASH_lLoadPageCommand
 .text.XMC_FLASH_lWritePageCommand
                0x08026748       0x44 ./Libraries/XMCLib/src/xmc4_flash.o
                0x08026748                XMC_FLASH_lWritePageCommand
 .text.XMC_FLASH_lEraseSectorCommand
                0x0802678c       0x58 ./Libraries/XMCLib/src/xmc4_flash.o
                0x0802678c                XMC_FLASH_lEraseSectorCommand
 .text.XMC_FLASH_lClearStatusCommand
                0x080267e4       0x20 ./Libraries/XMCLib/src/xmc4_flash.o
                0x080267e4                XMC_FLASH_lClearStatusCommand
 .text.XMC_FLASH_ClearStatus
                0x08026804        0xc ./Libraries/XMCLib/src/xmc4_flash.o
                0x08026804                XMC_FLASH_ClearStatus
 .text.XMC_FLASH_GetStatus
                0x08026810       0x1c ./Libraries/XMCLib/src/xmc4_flash.o
                0x08026810                XMC_FLASH_GetStatus
 .text.XMC_FLASH_ProgramPage
                0x0802682c       0x68 ./Libraries/XMCLib/src/xmc4_flash.o
                0x0802682c                XMC_FLASH_ProgramPage
 .text.XMC_FLASH_EraseSector
                0x08026894       0x30 ./Libraries/XMCLib/src/xmc4_flash.o
                0x08026894                XMC_FLASH_EraseSector
 .text.XMC_FLASH_lErasePhysicalSectorCommand
                0x080268c4       0x58 ./Libraries/XMCLib/src/xmc4_flash.o
                0x080268c4                XMC_FLASH_lErasePhysicalSectorCommand
 .text.XMC_FLASH_ErasePhysicalSector
                0x0802691c       0x30 ./Libraries/XMCLib/src/xmc4_flash.o
                0x0802691c                XMC_FLASH_ErasePhysicalSector
 .text.XMC_GPIO_Init
                0x0802694c      0x140 ./Libraries/XMCLib/src/xmc4_gpio.o
                0x0802694c                XMC_GPIO_Init
 .text.XMC_SCU_lDelay
                0x08026a8c       0x44 ./Libraries/XMCLib/src/xmc4_scu.o
 .text.XMC_SCU_SetBootMode
                0x08026ad0       0x20 ./Libraries/XMCLib/src/xmc4_scu.o
                0x08026ad0                XMC_SCU_SetBootMode
 .text.XMC_SCU_CLOCK_Init
                0x08026af0       0xe0 ./Libraries/XMCLib/src/xmc4_scu.o
                0x08026af0                XMC_SCU_CLOCK_Init
 .text.XMC_SCU_INTERRUPT_EnableNmiRequest
                0x08026bd0       0x24 ./Libraries/XMCLib/src/xmc4_scu.o
                0x08026bd0                XMC_SCU_INTERRUPT_EnableNmiRequest
 .text.XMC_SCU_RESET_DeassertPeripheralReset
                0x08026bf4       0x38 ./Libraries/XMCLib/src/xmc4_scu.o
                0x08026bf4                XMC_SCU_RESET_DeassertPeripheralReset
 .text.XMC_SCU_RESET_IsPeripheralResetAsserted
                0x08026c2c       0x48 ./Libraries/XMCLib/src/xmc4_scu.o
                0x08026c2c                XMC_SCU_RESET_IsPeripheralResetAsserted
 .text.XMC_SCU_CLOCK_SetSystemClockSource
                0x08026c74       0x28 ./Libraries/XMCLib/src/xmc4_scu.o
                0x08026c74                XMC_SCU_CLOCK_SetSystemClockSource
 .text.XMC_SCU_CLOCK_SetUsbClockSource
                0x08026c9c       0x28 ./Libraries/XMCLib/src/xmc4_scu.o
                0x08026c9c                XMC_SCU_CLOCK_SetUsbClockSource
 .text.XMC_SCU_CLOCK_SetWdtClockSource
                0x08026cc4       0x28 ./Libraries/XMCLib/src/xmc4_scu.o
                0x08026cc4                XMC_SCU_CLOCK_SetWdtClockSource
 .text.XMC_SCU_CLOCK_SetSystemPllClockSource
                0x08026cec       0x40 ./Libraries/XMCLib/src/xmc4_scu.o
                0x08026cec                XMC_SCU_CLOCK_SetSystemPllClockSource
 .text.XMC_SCU_HIB_SetRtcClockSource
                0x08026d2c       0x3c ./Libraries/XMCLib/src/xmc4_scu.o
                0x08026d2c                XMC_SCU_HIB_SetRtcClockSource
 .text.XMC_SCU_HIB_SetStandbyClockSource
                0x08026d68       0x3c ./Libraries/XMCLib/src/xmc4_scu.o
                0x08026d68                XMC_SCU_HIB_SetStandbyClockSource
 .text.XMC_SCU_CLOCK_SetSystemClockDivider
                0x08026da4       0x28 ./Libraries/XMCLib/src/xmc4_scu.o
                0x08026da4                XMC_SCU_CLOCK_SetSystemClockDivider
 .text.XMC_SCU_CLOCK_SetCcuClockDivider
                0x08026dcc       0x28 ./Libraries/XMCLib/src/xmc4_scu.o
                0x08026dcc                XMC_SCU_CLOCK_SetCcuClockDivider
 .text.XMC_SCU_CLOCK_SetCpuClockDivider
                0x08026df4       0x28 ./Libraries/XMCLib/src/xmc4_scu.o
                0x08026df4                XMC_SCU_CLOCK_SetCpuClockDivider
 .text.XMC_SCU_CLOCK_SetPeripheralClockDivider
                0x08026e1c       0x28 ./Libraries/XMCLib/src/xmc4_scu.o
                0x08026e1c                XMC_SCU_CLOCK_SetPeripheralClockDivider
 .text.XMC_SCU_CLOCK_SetUsbClockDivider
                0x08026e44       0x28 ./Libraries/XMCLib/src/xmc4_scu.o
                0x08026e44                XMC_SCU_CLOCK_SetUsbClockDivider
 .text.XMC_SCU_CLOCK_SetEbuClockDivider
                0x08026e6c       0x28 ./Libraries/XMCLib/src/xmc4_scu.o
                0x08026e6c                XMC_SCU_CLOCK_SetEbuClockDivider
 .text.XMC_SCU_CLOCK_SetWdtClockDivider
                0x08026e94       0x28 ./Libraries/XMCLib/src/xmc4_scu.o
                0x08026e94                XMC_SCU_CLOCK_SetWdtClockDivider
 .text.XMC_SCU_CLOCK_SetECATClockDivider
                0x08026ebc       0x28 ./Libraries/XMCLib/src/xmc4_scu.o
                0x08026ebc                XMC_SCU_CLOCK_SetECATClockDivider
 .text.XMC_SCU_CLOCK_EnableClock
                0x08026ee4       0x20 ./Libraries/XMCLib/src/xmc4_scu.o
                0x08026ee4                XMC_SCU_CLOCK_EnableClock
 .text.XMC_SCU_CLOCK_UngatePeripheralClock
                0x08026f04       0x38 ./Libraries/XMCLib/src/xmc4_scu.o
                0x08026f04                XMC_SCU_CLOCK_UngatePeripheralClock
 .text.XMC_SCU_CLOCK_StartUsbPll
                0x08026f3c       0x74 ./Libraries/XMCLib/src/xmc4_scu.o
                0x08026f3c                XMC_SCU_CLOCK_StartUsbPll
 .text.XMC_SCU_CLOCK_SetBackupClockCalibrationMode
                0x08026fb0       0x4c ./Libraries/XMCLib/src/xmc4_scu.o
                0x08026fb0                XMC_SCU_CLOCK_SetBackupClockCalibrationMode
 .text.XMC_SCU_HIB_EnableHibernateDomain
                0x08026ffc       0x58 ./Libraries/XMCLib/src/xmc4_scu.o
                0x08026ffc                XMC_SCU_HIB_EnableHibernateDomain
 .text.XMC_SCU_CLOCK_IsLowPowerOscillatorStable
                0x08027054       0x24 ./Libraries/XMCLib/src/xmc4_scu.o
                0x08027054                XMC_SCU_CLOCK_IsLowPowerOscillatorStable
 .text.XMC_SCU_CLOCK_EnableLowPowerOscillator
                0x08027078       0x64 ./Libraries/XMCLib/src/xmc4_scu.o
                0x08027078                XMC_SCU_CLOCK_EnableLowPowerOscillator
 .text.XMC_SCU_CLOCK_EnableHighPerformanceOscillator
                0x080270dc       0x50 ./Libraries/XMCLib/src/xmc4_scu.o
                0x080270dc                XMC_SCU_CLOCK_EnableHighPerformanceOscillator
 .text.XMC_SCU_CLOCK_IsHighPerformanceOscillatorStable
                0x0802712c       0x28 ./Libraries/XMCLib/src/xmc4_scu.o
                0x0802712c                XMC_SCU_CLOCK_IsHighPerformanceOscillatorStable
 .text.XMC_SCU_CLOCK_EnableSystemPll
                0x08027154       0x20 ./Libraries/XMCLib/src/xmc4_scu.o
                0x08027154                XMC_SCU_CLOCK_EnableSystemPll
 .text.XMC_SCU_CLOCK_DisableSystemPll
                0x08027174       0x20 ./Libraries/XMCLib/src/xmc4_scu.o
                0x08027174                XMC_SCU_CLOCK_DisableSystemPll
 .text.XMC_SCU_CLOCK_StartSystemPll
                0x08027194      0x174 ./Libraries/XMCLib/src/xmc4_scu.o
                0x08027194                XMC_SCU_CLOCK_StartSystemPll
 .text.XMC_SCU_CLOCK_StepSystemPllFrequency
                0x08027308       0x2c ./Libraries/XMCLib/src/xmc4_scu.o
                0x08027308                XMC_SCU_CLOCK_StepSystemPllFrequency
 .text.XMC_CCU4_StartPrescaler
                0x08027334       0x20 ./Libraries/XMCLib/src/xmc_ccu4.o
 .text.XMC_CCU4_lDeassertReset
                0x08027354       0x68 ./Libraries/XMCLib/src/xmc_ccu4.o
 .text.XMC_CCU4_lUngateClock
                0x080273bc       0x68 ./Libraries/XMCLib/src/xmc_ccu4.o
 .text.XMC_CCU4_EnableModule
                0x08027424       0x20 ./Libraries/XMCLib/src/xmc_ccu4.o
                0x08027424                XMC_CCU4_EnableModule
 .text.XMC_CCU4_Init
                0x08027444       0x3c ./Libraries/XMCLib/src/xmc_ccu4.o
                0x08027444                XMC_CCU4_Init
 .text.XMC_CCU4_SLICE_CompareInit
                0x08027480       0x6c ./Libraries/XMCLib/src/xmc_ccu4.o
                0x08027480                XMC_CCU4_SLICE_CompareInit
 .text.XMC_CCU4_SLICE_SetInterruptNode
                0x080274ec       0xb0 ./Libraries/XMCLib/src/xmc_ccu4.o
                0x080274ec                XMC_CCU4_SLICE_SetInterruptNode
 .text.XMC_CCU8_StartPrescaler
                0x0802759c       0x20 ./Libraries/XMCLib/src/xmc_ccu8.o
 .text.XMC_CCU8_SLICE_StopTimer
                0x080275bc       0x18 ./Libraries/XMCLib/src/xmc_ccu8.o
 .text.XMC_CCU8_lDeassertReset
                0x080275d4       0x38 ./Libraries/XMCLib/src/xmc_ccu8.o
 .text.XMC_CCU8_lUngateClock
                0x0802760c       0x38 ./Libraries/XMCLib/src/xmc_ccu8.o
 .text.XMC_CCU8_EnableModule
                0x08027644       0x20 ./Libraries/XMCLib/src/xmc_ccu8.o
                0x08027644                XMC_CCU8_EnableModule
 .text.XMC_CCU8_Init
                0x08027664       0x3c ./Libraries/XMCLib/src/xmc_ccu8.o
                0x08027664                XMC_CCU8_Init
 .text.XMC_CCU8_SLICE_CompareInit
                0x080276a0       0x74 ./Libraries/XMCLib/src/xmc_ccu8.o
                0x080276a0                XMC_CCU8_SLICE_CompareInit
 .text.XMC_CCU8_SetMultiChannelShadowTransferMode
                0x08027714       0x38 ./Libraries/XMCLib/src/xmc_ccu8.o
                0x08027714                XMC_CCU8_SetMultiChannelShadowTransferMode
 .text.XMC_CCU8_SLICE_StartConfig
                0x0802774c       0x5c ./Libraries/XMCLib/src/xmc_ccu8.o
                0x0802774c                XMC_CCU8_SLICE_StartConfig
 .text.XMC_CCU8_SLICE_StopConfig
                0x080277a8       0x58 ./Libraries/XMCLib/src/xmc_ccu8.o
                0x080277a8                XMC_CCU8_SLICE_StopConfig
 .text.XMC_CCU8_SLICE_LoadConfig
                0x08027800       0x34 ./Libraries/XMCLib/src/xmc_ccu8.o
                0x08027800                XMC_CCU8_SLICE_LoadConfig
 .text.XMC_CCU8_SLICE_LoadSelector
                0x08027834       0x34 ./Libraries/XMCLib/src/xmc_ccu8.o
                0x08027834                XMC_CCU8_SLICE_LoadSelector
 .text.XMC_CCU8_SLICE_ModulationConfig
                0x08027868       0x90 ./Libraries/XMCLib/src/xmc_ccu8.o
                0x08027868                XMC_CCU8_SLICE_ModulationConfig
 .text.XMC_CCU8_SLICE_CountConfig
                0x080278f8       0x34 ./Libraries/XMCLib/src/xmc_ccu8.o
                0x080278f8                XMC_CCU8_SLICE_CountConfig
 .text.XMC_CCU8_SLICE_GateConfig
                0x0802792c       0x34 ./Libraries/XMCLib/src/xmc_ccu8.o
                0x0802792c                XMC_CCU8_SLICE_GateConfig
 .text.XMC_CCU8_SLICE_DirectionConfig
                0x08027960       0x34 ./Libraries/XMCLib/src/xmc_ccu8.o
                0x08027960                XMC_CCU8_SLICE_DirectionConfig
 .text.XMC_CCU8_SLICE_StatusBitOverrideConfig
                0x08027994       0x30 ./Libraries/XMCLib/src/xmc_ccu8.o
                0x08027994                XMC_CCU8_SLICE_StatusBitOverrideConfig
 .text.XMC_CCU8_SLICE_TrapConfig
                0x080279c4       0x74 ./Libraries/XMCLib/src/xmc_ccu8.o
                0x080279c4                XMC_CCU8_SLICE_TrapConfig
 .text.XMC_CCU8_SLICE_ConfigureStatusBitOverrideEvent
                0x08027a38       0xc4 ./Libraries/XMCLib/src/xmc_ccu8.o
                0x08027a38                XMC_CCU8_SLICE_ConfigureStatusBitOverrideEvent
 .text.XMC_CCU8_SLICE_ConfigureEvent
                0x08027afc       0xd4 ./Libraries/XMCLib/src/xmc_ccu8.o
                0x08027afc                XMC_CCU8_SLICE_ConfigureEvent
 .text.XMC_CCU8_SLICE_SetTimerPeriodMatch
                0x08027bd0       0x1c ./Libraries/XMCLib/src/xmc_ccu8.o
                0x08027bd0                XMC_CCU8_SLICE_SetTimerPeriodMatch
 .text.XMC_CCU8_SLICE_SetTimerCompareMatch
                0x08027bec       0x30 ./Libraries/XMCLib/src/xmc_ccu8.o
                0x08027bec                XMC_CCU8_SLICE_SetTimerCompareMatch
 .text.XMC_CCU8_SLICE_SetInterruptNode
                0x08027c1c       0xb8 ./Libraries/XMCLib/src/xmc_ccu8.o
                0x08027c1c                XMC_CCU8_SLICE_SetInterruptNode
 .text.XMC_CCU8_SLICE_DeadTimeInit
                0x08027cd4       0x2c ./Libraries/XMCLib/src/xmc_ccu8.o
                0x08027cd4                XMC_CCU8_SLICE_DeadTimeInit
 .text.XMC_ECAT_Enable
                0x08027d00       0x24 ./Libraries/XMCLib/src/xmc_ecat.o
                0x08027d00                XMC_ECAT_Enable
 .text.XMC_ECAT_Init
                0x08027d24       0x78 ./Libraries/XMCLib/src/xmc_ecat.o
                0x08027d24                XMC_ECAT_Init
 .text.XMC_ECAT_DisableEvent
                0x08027d9c       0x28 ./Libraries/XMCLib/src/xmc_ecat.o
                0x08027d9c                XMC_ECAT_DisableEvent
 .text.XMC_ECAT_DisableSyncManChannel
                0x08027dc4       0x38 ./Libraries/XMCLib/src/xmc_ecat.o
                0x08027dc4                XMC_ECAT_DisableSyncManChannel
 .text.XMC_ERU_ETL_Init
                0x08027dfc       0x4c ./Libraries/XMCLib/src/xmc_eru.o
                0x08027dfc                XMC_ERU_ETL_Init
 .text.XMC_ERU_OGU_Init
                0x08027e48       0x28 ./Libraries/XMCLib/src/xmc_eru.o
                0x08027e48                XMC_ERU_OGU_Init
 .text.XMC_FCE_Init
                0x08027e70       0x2c ./Libraries/XMCLib/src/xmc_fce.o
                0x08027e70                XMC_FCE_Init
 .text.XMC_FCE_Enable
                0x08027e9c       0x28 ./Libraries/XMCLib/src/xmc_fce.o
                0x08027e9c                XMC_FCE_Enable
 .text.XMC_FCE_CalculateCRC32
                0x08027ec4       0x64 ./Libraries/XMCLib/src/xmc_fce.o
                0x08027ec4                XMC_FCE_CalculateCRC32
 .text.XMC_GPIO_SetMode
                0x08027f28       0x80 ./Libraries/XMCLib/src/xmc_gpio.o
                0x08027f28                XMC_GPIO_SetMode
 .text.XMC_GPIO_SetHardwareControl
                0x08027fa8       0x44 ./Libraries/XMCLib/src/xmc_gpio.o
                0x08027fa8                XMC_GPIO_SetHardwareControl
 .text._sbrk    0x08027fec       0x68 ./Libraries/Newlib/syscalls.o
                0x08027fec                _sbrk
 .text._init    0x08028054        0xc ./Libraries/Newlib/syscalls.o
                0x08028054                _init
 .text.XMC_CCU4_EnableClock
                0x08028060       0x28 ./Dave/Generated/TIMER/timer.o
 .text.XMC_CCU4_SLICE_StartTimer
                0x08028088       0x18 ./Dave/Generated/TIMER/timer.o
 .text.XMC_CCU4_SLICE_ClearTimer
                0x080280a0       0x18 ./Dave/Generated/TIMER/timer.o
 .text.XMC_CCU4_SLICE_SetTimerPeriodMatch
                0x080280b8       0x1c ./Dave/Generated/TIMER/timer.o
 .text.XMC_CCU4_SLICE_SetTimerCompareMatch
                0x080280d4       0x1c ./Dave/Generated/TIMER/timer.o
 .text.XMC_CCU4_EnableShadowTransfer
                0x080280f0       0x1c ./Dave/Generated/TIMER/timer.o
 .text.XMC_CCU4_SLICE_EnableEvent
                0x0802810c       0x2c ./Dave/Generated/TIMER/timer.o
 .text.TIMER_Init
                0x08028138       0x3c ./Dave/Generated/TIMER/timer.o
                0x08028138                TIMER_Init
 .text.TIMER_Start
                0x08028174       0x3c ./Dave/Generated/TIMER/timer.o
                0x08028174                TIMER_Start
 .text.TIMER_CCU4_lInit
                0x080281b0       0x98 ./Dave/Generated/TIMER/timer.o
                0x080281b0                TIMER_CCU4_lInit
 .text.TIMER_CCU4_lShadowTransfer
                0x08028248       0x3c ./Dave/Generated/TIMER/timer.o
                0x08028248                TIMER_CCU4_lShadowTransfer
 .text.XMC_CCU8_EnableClock
                0x08028284       0x28 ./Dave/Generated/PWM_CCU8/pwm_ccu8.o
 .text.XMC_CCU8_SLICE_EnableTrap
                0x080282ac       0x24 ./Dave/Generated/PWM_CCU8/pwm_ccu8.o
 .text.XMC_CCU8_SLICE_StartTimer
                0x080282d0       0x18 ./Dave/Generated/PWM_CCU8/pwm_ccu8.o
 .text.XMC_CCU8_EnableShadowTransfer
                0x080282e8       0x1c ./Dave/Generated/PWM_CCU8/pwm_ccu8.o
 .text.XMC_CCU8_SLICE_EnableEvent
                0x08028304       0x2c ./Dave/Generated/PWM_CCU8/pwm_ccu8.o
 .text.XMC_CCU8_SLICE_SetShadowTransferMode
                0x08028330       0x30 ./Dave/Generated/PWM_CCU8/pwm_ccu8.o
 .text.PWM_CCU8_Init
                0x08028360      0x170 ./Dave/Generated/PWM_CCU8/pwm_ccu8.o
                0x08028360                PWM_CCU8_Init
 .text.PWM_CCU8_lInit_Interrupt
                0x080284d0      0x188 ./Dave/Generated/PWM_CCU8/pwm_ccu8.o
 .text.PWM_CCU8_lInit_GPIO
                0x08028658       0xbc ./Dave/Generated/PWM_CCU8/pwm_ccu8.o
 .text.PWM_CCU8_lConfigure_Events
                0x08028714      0x1e0 ./Dave/Generated/PWM_CCU8/pwm_ccu8.o
 .text.PWM_CCU8_Start
                0x080288f4       0x58 ./Dave/Generated/PWM_CCU8/pwm_ccu8.o
                0x080288f4                PWM_CCU8_Start
 .text.NVIC_GetPriorityGrouping
                0x0802894c       0x1c ./Dave/Generated/INTERRUPT/interrupt.o
 .text.NVIC_EnableIRQ
                0x08028968       0x30 ./Dave/Generated/INTERRUPT/interrupt.o
 .text.NVIC_SetPriority
                0x08028998       0x54 ./Dave/Generated/INTERRUPT/interrupt.o
 .text.NVIC_EncodePriority
                0x080289ec       0x64 ./Dave/Generated/INTERRUPT/interrupt.o
 .text.INTERRUPT_Enable
                0x08028a50       0x1c ./Dave/Generated/INTERRUPT/interrupt.o
 .text.INTERRUPT_Init
                0x08028a6c       0x4c ./Dave/Generated/INTERRUPT/interrupt.o
                0x08028a6c                INTERRUPT_Init
 .text.XMC_CCU8_StartPrescaler
                0x08028ab8       0x20 ./Dave/Generated/GLOBAL_CCU8/global_ccu8.o
 .text.GLOBAL_CCU8_Init
                0x08028ad8       0x40 ./Dave/Generated/GLOBAL_CCU8/global_ccu8.o
                0x08028ad8                GLOBAL_CCU8_Init
 .text.XMC_CCU4_StartPrescaler
                0x08028b18       0x20 ./Dave/Generated/GLOBAL_CCU4/global_ccu4.o
 .text.GLOBAL_CCU4_Init
                0x08028b38       0x40 ./Dave/Generated/GLOBAL_CCU4/global_ccu4.o
                0x08028b38                GLOBAL_CCU4_Init
 .text.XMC_FLASH_SetMargin
                0x08028b78       0x34 ./Dave/Generated/E_EEPROM_XMC4/e_eeprom_xmc4.o
 .text.XMC_FLASH_EnableDoubleBitErrorTrap
                0x08028bac       0x28 ./Dave/Generated/E_EEPROM_XMC4/e_eeprom_xmc4.o
 .text.XMC_FLASH_DisableDoubleBitErrorTrap
                0x08028bd4       0x28 ./Dave/Generated/E_EEPROM_XMC4/e_eeprom_xmc4.o
 .text.XMC_FCE_InitializeSeedValue
                0x08028bfc       0x1c ./Dave/Generated/E_EEPROM_XMC4/e_eeprom_xmc4.o
 .text.E_EEPROM_XMC4_Init
                0x08028c18       0xd4 ./Dave/Generated/E_EEPROM_XMC4/e_eeprom_xmc4.o
                0x08028c18                E_EEPROM_XMC4_Init
 .text.E_EEPROM_XMC4_WriteArray
                0x08028cec       0x4c ./Dave/Generated/E_EEPROM_XMC4/e_eeprom_xmc4.o
                0x08028cec                E_EEPROM_XMC4_WriteArray
 .text.E_EEPROM_XMC4_ReadArray
                0x08028d38       0x4c ./Dave/Generated/E_EEPROM_XMC4/e_eeprom_xmc4.o
                0x08028d38                E_EEPROM_XMC4_ReadArray
 .text.E_EEPROM_XMC4_UpdateFlashContents
                0x08028d84       0xa4 ./Dave/Generated/E_EEPROM_XMC4/e_eeprom_xmc4.o
                0x08028d84                E_EEPROM_XMC4_UpdateFlashContents
 .text.E_EEPROM_XMC4_IsFlashEmpty
                0x08028e28       0x28 ./Dave/Generated/E_EEPROM_XMC4/e_eeprom_xmc4.o
                0x08028e28                E_EEPROM_XMC4_IsFlashEmpty
 .text.E_EEPROM_XMC4_lWriteToFlash
                0x08028e50       0x78 ./Dave/Generated/E_EEPROM_XMC4/e_eeprom_xmc4.o
 .text.E_EEPROM_XMC4_lInitReadSectorInfo
                0x08028ec8       0xac ./Dave/Generated/E_EEPROM_XMC4/e_eeprom_xmc4.o
 .text.E_EEPROM_XMC4_lInitEraseStateMachine
                0x08028f74       0x80 ./Dave/Generated/E_EEPROM_XMC4/e_eeprom_xmc4.o
 .text.E_EEPROM_XMC4_lCalculateCRC
                0x08028ff4       0x30 ./Dave/Generated/E_EEPROM_XMC4/e_eeprom_xmc4.o
 .text.E_EEPROM_XMC4_lCopyFlashToRam
                0x08029024       0x4c ./Dave/Generated/E_EEPROM_XMC4/e_eeprom_xmc4.o
 .text.EVENT_GENERATOR_Init
                0x08029070       0x48 ./Dave/Generated/EVENT_GENERATOR/event_generator.o
                0x08029070                EVENT_GENERATOR_Init
 .text.EVENT_DETECTOR_Init
                0x080290b8       0x3c ./Dave/Generated/EVENT_DETECTOR/event_detector.o
                0x080290b8                EVENT_DETECTOR_Init
 .text.ECAT_SSC_Init
                0x080290f4       0xb4 ./Dave/Generated/ECAT_SSC/ecat_ssc.o
                0x080290f4                ECAT_SSC_Init
 .text.NVIC_GetPriorityGrouping
                0x080291a8       0x1c ./Dave/Generated/ECAT_SSC/xmc_eschw.o
 .text.NVIC_EnableIRQ
                0x080291c4       0x30 ./Dave/Generated/ECAT_SSC/xmc_eschw.o
 .text.NVIC_SetPriority
                0x080291f4       0x54 ./Dave/Generated/ECAT_SSC/xmc_eschw.o
 .text.NVIC_EncodePriority
                0x08029248       0x64 ./Dave/Generated/ECAT_SSC/xmc_eschw.o
 .text.XMC_ECAT_SetPortControl
                0x080292ac       0x2c ./Dave/Generated/ECAT_SSC/xmc_eschw.o
 .text.HW_EscRead
                0x080292d8       0x2c ./Dave/Generated/ECAT_SSC/xmc_eschw.o
 .text.HW_EscWrite
                0x08029304       0x2c ./Dave/Generated/ECAT_SSC/xmc_eschw.o
 .text.ENABLE_ESC_INT
                0x08029330        0xc ./Dave/Generated/ECAT_SSC/xmc_eschw.o
 .text.HW_Init  0x0802933c      0x3a8 ./Dave/Generated/ECAT_SSC/xmc_eschw.o
                0x0802933c                HW_Init
 .text.HW_EepromWrite
                0x080296e4       0x8c ./Dave/Generated/ECAT_SSC/xmc_eschw.o
                0x080296e4                HW_EepromWrite
 .text.HW_EepromReload
                0x08029770       0x8c ./Dave/Generated/ECAT_SSC/xmc_eschw.o
                0x08029770                HW_EepromReload
 .text.ECAT0_0_IRQHandler
                0x080297fc        0xc ./Dave/Generated/ECAT_SSC/xmc_eschw.o
                0x080297fc                ECAT0_0_IRQHandler
 .text.CCU43_1_IRQHandler
                0x08029808       0x18 ./Dave/Generated/ECAT_SSC/xmc_eschw.o
                0x08029808                CCU43_1_IRQHandler
 .text.HW_GetTimer
                0x08029820       0x18 ./Dave/Generated/ECAT_SSC/xmc_eschw.o
                0x08029820                HW_GetTimer
 .text.NVIC_SetPriorityGrouping
                0x08029838       0x48 ./Dave/Generated/CPU_CTRL_XMC4/cpu_ctrl_xmc4_conf.o
 .text.SystemCoreSetup
                0x08029880       0xa0 ./Dave/Generated/CPU_CTRL_XMC4/cpu_ctrl_xmc4_conf.o
                0x08029880                SystemCoreSetup
 .text.CLOCK_XMC4_Init
                0x08029920       0x20 ./Dave/Generated/CLOCK_XMC4/clock_xmc4.o
                0x08029920                CLOCK_XMC4_Init
 .text.OSCHP_GetFrequency
                0x08029940       0x14 ./Dave/Generated/CLOCK_XMC4/clock_xmc4.o
                0x08029940                OSCHP_GetFrequency
 .text.XMC_SCU_CLOCK_SetECATClockSource
                0x08029954       0x28 ./Dave/Generated/CLOCK_XMC4/clock_xmc4_conf.o
 .text.SystemCoreClockSetup
                0x0802997c       0x60 ./Dave/Generated/CLOCK_XMC4/clock_xmc4_conf.o
                0x0802997c                SystemCoreClockSetup
 .text.DAVE_Init
                0x080299dc       0xc4 ./Dave/Generated/DAVE.o
                0x080299dc                DAVE_Init
 .text.FWUPDATE_StartDownload
                0x08029aa0       0x2c ./firmwareupdate_SSC.o
                0x08029aa0                FWUPDATE_StartDownload
 .text.FWUPDATE_StateTransitionInit
                0x08029acc       0x24 ./firmwareupdate_SSC.o
                0x08029acc                FWUPDATE_StateTransitionInit
 .text.FWUPDATE_GetDownloadFinished
                0x08029af0       0x18 ./firmwareupdate_SSC.o
                0x08029af0                FWUPDATE_GetDownloadFinished
 .text.FWUPDATE_Data
                0x08029b08       0xd4 ./firmwareupdate_SSC.o
                0x08029b08                FWUPDATE_Data
 .text.XMC_FCE_GetCRCResult
                0x08029bdc       0x20 ./flashprog.o
 .text.Flash_lGetPhysicalSector
                0x08029bfc       0x54 ./flashprog.o
                0x08029bfc                Flash_lGetPhysicalSector
 .text.Flash_lGetPhysicalSectorNumber
                0x08029c50       0x40 ./flashprog.o
                0x08029c50                Flash_lGetPhysicalSectorNumber
 .text.FLASHPROG_Init
                0x08029c90       0x78 ./flashprog.o
                0x08029c90                FLASHPROG_Init
 .text.FLASHPROG_Data
                0x08029d08      0x148 ./flashprog.o
                0x08029d08                FLASHPROG_Data
 .text.FLASHPROG_Close
                0x08029e50       0x58 ./flashprog.o
                0x08029e50                FLASHPROG_Close
 .text.FLASHPROG_Bytes_written
                0x08029ea8       0x18 ./flashprog.o
                0x08029ea8                FLASHPROG_Bytes_written
 .text.FLASHPROG_CRC32_check
                0x08029ec0       0x68 ./flashprog.o
                0x08029ec0                FLASHPROG_CRC32_check
 .text.XMC_SCU_RESET_ClearDeviceResetReason
                0x08029f28       0x18 ./main.o
 .text.XMC_GPIO_SetOutputLevel
                0x08029f40       0x24 ./main.o
 .text.XMC_GPIO_SetOutputHigh
                0x08029f64       0x20 ./main.o
 .text.XMC_GPIO_GetInput
                0x08029f84       0x28 ./main.o
 .text.XMC_GPIO_EnableDigitalInput
                0x08029fac       0x2c ./main.o
 .text.Init_ECAT_Adapt_LED
                0x08029fd8       0xa8 ./main.o
                0x08029fd8                Init_ECAT_Adapt_LED
 .text.Init_Relax_Button
                0x0802a080       0x30 ./main.o
                0x0802a080                Init_Relax_Button
 .text.process_app
                0x0802a0b0      0x190 ./main.o
                0x0802a0b0                process_app
 .text.main     0x0802a240       0x20 ./main.o
                0x0802a240                main
 .text.ERU1_0_IRQHandler
                0x0802a260        0xc ./main.o
                0x0802a260                ERU1_0_IRQHandler
 .text.ERU1_3_IRQHandler
                0x0802a26c        0xc ./main.o
                0x0802a26c                ERU1_3_IRQHandler
 .text.__errno  0x0802a278        0xc c:/davev4-64bit/dave-4.3.2/eclipse/arm-gcc-49/bin/../lib/gcc/arm-none-eabi/4.9.3/../../../../arm-none-eabi/lib/armv7e-m/softfp\libg_nano.a(lib_a-errno.o)
                0x0802a278                __errno
 .text.__libc_init_array
                0x0802a284       0x4c c:/davev4-64bit/dave-4.3.2/eclipse/arm-gcc-49/bin/../lib/gcc/arm-none-eabi/4.9.3/../../../../arm-none-eabi/lib/armv7e-m/softfp\libg_nano.a(lib_a-init.o)
                0x0802a284                __libc_init_array
 .text.malloc   0x0802a2d0       0x10 c:/davev4-64bit/dave-4.3.2/eclipse/arm-gcc-49/bin/../lib/gcc/arm-none-eabi/4.9.3/../../../../arm-none-eabi/lib/armv7e-m/softfp\libg_nano.a(lib_a-malloc.o)
                0x0802a2d0                malloc
 .text.free     0x0802a2e0       0x10 c:/davev4-64bit/dave-4.3.2/eclipse/arm-gcc-49/bin/../lib/gcc/arm-none-eabi/4.9.3/../../../../arm-none-eabi/lib/armv7e-m/softfp\libg_nano.a(lib_a-malloc.o)
                0x0802a2e0                free
 .text.memcpy   0x0802a2f0       0x16 c:/davev4-64bit/dave-4.3.2/eclipse/arm-gcc-49/bin/../lib/gcc/arm-none-eabi/4.9.3/../../../../arm-none-eabi/lib/armv7e-m/softfp\libg_nano.a(lib_a-memcpy.o)
                0x0802a2f0                memcpy
 .text.memset   0x0802a306       0x10 c:/davev4-64bit/dave-4.3.2/eclipse/arm-gcc-49/bin/../lib/gcc/arm-none-eabi/4.9.3/../../../../arm-none-eabi/lib/armv7e-m/softfp\libg_nano.a(lib_a-memset.o)
                0x0802a306                memset
 *fill*         0x0802a316        0x2 
 .text._free_r  0x0802a318       0x88 c:/davev4-64bit/dave-4.3.2/eclipse/arm-gcc-49/bin/../lib/gcc/arm-none-eabi/4.9.3/../../../../arm-none-eabi/lib/armv7e-m/softfp\libg_nano.a(lib_a-nano-freer.o)
                0x0802a318                _free_r
 .text._malloc_r
                0x0802a3a0       0xac c:/davev4-64bit/dave-4.3.2/eclipse/arm-gcc-49/bin/../lib/gcc/arm-none-eabi/4.9.3/../../../../arm-none-eabi/lib/armv7e-m/softfp\libg_nano.a(lib_a-nano-mallocr.o)
                0x0802a3a0                _malloc_r
 .text._sbrk_r  0x0802a44c       0x20 c:/davev4-64bit/dave-4.3.2/eclipse/arm-gcc-49/bin/../lib/gcc/arm-none-eabi/4.9.3/../../../../arm-none-eabi/lib/armv7e-m/softfp\libg_nano.a(lib_a-sbrkr.o)
                0x0802a44c                _sbrk_r
 .text.strlen   0x0802a46c       0x10 c:/davev4-64bit/dave-4.3.2/eclipse/arm-gcc-49/bin/../lib/gcc/arm-none-eabi/4.9.3/../../../../arm-none-eabi/lib/armv7e-m/softfp\libg_nano.a(lib_a-strlen.o)
                0x0802a46c                strlen
 *(.init)
 *(.fini)
 *crtbegin.o(.ctors)
 *crtbegin?.o(.ctors)
 *(EXCLUDE_FILE(*crtend.o *crtend?.o) .ctors)
 *(SORT(.ctors.*))
 *(.ctors)
 *crtbegin.o(.dtors)
 *crtbegin?.o(.dtors)
 *(EXCLUDE_FILE(*crtend.o *crtend?.o) .dtors)
 *(SORT(.dtors.*))
 *(.dtors)
 *(.rodata .rodata.*)
 .rodata.asEntryDesc0x1600
                0x0802a47c       0x50 ./SSC/Src/coeappl.o
                0x0802a47c                asEntryDesc0x1600
 .rodata.aName0x1600
                0x0802a4cc       0xc0 ./SSC/Src/coeappl.o
                0x0802a4cc                aName0x1600
 .rodata.asEntryDesc0x1A00
                0x0802a58c       0x50 ./SSC/Src/coeappl.o
                0x0802a58c                asEntryDesc0x1A00
 .rodata.aName0x1A00
                0x0802a5dc       0xc0 ./SSC/Src/coeappl.o
                0x0802a5dc                aName0x1A00
 .rodata.asEntryDesc0x1C12
                0x0802a69c        0xc ./SSC/Src/coeappl.o
                0x0802a69c                asEntryDesc0x1C12
 .rodata.aName0x1C12
                0x0802a6a8       0x1c ./SSC/Src/coeappl.o
                0x0802a6a8                aName0x1C12
 .rodata.asEntryDesc0x1C13
                0x0802a6c4        0xc ./SSC/Src/coeappl.o
                0x0802a6c4                asEntryDesc0x1C13
 .rodata.aName0x1C13
                0x0802a6d0       0x1c ./SSC/Src/coeappl.o
                0x0802a6d0                aName0x1C13
 .rodata.asEntryDesc0x6000
                0x0802a6ec       0x50 ./SSC/Src/coeappl.o
                0x0802a6ec                asEntryDesc0x6000
 .rodata.aName0x6000
                0x0802a73c       0xa0 ./SSC/Src/coeappl.o
                0x0802a73c                aName0x6000
 .rodata.asEntryDesc0x7000
                0x0802a7dc       0x50 ./SSC/Src/coeappl.o
                0x0802a7dc                asEntryDesc0x7000
 .rodata.aName0x7000
                0x0802a82c       0xac ./SSC/Src/coeappl.o
                0x0802a82c                aName0x7000
 .rodata.sEntryDesc0x1000
                0x0802a8d8        0x8 ./SSC/Src/coeappl.o
                0x0802a8d8                sEntryDesc0x1000
 .rodata.aName0x1000
                0x0802a8e0        0xc ./SSC/Src/coeappl.o
                0x0802a8e0                aName0x1000
 .rodata.sEntryDesc0x1001
                0x0802a8ec        0x8 ./SSC/Src/coeappl.o
                0x0802a8ec                sEntryDesc0x1001
 .rodata.aName0x1001
                0x0802a8f4       0x10 ./SSC/Src/coeappl.o
                0x0802a8f4                aName0x1001
 .rodata.sEntryDesc0x1008
                0x0802a904        0x8 ./SSC/Src/coeappl.o
                0x0802a904                sEntryDesc0x1008
 .rodata.aName0x1008
                0x0802a90c        0xc ./SSC/Src/coeappl.o
                0x0802a90c                aName0x1008
 .rodata.sEntryDesc0x1009
                0x0802a918        0x8 ./SSC/Src/coeappl.o
                0x0802a918                sEntryDesc0x1009
 .rodata.aName0x1009
                0x0802a920       0x14 ./SSC/Src/coeappl.o
                0x0802a920                aName0x1009
 .rodata.sEntryDesc0x100A
                0x0802a934        0x8 ./SSC/Src/coeappl.o
                0x0802a934                sEntryDesc0x100A
 .rodata.aName0x100A
                0x0802a93c       0x14 ./SSC/Src/coeappl.o
                0x0802a93c                aName0x100A
 .rodata.asEntryDesc0x1018
                0x0802a950       0x20 ./SSC/Src/coeappl.o
                0x0802a950                asEntryDesc0x1018
 .rodata.aName0x1018
                0x0802a970       0x3c ./SSC/Src/coeappl.o
                0x0802a970                aName0x1018
 .rodata.asEntryDesc0x10F1
                0x0802a9ac       0x14 ./SSC/Src/coeappl.o
                0x0802a9ac                asEntryDesc0x10F1
 .rodata.aName0x10F1
                0x0802a9c0       0x40 ./SSC/Src/coeappl.o
                0x0802a9c0                aName0x10F1
 .rodata.asEntryDesc0x1C00
                0x0802aa00        0xc ./SSC/Src/coeappl.o
                0x0802aa00                asEntryDesc0x1C00
 .rodata.aName0x1C00
                0x0802aa0c       0x14 ./SSC/Src/coeappl.o
                0x0802aa0c                aName0x1C00
 .rodata.asEntryDesc0x1C3x
                0x0802aa20       0xc8 ./SSC/Src/coeappl.o
                0x0802aa20                asEntryDesc0x1C3x
 .rodata.aName0x1C32
                0x0802aae8      0x100 ./SSC/Src/coeappl.o
                0x0802aae8                aName0x1C32
 .rodata.aName0x1C33
                0x0802abe8      0x100 ./SSC/Src/coeappl.o
                0x0802abe8                aName0x1C33
 .rodata.cBitMask
                0x0802ace8       0x20 ./SSC/Src/objdef.o
                0x0802ace8                cBitMask
 .rodata.cAbortCode
                0x0802ad08       0x78 ./SSC/Src/sdoserv.o
                0x0802ad08                cAbortCode
 .rodata.PWM_CCU8_0_timer_handle
                0x0802ad80       0x10 ./Dave/Generated/PWM_CCU8/pwm_ccu8_conf.o
                0x0802ad80                PWM_CCU8_0_timer_handle
 .rodata.PWM_CCU8_0_event0_config
                0x0802ad90        0x4 ./Dave/Generated/PWM_CCU8/pwm_ccu8_conf.o
                0x0802ad90                PWM_CCU8_0_event0_config
 .rodata.PWM_CCU8_0_event1_config
                0x0802ad94        0x4 ./Dave/Generated/PWM_CCU8/pwm_ccu8_conf.o
                0x0802ad94                PWM_CCU8_0_event1_config
 .rodata.PWM_CCU8_0_event2_config
                0x0802ad98        0x4 ./Dave/Generated/PWM_CCU8/pwm_ccu8_conf.o
                0x0802ad98                PWM_CCU8_0_event2_config
 .rodata.PWM_CCU8_0_dt_config
                0x0802ad9c        0xc ./Dave/Generated/PWM_CCU8/pwm_ccu8_conf.o
                0x0802ad9c                PWM_CCU8_0_dt_config
 .rodata.PWM_CCU8_0_ch1_out1_config
                0x0802ada8        0xc ./Dave/Generated/PWM_CCU8/pwm_ccu8_conf.o
                0x0802ada8                PWM_CCU8_0_ch1_out1_config
 .rodata.PWM_CCU8_0_config_handle
                0x0802adb4       0x90 ./Dave/Generated/PWM_CCU8/pwm_ccu8_conf.o
                0x0802adb4                PWM_CCU8_0_config_handle
 .rodata.INTERRUPT_0
                0x0802ae44        0x4 ./Dave/Generated/INTERRUPT/interrupt_conf.o
                0x0802ae44                INTERRUPT_0
 .rodata.INT_SYNC1
                0x0802ae48        0x4 ./Dave/Generated/INTERRUPT/interrupt_conf.o
                0x0802ae48                INT_SYNC1
 .rodata.INT_SYNC0
                0x0802ae4c        0x4 ./Dave/Generated/INTERRUPT/interrupt_conf.o
                0x0802ae4c                INT_SYNC0
 .rodata.e_eeprom_xmc4_fce
                0x0802ae50        0xc ./Dave/Generated/E_EEPROM_XMC4/e_eeprom_xmc4.o
 .rodata.EG_SYNC1_OGU_Config
                0x0802ae5c        0x4 ./Dave/Generated/EVENT_GENERATOR/event_generator_conf.o
                0x0802ae5c                EG_SYNC1_OGU_Config
 .rodata.EG_SYNC0_OGU_Config
                0x0802ae60        0x4 ./Dave/Generated/EVENT_GENERATOR/event_generator_conf.o
                0x0802ae60                EG_SYNC0_OGU_Config
 .rodata.ED_SYNC1_ETL_Config
                0x0802ae64        0x8 ./Dave/Generated/EVENT_DETECTOR/event_detector_conf.o
                0x0802ae64                ED_SYNC1_ETL_Config
 .rodata.ED_SYNC0_ETL_Config
                0x0802ae6c        0x8 ./Dave/Generated/EVENT_DETECTOR/event_detector_conf.o
                0x0802ae6c                ED_SYNC0_ETL_Config
 .rodata.ECAT_SSC_0
                0x0802ae74        0xc ./Dave/Generated/ECAT_SSC/ecat_ssc_conf.o
                0x0802ae74                ECAT_SSC_0
 .rodata        0x0802ae80       0x14 ./Dave/Generated/CLOCK_XMC4/clock_xmc4_conf.o
 .rodata.str1.1
                0x0802ae94        0x2 c:/davev4-64bit/dave-4.3.2/eclipse/arm-gcc-49/bin/../lib/gcc/arm-none-eabi/4.9.3/../../../../arm-none-eabi/lib/armv7e-m/softfp\libg_nano.a(lib_a-impure.o)
 *(.gnu.linkonce.r*)

.glue_7         0x0802ae98        0x0 load address 0x0c02ae96
 .glue_7        0x00000000        0x0 linker stubs

.glue_7t        0x0802ae98        0x0 load address 0x0c02ae96
 .glue_7t       0x00000000        0x0 linker stubs

.vfp11_veneer   0x0802ae98        0x0 load address 0x0c02ae96
 .vfp11_veneer  0x00000000        0x0 linker stubs

.v4_bx          0x0802ae98        0x0 load address 0x0c02ae96
 .v4_bx         0x00000000        0x0 linker stubs

.iplt           0x0802ae98        0x0 load address 0x0c02ae96
 .iplt          0x00000000        0x0 ./Startup/startup_XMC4800.o

.rel.dyn        0x0802ae98        0x0 load address 0x0c02ae96
 .rel.iplt      0x00000000        0x0 ./Startup/startup_XMC4800.o

.eh_frame_hdr
 *(.eh_frame_hdr)

.eh_frame
 *(.eh_frame)

.ARM.extab
 *(.ARM.extab* .gnu.linkonce.armextab.*)
                0x0802ae98                . = ALIGN (0x4)
                0x0802ae98                __exidx_start = .

.ARM.exidx
 *(.ARM.exidx* .gnu.linkonce.armexidx.*)
                0x0802ae98                __exidx_end = .
                0x0802ae98                . = ALIGN (0x4)

Stack           0x1ffe8000      0x800
                0x1ffe8000                __stack_start = .
                0x1ffe8800                . = (. + stack_size)
 *fill*         0x1ffe8000      0x800 
                0x1ffe8800                __stack_end = .
                0x1ffe8800                __initial_sp = .

.ram_code       0x1ffe8800        0x0 load address 0x0c02ae96
                0x1ffe8800                . = ALIGN (0x4)
                0x1ffe8800                __ram_code_start = .
 *(.ram_code)
                0x1ffe8800                . = ALIGN (0x4)
                0x1ffe8800                __ram_code_end = .
                0x0c02ae96                __ram_code_load = LOADADDR (.ram_code)
                0x00000000                __ram_code_size = (__ram_code_end - __ram_code_start)

.data           0x1ffe8800      0xd18 load address 0x0c02ae96
                0x1ffe8800                . = ALIGN (0x4)
                0x1ffe8800                __data_start = .
 *(vtable)
 *(.data)
 *(.data*)
 .data.OUT_GENERICProcessDataMapping0x1600
                0x1ffe8800       0x34 ./SSC/Src/XMC_ESC.o
                0x1ffe8800                OUT_GENERICProcessDataMapping0x1600
 .data.IN_GENERICProcessDataMapping0x1A00
                0x1ffe8834       0x34 ./SSC/Src/XMC_ESC.o
                0x1ffe8834                IN_GENERICProcessDataMapping0x1A00
 .data.sRxPDOassign
                0x1ffe8868        0x4 ./SSC/Src/XMC_ESC.o
                0x1ffe8868                sRxPDOassign
 .data.sTxPDOassign
                0x1ffe886c        0x4 ./SSC/Src/XMC_ESC.o
                0x1ffe886c                sTxPDOassign
 .data.IN_GENERIC0x6000
                0x1ffe8870        0xc ./SSC/Src/XMC_ESC.o
                0x1ffe8870                IN_GENERIC0x6000
 .data.OUT_GENERIC0x7000
                0x1ffe887c        0xc ./SSC/Src/XMC_ESC.o
                0x1ffe887c                OUT_GENERIC0x7000
 .data.ApplicationObjDic
                0x1ffe8888      0x118 ./SSC/Src/coeappl.o
                0x1ffe8888                ApplicationObjDic
 .data.u32Devicetype
                0x1ffe89a0        0x4 ./SSC/Src/coeappl.o
                0x1ffe89a0                u32Devicetype
 .data.acDevicename
                0x1ffe89a4        0x8 ./SSC/Src/coeappl.o
                0x1ffe89a4                acDevicename
 .data.acHardwareversion
                0x1ffe89ac        0x4 ./SSC/Src/coeappl.o
                0x1ffe89ac                acHardwareversion
 .data.acSoftwareversion
                0x1ffe89b0        0x8 ./SSC/Src/coeappl.o
                0x1ffe89b0                acSoftwareversion
 .data.sIdentity
                0x1ffe89b8       0x14 ./SSC/Src/coeappl.o
                0x1ffe89b8                sIdentity
 .data.sSyncmanagertype
                0x1ffe89cc        0x8 ./SSC/Src/coeappl.o
                0x1ffe89cc                sSyncmanagertype
 .data.GenObjDic
                0x1ffe89d4      0x1b8 ./SSC/Src/coeappl.o
                0x1ffe89d4                GenObjDic
 .data.aEepromData
                0x1ffe8b8c      0x800 ./SSC/Src/ecatappl.o
                0x1ffe8b8c                aEepromData
 .data.sErrorSettings
                0x1ffe938c        0xc ./SSC/Src/objdef.o
                0x1ffe938c                sErrorSettings
 .data.aSubindexDesc
                0x1ffe9398       0x10 ./SSC/Src/objdef.o
                0x1ffe9398                aSubindexDesc
 .data.TIMER_0_config
                0x1ffe93a8        0x8 ./Dave/Generated/TIMER/timer_conf.o
                0x1ffe93a8                TIMER_0_config
 .data.TIMER_0  0x1ffe93b0       0x28 ./Dave/Generated/TIMER/timer_conf.o
                0x1ffe93b0                TIMER_0
 .data.PWM_CCU8_0
                0x1ffe93d8       0x34 ./Dave/Generated/PWM_CCU8/pwm_ccu8_conf.o
                0x1ffe93d8                PWM_CCU8_0
 .data.GLOBAL_CCU8_0
                0x1ffe940c       0x10 ./Dave/Generated/GLOBAL_CCU8/global_ccu8_conf.o
                0x1ffe940c                GLOBAL_CCU8_0
 .data.GLOBAL_CCU4_0
                0x1ffe941c       0x10 ./Dave/Generated/GLOBAL_CCU4/global_ccu4_conf.o
                0x1ffe941c                GLOBAL_CCU4_0
 .data.e_eeprom_xmc4_sector_info
                0x1ffe942c       0x10 ./Dave/Generated/E_EEPROM_XMC4/e_eeprom_xmc4.o
 .data.EG_SYNC1
                0x1ffe943c       0x10 ./Dave/Generated/EVENT_GENERATOR/event_generator_conf.o
                0x1ffe943c                EG_SYNC1
 .data.EG_SYNC0
                0x1ffe944c       0x10 ./Dave/Generated/EVENT_GENERATOR/event_generator_conf.o
                0x1ffe944c                EG_SYNC0
 .data.ED_SYNC1
                0x1ffe945c       0x10 ./Dave/Generated/EVENT_DETECTOR/event_detector_conf.o
                0x1ffe945c                ED_SYNC1
 .data.ED_SYNC0
                0x1ffe946c       0x10 ./Dave/Generated/EVENT_DETECTOR/event_detector_conf.o
                0x1ffe946c                ED_SYNC0
 .data.physical_sector_addresses
                0x1ffe947c       0x2c ./flashprog.o
                0x1ffe947c                physical_sector_addresses
 .data.FCE_config0
                0x1ffe94a8        0xc ./flashprog.o
 .data.impure_data
                0x1ffe94b4       0x60 c:/davev4-64bit/dave-4.3.2/eclipse/arm-gcc-49/bin/../lib/gcc/arm-none-eabi/4.9.3/../../../../arm-none-eabi/lib/armv7e-m/softfp\libg_nano.a(lib_a-impure.o)
 .data._impure_ptr
                0x1ffe9514        0x4 c:/davev4-64bit/dave-4.3.2/eclipse/arm-gcc-49/bin/../lib/gcc/arm-none-eabi/4.9.3/../../../../arm-none-eabi/lib/armv7e-m/softfp\libg_nano.a(lib_a-impure.o)
                0x1ffe9514                _impure_ptr
 *(*.data)
 *(.gnu.linkonce.d*)
                0x1ffe9518                . = ALIGN (0x4)
                0x1ffe9518                PROVIDE (__preinit_array_start, .)
 *(.preinit_array)
                0x1ffe9518                PROVIDE (__preinit_array_end, .)
                0x1ffe9518                . = ALIGN (0x4)
                0x1ffe9518                PROVIDE (__init_array_start, .)
 *(SORT(.init_array.*))
 *(.init_array)
                0x1ffe9518                PROVIDE (__init_array_end, .)
                0x1ffe9518                . = ALIGN (0x4)
                0x1ffe9518                PROVIDE (__fini_array_start, .)
 *(SORT(.fini_array.*))
 *(.fini_array)
                0x1ffe9518                PROVIDE (__fini_array_end, .)
                0x1ffe9518                . = ALIGN (0x4)
                0x1ffe9518                __data_end = .
                0x0c02ae96                __data_load = LOADADDR (.data)
                0x00000d18                __data_size = (__data_end - __data_start)

.igot.plt       0x1ffe9518        0x0 load address 0x0c02bbae
 .igot.plt      0x00000000        0x0 ./Startup/startup_XMC4800.o

.bss            0x1ffe9518     0x1864 load address 0x0c02bbae
                0x1ffe9518                . = ALIGN (0x4)
                0x1ffe9518                __bss_start = .
 *(.bss)
 *(.bss*)
 .bss.u16ErrorRegister
                0x1ffe9518        0x2 ./SSC/Src/coeappl.o
                0x1ffe9518                u16ErrorRegister
 *fill*         0x1ffe951a        0x2 
 .bss.ObjDicList
                0x1ffe951c        0x4 ./SSC/Src/coeappl.o
                0x1ffe951c                ObjDicList
 .bss.bInitFinished
                0x1ffe9520        0x1 ./SSC/Src/ecatappl.o
                0x1ffe9520                bInitFinished
 .bss.SMActivate
                0x1ffe9521        0x1 ./SSC/Src/ecatslv.o
                0x1ffe9521                SMActivate
 .bss.EepromLoaded
                0x1ffe9522        0x1 ./SSC/Src/ecatslv.o
                0x1ffe9522                EepromLoaded
 .bss.bSdoInWork
                0x1ffe9523        0x1 ./SSC/Src/sdoserv.o
                0x1ffe9523                bSdoInWork
 .bss.heap_ptr.4327
                0x1ffe9524        0x4 ./Libraries/Newlib/syscalls.o
 .bss.e_eeprom_xmc4_data_buffer
                0x1ffe9528     0x1000 ./Dave/Generated/E_EEPROM_XMC4/e_eeprom_xmc4.o
 .bss.E_EEPROM_XMC4_0
                0x1ffea528        0x4 ./Dave/Generated/E_EEPROM_XMC4/e_eeprom_xmc4_conf.o
                0x1ffea528                E_EEPROM_XMC4_0
 .bss.ticks     0x1ffea52c        0x4 ./Dave/Generated/ECAT_SSC/xmc_eschw.o
 .bss.CLOCK_XMC4_0
                0x1ffea530        0x4 ./Dave/Generated/CLOCK_XMC4/clock_xmc4_conf.o
                0x1ffea530                CLOCK_XMC4_0
 .bss.meta_page
                0x1ffea534      0x100 ./firmwareupdate_SSC.o
 .bss.g_firmware_download_started
                0x1ffea634        0x1 ./firmwareupdate_SSC.o
 .bss.g_firmware_download_finished
                0x1ffea635        0x1 ./firmwareupdate_SSC.o
 *fill*         0x1ffea636        0x2 
 .bss.gl_flash_write_address
                0x1ffea638        0x4 ./flashprog.o
 .bss.gl_flash_write_start_address
                0x1ffea63c        0x4 ./flashprog.o
 .bss.gl_flash_bytes_written
                0x1ffea640        0x4 ./flashprog.o
 .bss.gl_flash_check_prog
                0x1ffea644        0x1 ./flashprog.o
 *fill*         0x1ffea645        0x1 
 .bss.gl_flash_erased
                0x1ffea646        0x2 ./flashprog.o
 .bss.gl_flash_max_size
                0x1ffea648        0x4 ./flashprog.o
 .bss.gl_flash_page_prep
                0x1ffea64c      0x100 ./flashprog.o
 .bss.gl_flash_page_prep_index
                0x1ffea74c        0x4 ./flashprog.o
 .bss.__malloc_sbrk_start
                0x1ffea750        0x4 c:/davev4-64bit/dave-4.3.2/eclipse/arm-gcc-49/bin/../lib/gcc/arm-none-eabi/4.9.3/../../../../arm-none-eabi/lib/armv7e-m/softfp\libg_nano.a(lib_a-nano-mallocr.o)
                0x1ffea750                __malloc_sbrk_start
 .bss.__malloc_free_list
                0x1ffea754        0x4 c:/davev4-64bit/dave-4.3.2/eclipse/arm-gcc-49/bin/../lib/gcc/arm-none-eabi/4.9.3/../../../../arm-none-eabi/lib/armv7e-m/softfp\libg_nano.a(lib_a-nano-mallocr.o)
                0x1ffea754                __malloc_free_list
 *(COMMON)
 COMMON         0x1ffea758       0xae ./SSC/Src/ecatappl.o
                0x1ffea758                StartTimerCnt
                0x1ffea75c                bCycleTimeMeasurementStarted
                0x1ffea760                pAPPL_EEPROM_Read
                0x1ffea764                pAPPL_EEPROM_Write
                0x1ffea768                bRunApplication
                0x1ffea769                bEcatWaitForInputUpdate
                0x1ffea76c                aPdOutputData
                0x1ffea7b0                bEtherCATErrorLed
                0x1ffea7b4                aPdInputData
                0x1ffea7f8                pEEPROM
                0x1ffea7fc                bEtherCATRunLed
                0x1ffea800                pAPPL_EEPROM_Reload
                0x1ffea804                u16BusCycleCntMs
 *fill*         0x1ffea806        0x2 
 COMMON         0x1ffea808        0x4 ./SSC/Src/ecatcoe.o
                0x1ffea808                pCoeSendStored
 COMMON         0x1ffea80c       0x14 ./SSC/Src/ecatfoe.o
                0x1ffea80c                u32FileOffset
                0x1ffea810                u16FileAccessState
                0x1ffea814                u32PacketNo
                0x1ffea818                pFoeSendStored
                0x1ffea81c                u32LastFileOffset
 COMMON         0x1ffea820       0x4c ./SSC/Src/ecatslv.o
                0x1ffea820                b3BufferMode
                0x1ffea822                nEcatStateTrans
                0x1ffea824                bApplEsmPending
                0x1ffea825                nAlStatus
                0x1ffea826                nPdOutputSize
                0x1ffea828                u16LocalErrorCode
                0x1ffea82a                Sync0WdCounter
                0x1ffea82c                bLocalErrorFlag
                0x1ffea82e                LatchInputSync0Counter
                0x1ffea830                i16WaitForPllRunningCnt
                0x1ffea832                nEscAddrOutputData
                0x1ffea834                Sync0WdValue
                0x1ffea836                u8EcatRunLed
                0x1ffea838                i16WaitForPllRunningTimeout
                0x1ffea83a                Sync1WdValue
                0x1ffea83c                u8dummy
                0x1ffea83e                u16ALEventMask
                0x1ffea840                bDcRunning
                0x1ffea844                SyncManInfo
                0x1ffea84c                LatchInputSync0Value
                0x1ffea84e                bEcatWaitForAlControlRes
                0x1ffea850                nPdInputSize
                0x1ffea852                u16SmSync0Value
                0x1ffea854                nMaxEscAddress
                0x1ffea856                bEcatFirstOutputsReceived
                0x1ffea857                bSmSyncSequenceValid
                0x1ffea858                EsmTimeoutCounter
                0x1ffea85a                bBootMode
                0x1ffea85b                bDcSyncActive
                0x1ffea85c                bEcatOutputUpdateRunning
                0x1ffea85e                Sync1WdCounter
                0x1ffea860                EcatWdValue
                0x1ffea862                bEcatInputUpdateRunning
                0x1ffea863                bEscIntEnabled
                0x1ffea864                bWdTrigger
                0x1ffea866                u16SmSync0Counter
                0x1ffea868                nMaxSyncMan
                0x1ffea869                u8EcatErrorLed
                0x1ffea86a                nEscAddrInputData
 COMMON         0x1ffea86c      0x198 ./SSC/Src/foeappl.o
                0x1ffea86c                nFileWriteOffset
                0x1ffea870                aFileData
                0x1ffea9f0                nFileSize
                0x1ffea9f4                aFileName
 COMMON         0x1ffeaa04      0x294 ./SSC/Src/mailbox.o
                0x1ffeaa04                asMbx
                0x1ffeac04                u8MbxReadCounter
                0x1ffeac08                sMbxSendQueue
                0x1ffeac3c                sMbxReceiveQueue
                0x1ffeac70                bNoMbxMemoryAvailable
                0x1ffeac71                bSendMbxIsFull
                0x1ffeac72                bMbxRunning
                0x1ffeac74                u16EscAddrReceiveMbx
                0x1ffeac78                psStoreMbx
                0x1ffeac7c                u16SendMbxSize
                0x1ffeac80                psReadMbx
                0x1ffeac84                bReceiveMbxIsLocked
                0x1ffeac86                u16EscAddrSendMbx
                0x1ffeac88                psWriteMbx
                0x1ffeac8c                u8MbxWriteCounter
                0x1ffeac8d                u8MailboxSendReqStored
                0x1ffeac8e                u16ReceiveMbxSize
                0x1ffeac90                bMbxRepeatToggle
                0x1ffeac94                psRepeatMbx
 COMMON         0x1ffeac98       0x8e ./SSC/Src/objdef.o
                0x1ffeac98                sSyncManInPar
                0x1ffeacdc                sSyncManOutPar
                0x1ffead20                bSyncSetByUser
                0x1ffead24                sCycleDiag
 *fill*         0x1ffead26        0x2 
 COMMON         0x1ffead28       0x4d ./SSC/Src/sdoserv.o
                0x1ffead28                nSdoInfoIndex
                0x1ffead2c                pStoreData
                0x1ffead30                nSdoSegBytesToHandle
                0x1ffead34                bSdoSegAccess
                0x1ffead35                bSdoSegFollows
                0x1ffead38                nSdoSegCompleteSize
                0x1ffead3c                pSdoPendFunc
                0x1ffead40                u8PendingSdo
                0x1ffead41                bStoreCompleteAccess
                0x1ffead42                bSdoSegLastToggle
                0x1ffead43                nSdoSegService
                0x1ffead44                pSdoInfoObjEntry
                0x1ffead48                nSdoInfoFragmentsLeft
                0x1ffead4c                pSdoResStored
                0x1ffead50                u32StoreDataSize
                0x1ffead54                pSdoSegData
                0x1ffead58                nSdoSegIndex
                0x1ffead5c                aSdoInfoHeader
                0x1ffead6c                pSdoSegObjEntry
                0x1ffead70                nSdoSegSubindex
                0x1ffead72                u16StoreIndex
                0x1ffead74                u8StoreSubindex
 *fill*         0x1ffead75        0x3 
 COMMON         0x1ffead78        0x4 c:/davev4-64bit/dave-4.3.2/eclipse/arm-gcc-49/bin/../lib/gcc/arm-none-eabi/4.9.3/../../../../arm-none-eabi/lib/armv7e-m/softfp\libg_nano.a(lib_a-reent.o)
                0x1ffead78                errno
 *(.gnu.linkonce.b*)
                0x1ffead7c                . = ALIGN (0x4)
                0x1ffead7c                __bss_end = .
                0x00001864                __bss_size = (__bss_end - __bss_start)
                0x00015284                __shift_loc = (__bss_end >= ORIGIN (DSRAM_1_system))?0x0:(ORIGIN (DSRAM_1_system) - __bss_end)

USB_RAM         0x20000000        0x0
                0x20000000                . = ALIGN (0x4)
                0x20000000                USB_RAM_start = .
 *(USB_RAM)
                0x20000000                . = ALIGN (0x4)
                0x20000000                USB_RAM_end = .
                0x00000000                USB_RAM_size = (USB_RAM_end - USB_RAM_start)

ETH_RAM         0x20000000        0x0
                0x20000000                . = ALIGN (0x4)
                0x20000000                ETH_RAM_start = .
 *(ETH_RAM)
                0x20000000                . = ALIGN (0x4)
                0x20000000                ETH_RAM_end = .
                0x20000000                . = ALIGN (0x8)
                0x20000000                Heap_Bank1_Start = .
                0x00000000                ETH_RAM_size = (ETH_RAM_end - ETH_RAM_start)

.no_init        0x2003ffc0       0x14
                0x2003ffc0                Heap_Bank1_End = .
 *(.no_init)
 .no_init       0x2003ffc0       0x14 ./Startup/system_XMC4800.o
                0x2003ffc0                SystemCoreClock
                0x2003ffc4                g_chipid
                0x0003ffc0                Heap_Bank1_Size = (Heap_Bank1_End - Heap_Bank1_Start)
                0x00000001                ASSERT ((Heap_Bank1_Start <= Heap_Bank1_End), region SRAM_combined overflowed no_init section)

/DISCARD/
 *(.comment)

.stab
 *(.stab)

.stabstr
 *(.stabstr)

.debug
 *(.debug)

.line
 *(.line)

.debug_srcinfo
 *(.debug_srcinfo)

.debug_sfnames
 *(.debug_sfnames)

.debug_aranges  0x00000000     0x15b0
 *(.debug_aranges)
 .debug_aranges
                0x00000000       0x20 ./Startup/startup_XMC4800.o
 .debug_aranges
                0x00000020       0x48 ./Startup/system_XMC4800.o
 .debug_aranges
                0x00000068       0x70 ./SSC/Src/XMC_ESC.o
 .debug_aranges
                0x000000d8       0x30 ./SSC/Src/bootmode.o
 .debug_aranges
                0x00000108       0x58 ./SSC/Src/coeappl.o
 .debug_aranges
                0x00000160       0xc8 ./SSC/Src/ecatappl.o
 .debug_aranges
                0x00000228       0x30 ./SSC/Src/ecatcoe.o
 .debug_aranges
                0x00000258       0x30 ./SSC/Src/ecatfoe.o
 .debug_aranges
                0x00000288       0xf0 ./SSC/Src/ecatslv.o
 .debug_aranges
                0x00000378       0x48 ./SSC/Src/foeappl.o
 .debug_aranges
                0x000003c0       0xa0 ./SSC/Src/mailbox.o
 .debug_aranges
                0x00000460       0x78 ./SSC/Src/objdef.o
 .debug_aranges
                0x000004d8       0x48 ./SSC/Src/sdoserv.o
 .debug_aranges
                0x00000520       0x28 ./Libraries/XMCLib/src/xmc4_eru.o
 .debug_aranges
                0x00000548       0xe0 ./Libraries/XMCLib/src/xmc4_flash.o
 .debug_aranges
                0x00000628       0x28 ./Libraries/XMCLib/src/xmc4_gpio.o
 .debug_aranges
                0x00000650      0x3f0 ./Libraries/XMCLib/src/xmc4_scu.o
 .debug_aranges
                0x00000a40      0x138 ./Libraries/XMCLib/src/xmc_ccu4.o
 .debug_aranges
                0x00000b78      0x190 ./Libraries/XMCLib/src/xmc_ccu8.o
 .debug_aranges
                0x00000d08       0x70 ./Libraries/XMCLib/src/xmc_ecat.o
 .debug_aranges
                0x00000d78       0x88 ./Libraries/XMCLib/src/xmc_eru.o
 .debug_aranges
                0x00000e00       0x60 ./Libraries/XMCLib/src/xmc_fce.o
 .debug_aranges
                0x00000e60       0x28 ./Libraries/XMCLib/src/xmc_gpio.o
 .debug_aranges
                0x00000e88       0x28 ./Libraries/Newlib/syscalls.o
 .debug_aranges
                0x00000eb0       0xd8 ./Dave/Generated/TIMER/timer.o
 .debug_aranges
                0x00000f88       0x18 ./Dave/Generated/TIMER/timer_conf.o
 .debug_aranges
                0x00000fa0      0x128 ./Dave/Generated/PWM_CCU8/pwm_ccu8.o
 .debug_aranges
                0x000010c8       0x18 ./Dave/Generated/PWM_CCU8/pwm_ccu8_conf.o
 .debug_aranges
                0x000010e0       0x50 ./Dave/Generated/INTERRUPT/interrupt.o
 .debug_aranges
                0x00001130       0x18 ./Dave/Generated/INTERRUPT/interrupt_conf.o
 .debug_aranges
                0x00001148       0x30 ./Dave/Generated/GLOBAL_CCU8/global_ccu8.o
 .debug_aranges
                0x00001178       0x18 ./Dave/Generated/GLOBAL_CCU8/global_ccu8_conf.o
 .debug_aranges
                0x00001190       0x30 ./Dave/Generated/GLOBAL_CCU4/global_ccu4.o
 .debug_aranges
                0x000011c0       0x18 ./Dave/Generated/GLOBAL_CCU4/global_ccu4_conf.o
 .debug_aranges
                0x000011d8       0xa0 ./Dave/Generated/E_EEPROM_XMC4/e_eeprom_xmc4.o
 .debug_aranges
                0x00001278       0x18 ./Dave/Generated/E_EEPROM_XMC4/e_eeprom_xmc4_conf.o
 .debug_aranges
                0x00001290       0x28 ./Dave/Generated/EVENT_GENERATOR/event_generator.o
 .debug_aranges
                0x000012b8       0x18 ./Dave/Generated/EVENT_GENERATOR/event_generator_conf.o
 .debug_aranges
                0x000012d0       0x28 ./Dave/Generated/EVENT_DETECTOR/event_detector.o
 .debug_aranges
                0x000012f8       0x18 ./Dave/Generated/EVENT_DETECTOR/event_detector_conf.o
 .debug_aranges
                0x00001310       0x28 ./Dave/Generated/ECAT_SSC/ecat_ssc.o
 .debug_aranges
                0x00001338       0x18 ./Dave/Generated/ECAT_SSC/ecat_ssc_conf.o
 .debug_aranges
                0x00001350       0x98 ./Dave/Generated/ECAT_SSC/xmc_eschw.o
 .debug_aranges
                0x000013e8       0x28 ./Dave/Generated/CPU_CTRL_XMC4/cpu_ctrl_xmc4_conf.o
 .debug_aranges
                0x00001410       0x38 ./Dave/Generated/CLOCK_XMC4/clock_xmc4.o
 .debug_aranges
                0x00001448       0x28 ./Dave/Generated/CLOCK_XMC4/clock_xmc4_conf.o
 .debug_aranges
                0x00001470       0x20 ./Dave/Generated/DAVE.o
 .debug_aranges
                0x00001490       0x38 ./firmwareupdate_SSC.o
 .debug_aranges
                0x000014c8       0x78 ./flashprog.o
 .debug_aranges
                0x00001540       0x70 ./main.o

.debug_pubnames
 *(.debug_pubnames)

.debug_pubtypes
 *(.debug_pubtypes)

.debug_info     0x00000000    0x225c0
 *(.debug_info .gnu.linkonce.wi.*)
 .debug_info    0x00000000       0x8e ./Startup/startup_XMC4800.o
 .debug_info    0x0000008e      0x942 ./Startup/system_XMC4800.o
 .debug_info    0x000009d0      0x8b3 ./SSC/Src/XMC_ESC.o
 .debug_info    0x00001283      0x17c ./SSC/Src/bootmode.o
 .debug_info    0x000013ff     0x1013 ./SSC/Src/coeappl.o
 .debug_info    0x00002412     0x17e9 ./SSC/Src/ecatappl.o
 .debug_info    0x00003bfb      0x51e ./SSC/Src/ecatcoe.o
 .debug_info    0x00004119      0x44a ./SSC/Src/ecatfoe.o
 .debug_info    0x00004563     0x1bd4 ./SSC/Src/ecatslv.o
 .debug_info    0x00006137      0x37d ./SSC/Src/foeappl.o
 .debug_info    0x000064b4     0x1474 ./SSC/Src/mailbox.o
 .debug_info    0x00007928      0xd25 ./SSC/Src/objdef.o
 .debug_info    0x0000864d      0xe31 ./SSC/Src/sdoserv.o
 .debug_info    0x0000947e      0x5af ./Libraries/XMCLib/src/xmc4_eru.o
 .debug_info    0x00009a2d      0x849 ./Libraries/XMCLib/src/xmc4_flash.o
 .debug_info    0x0000a276      0x422 ./Libraries/XMCLib/src/xmc4_gpio.o
 .debug_info    0x0000a698     0x23fa ./Libraries/XMCLib/src/xmc4_scu.o
 .debug_info    0x0000ca92     0x167b ./Libraries/XMCLib/src/xmc_ccu4.o
 .debug_info    0x0000e10d     0x1d9b ./Libraries/XMCLib/src/xmc_ccu8.o
 .debug_info    0x0000fea8     0x10bf ./Libraries/XMCLib/src/xmc_ecat.o
 .debug_info    0x00010f67      0xaaf ./Libraries/XMCLib/src/xmc_eru.o
 .debug_info    0x00011a16      0x7a4 ./Libraries/XMCLib/src/xmc_fce.o
 .debug_info    0x000121ba      0x39d ./Libraries/XMCLib/src/xmc_gpio.o
 .debug_info    0x00012557      0x11f ./Libraries/Newlib/syscalls.o
 .debug_info    0x00012676      0xd8b ./Dave/Generated/TIMER/timer.o
 .debug_info    0x00013401      0x833 ./Dave/Generated/TIMER/timer_conf.o
 .debug_info    0x00013c34     0x1ea3 ./Dave/Generated/PWM_CCU8/pwm_ccu8.o
 .debug_info    0x00015ad7     0x1500 ./Dave/Generated/PWM_CCU8/pwm_ccu8_conf.o
 .debug_info    0x00016fd7      0x917 ./Dave/Generated/INTERRUPT/interrupt.o
 .debug_info    0x000178ee      0x430 ./Dave/Generated/INTERRUPT/interrupt_conf.o
 .debug_info    0x00017d1e      0x395 ./Dave/Generated/GLOBAL_CCU8/global_ccu8.o
 .debug_info    0x000180b3      0x295 ./Dave/Generated/GLOBAL_CCU8/global_ccu8_conf.o
 .debug_info    0x00018348      0x386 ./Dave/Generated/GLOBAL_CCU4/global_ccu4.o
 .debug_info    0x000186ce      0x286 ./Dave/Generated/GLOBAL_CCU4/global_ccu4_conf.o
 .debug_info    0x00018954      0xa42 ./Dave/Generated/E_EEPROM_XMC4/e_eeprom_xmc4.o
 .debug_info    0x00019396       0xda ./Dave/Generated/E_EEPROM_XMC4/e_eeprom_xmc4_conf.o
 .debug_info    0x00019470      0x545 ./Dave/Generated/EVENT_GENERATOR/event_generator.o
 .debug_info    0x000199b5      0x4dc ./Dave/Generated/EVENT_GENERATOR/event_generator_conf.o
 .debug_info    0x00019e91      0x59a ./Dave/Generated/EVENT_DETECTOR/event_detector.o
 .debug_info    0x0001a42b      0x618 ./Dave/Generated/EVENT_DETECTOR/event_detector_conf.o
 .debug_info    0x0001aa43      0xbec ./Dave/Generated/ECAT_SSC/ecat_ssc.o
 .debug_info    0x0001b62f      0xb2d ./Dave/Generated/ECAT_SSC/ecat_ssc_conf.o
 .debug_info    0x0001c15c     0x1e04 ./Dave/Generated/ECAT_SSC/xmc_eschw.o
 .debug_info    0x0001df60      0x475 ./Dave/Generated/CPU_CTRL_XMC4/cpu_ctrl_xmc4_conf.o
 .debug_info    0x0001e3d5      0x224 ./Dave/Generated/CLOCK_XMC4/clock_xmc4.o
 .debug_info    0x0001e5f9      0x5a0 ./Dave/Generated/CLOCK_XMC4/clock_xmc4_conf.o
 .debug_info    0x0001eb99     0x228b ./Dave/Generated/DAVE.o
 .debug_info    0x00020e24      0x1d6 ./firmwareupdate_SSC.o
 .debug_info    0x00020ffa      0x696 ./flashprog.o
 .debug_info    0x00021690      0xf30 ./main.o

.debug_abbrev   0x00000000     0x52ef
 *(.debug_abbrev)
 .debug_abbrev  0x00000000       0x14 ./Startup/startup_XMC4800.o
 .debug_abbrev  0x00000014      0x1a1 ./Startup/system_XMC4800.o
 .debug_abbrev  0x000001b5      0x20b ./SSC/Src/XMC_ESC.o
 .debug_abbrev  0x000003c0       0x9f ./SSC/Src/bootmode.o
 .debug_abbrev  0x0000045f      0x1e4 ./SSC/Src/coeappl.o
 .debug_abbrev  0x00000643      0x2b1 ./SSC/Src/ecatappl.o
 .debug_abbrev  0x000008f4      0x166 ./SSC/Src/ecatcoe.o
 .debug_abbrev  0x00000a5a      0x1a5 ./SSC/Src/ecatfoe.o
 .debug_abbrev  0x00000bff      0x2d6 ./SSC/Src/ecatslv.o
 .debug_abbrev  0x00000ed5      0x135 ./SSC/Src/foeappl.o
 .debug_abbrev  0x0000100a      0x225 ./SSC/Src/mailbox.o
 .debug_abbrev  0x0000122f      0x20b ./SSC/Src/objdef.o
 .debug_abbrev  0x0000143a      0x242 ./SSC/Src/sdoserv.o
 .debug_abbrev  0x0000167c      0x13b ./Libraries/XMCLib/src/xmc4_eru.o
 .debug_abbrev  0x000017b7      0x1c2 ./Libraries/XMCLib/src/xmc4_flash.o
 .debug_abbrev  0x00001979      0x11b ./Libraries/XMCLib/src/xmc4_gpio.o
 .debug_abbrev  0x00001a94      0x2a7 ./Libraries/XMCLib/src/xmc4_scu.o
 .debug_abbrev  0x00001d3b      0x1fc ./Libraries/XMCLib/src/xmc_ccu4.o
 .debug_abbrev  0x00001f37      0x21e ./Libraries/XMCLib/src/xmc_ccu8.o
 .debug_abbrev  0x00002155      0x21d ./Libraries/XMCLib/src/xmc_ecat.o
 .debug_abbrev  0x00002372      0x1e8 ./Libraries/XMCLib/src/xmc_eru.o
 .debug_abbrev  0x0000255a      0x1a7 ./Libraries/XMCLib/src/xmc_fce.o
 .debug_abbrev  0x00002701      0x10c ./Libraries/XMCLib/src/xmc_gpio.o
 .debug_abbrev  0x0000280d       0xbd ./Libraries/Newlib/syscalls.o
 .debug_abbrev  0x000028ca      0x22b ./Dave/Generated/TIMER/timer.o
 .debug_abbrev  0x00002af5      0x15a ./Dave/Generated/TIMER/timer_conf.o
 .debug_abbrev  0x00002c4f      0x28c ./Dave/Generated/PWM_CCU8/pwm_ccu8.o
 .debug_abbrev  0x00002edb      0x19c ./Dave/Generated/PWM_CCU8/pwm_ccu8_conf.o
 .debug_abbrev  0x00003077      0x1da ./Dave/Generated/INTERRUPT/interrupt.o
 .debug_abbrev  0x00003251       0x97 ./Dave/Generated/INTERRUPT/interrupt_conf.o
 .debug_abbrev  0x000032e8      0x16f ./Dave/Generated/GLOBAL_CCU8/global_ccu8.o
 .debug_abbrev  0x00003457       0xfd ./Dave/Generated/GLOBAL_CCU8/global_ccu8_conf.o
 .debug_abbrev  0x00003554      0x16f ./Dave/Generated/GLOBAL_CCU4/global_ccu4.o
 .debug_abbrev  0x000036c3       0xfd ./Dave/Generated/GLOBAL_CCU4/global_ccu4_conf.o
 .debug_abbrev  0x000037c0      0x2a7 ./Dave/Generated/E_EEPROM_XMC4/e_eeprom_xmc4.o
 .debug_abbrev  0x00003a67       0x7a ./Dave/Generated/E_EEPROM_XMC4/e_eeprom_xmc4_conf.o
 .debug_abbrev  0x00003ae1      0x1b8 ./Dave/Generated/EVENT_GENERATOR/event_generator.o
 .debug_abbrev  0x00003c99      0x16d ./Dave/Generated/EVENT_GENERATOR/event_generator_conf.o
 .debug_abbrev  0x00003e06      0x1a7 ./Dave/Generated/EVENT_DETECTOR/event_detector.o
 .debug_abbrev  0x00003fad      0x15c ./Dave/Generated/EVENT_DETECTOR/event_detector_conf.o
 .debug_abbrev  0x00004109      0x1b7 ./Dave/Generated/ECAT_SSC/ecat_ssc.o
 .debug_abbrev  0x000042c0      0x167 ./Dave/Generated/ECAT_SSC/ecat_ssc_conf.o
 .debug_abbrev  0x00004427      0x386 ./Dave/Generated/ECAT_SSC/xmc_eschw.o
 .debug_abbrev  0x000047ad      0x184 ./Dave/Generated/CPU_CTRL_XMC4/cpu_ctrl_xmc4_conf.o
 .debug_abbrev  0x00004931      0x10f ./Dave/Generated/CLOCK_XMC4/clock_xmc4.o
 .debug_abbrev  0x00004a40      0x138 ./Dave/Generated/CLOCK_XMC4/clock_xmc4_conf.o
 .debug_abbrev  0x00004b78      0x1c7 ./Dave/Generated/DAVE.o
 .debug_abbrev  0x00004d3f      0x119 ./firmwareupdate_SSC.o
 .debug_abbrev  0x00004e58      0x26d ./flashprog.o
 .debug_abbrev  0x000050c5      0x22a ./main.o

.debug_line     0x00000000     0xb749
 *(.debug_line)
 .debug_line    0x00000000       0x87 ./Startup/startup_XMC4800.o
 .debug_line    0x00000087      0x308 ./Startup/system_XMC4800.o
 .debug_line    0x0000038f      0x2af ./SSC/Src/XMC_ESC.o
 .debug_line    0x0000063e      0x180 ./SSC/Src/bootmode.o
 .debug_line    0x000007be      0x28e ./SSC/Src/coeappl.o
 .debug_line    0x00000a4c      0x5bf ./SSC/Src/ecatappl.o
 .debug_line    0x0000100b      0x1c1 ./SSC/Src/ecatcoe.o
 .debug_line    0x000011cc      0x23e ./SSC/Src/ecatfoe.o
 .debug_line    0x0000140a      0x9c7 ./SSC/Src/ecatslv.o
 .debug_line    0x00001dd1      0x204 ./SSC/Src/foeappl.o
 .debug_line    0x00001fd5      0x4da ./SSC/Src/mailbox.o
 .debug_line    0x000024af      0x586 ./SSC/Src/objdef.o
 .debug_line    0x00002a35      0x3ba ./SSC/Src/sdoserv.o
 .debug_line    0x00002def      0x27d ./Libraries/XMCLib/src/xmc4_eru.o
 .debug_line    0x0000306c      0x4fa ./Libraries/XMCLib/src/xmc4_flash.o
 .debug_line    0x00003566      0x20b ./Libraries/XMCLib/src/xmc4_gpio.o
 .debug_line    0x00003771      0xe21 ./Libraries/XMCLib/src/xmc4_scu.o
 .debug_line    0x00004592      0x64d ./Libraries/XMCLib/src/xmc_ccu4.o
 .debug_line    0x00004bdf      0x71b ./Libraries/XMCLib/src/xmc_ccu8.o
 .debug_line    0x000052fa      0x36e ./Libraries/XMCLib/src/xmc_ecat.o
 .debug_line    0x00005668      0x2ce ./Libraries/XMCLib/src/xmc_eru.o
 .debug_line    0x00005936      0x380 ./Libraries/XMCLib/src/xmc_fce.o
 .debug_line    0x00005cb6      0x1f9 ./Libraries/XMCLib/src/xmc_gpio.o
 .debug_line    0x00005eaf       0xbd ./Libraries/Newlib/syscalls.o
 .debug_line    0x00005f6c      0x56d ./Dave/Generated/TIMER/timer.o
 .debug_line    0x000064d9      0x2f8 ./Dave/Generated/TIMER/timer_conf.o
 .debug_line    0x000067d1      0x73c ./Dave/Generated/PWM_CCU8/pwm_ccu8.o
 .debug_line    0x00006f0d      0x2ea ./Dave/Generated/PWM_CCU8/pwm_ccu8_conf.o
 .debug_line    0x000071f7      0x30c ./Dave/Generated/INTERRUPT/interrupt.o
 .debug_line    0x00007503      0x1f5 ./Dave/Generated/INTERRUPT/interrupt_conf.o
 .debug_line    0x000076f8      0x323 ./Dave/Generated/GLOBAL_CCU8/global_ccu8.o
 .debug_line    0x00007a1b      0x283 ./Dave/Generated/GLOBAL_CCU8/global_ccu8_conf.o
 .debug_line    0x00007c9e      0x323 ./Dave/Generated/GLOBAL_CCU4/global_ccu4.o
 .debug_line    0x00007fc1      0x283 ./Dave/Generated/GLOBAL_CCU4/global_ccu4_conf.o
 .debug_line    0x00008244      0x4ed ./Dave/Generated/E_EEPROM_XMC4/e_eeprom_xmc4.o
 .debug_line    0x00008731      0x181 ./Dave/Generated/E_EEPROM_XMC4/e_eeprom_xmc4_conf.o
 .debug_line    0x000088b2      0x2fd ./Dave/Generated/EVENT_GENERATOR/event_generator.o
 .debug_line    0x00008baf      0x273 ./Dave/Generated/EVENT_GENERATOR/event_generator_conf.o
 .debug_line    0x00008e22      0x272 ./Dave/Generated/EVENT_DETECTOR/event_detector.o
 .debug_line    0x00009094      0x1e9 ./Dave/Generated/EVENT_DETECTOR/event_detector_conf.o
 .debug_line    0x0000927d      0x4c3 ./Dave/Generated/ECAT_SSC/ecat_ssc.o
 .debug_line    0x00009740      0x404 ./Dave/Generated/ECAT_SSC/ecat_ssc_conf.o
 .debug_line    0x00009b44      0x4c6 ./Dave/Generated/ECAT_SSC/xmc_eschw.o
 .debug_line    0x0000a00a      0x272 ./Dave/Generated/CPU_CTRL_XMC4/cpu_ctrl_xmc4_conf.o
 .debug_line    0x0000a27c      0x2ab ./Dave/Generated/CLOCK_XMC4/clock_xmc4.o
 .debug_line    0x0000a527      0x2a4 ./Dave/Generated/CLOCK_XMC4/clock_xmc4_conf.o
 .debug_line    0x0000a7cb      0x517 ./Dave/Generated/DAVE.o
 .debug_line    0x0000ace2      0x215 ./firmwareupdate_SSC.o
 .debug_line    0x0000aef7      0x3bb ./flashprog.o
 .debug_line    0x0000b2b2      0x497 ./main.o

.debug_frame    0x00000000     0x56bc
 *(.debug_frame)
 .debug_frame   0x00000000       0xec ./Startup/system_XMC4800.o
 .debug_frame   0x000000ec      0x1a4 ./SSC/Src/XMC_ESC.o
 .debug_frame   0x00000290       0x88 ./SSC/Src/bootmode.o
 .debug_frame   0x00000318      0x154 ./SSC/Src/coeappl.o
 .debug_frame   0x0000046c      0x310 ./SSC/Src/ecatappl.o
 .debug_frame   0x0000077c       0x84 ./SSC/Src/ecatcoe.o
 .debug_frame   0x00000800       0x84 ./SSC/Src/ecatfoe.o
 .debug_frame   0x00000884      0x40c ./SSC/Src/ecatslv.o
 .debug_frame   0x00000c90      0x100 ./SSC/Src/foeappl.o
 .debug_frame   0x00000d90      0x2b8 ./SSC/Src/mailbox.o
 .debug_frame   0x00001048      0x200 ./SSC/Src/objdef.o
 .debug_frame   0x00001248      0x11c ./SSC/Src/sdoserv.o
 .debug_frame   0x00001364       0x60 ./Libraries/XMCLib/src/xmc4_eru.o
 .debug_frame   0x000013c4      0x3dc ./Libraries/XMCLib/src/xmc4_flash.o
 .debug_frame   0x000017a0       0x60 ./Libraries/XMCLib/src/xmc4_gpio.o
 .debug_frame   0x00001800     0x1290 ./Libraries/XMCLib/src/xmc4_scu.o
 .debug_frame   0x00002a90      0x5b0 ./Libraries/XMCLib/src/xmc_ccu4.o
 .debug_frame   0x00003040      0x768 ./Libraries/XMCLib/src/xmc_ccu8.o
 .debug_frame   0x000037a8      0x1a8 ./Libraries/XMCLib/src/xmc_ecat.o
 .debug_frame   0x00003950      0x240 ./Libraries/XMCLib/src/xmc_eru.o
 .debug_frame   0x00003b90      0x160 ./Libraries/XMCLib/src/xmc_fce.o
 .debug_frame   0x00003cf0       0x60 ./Libraries/XMCLib/src/xmc_gpio.o
 .debug_frame   0x00003d50       0x5c ./Libraries/Newlib/syscalls.o
 .debug_frame   0x00003dac      0x3e0 ./Dave/Generated/TIMER/timer.o
 .debug_frame   0x0000418c      0x560 ./Dave/Generated/PWM_CCU8/pwm_ccu8.o
 .debug_frame   0x000046ec      0x124 ./Dave/Generated/INTERRUPT/interrupt.o
 .debug_frame   0x00004810       0x88 ./Dave/Generated/GLOBAL_CCU8/global_ccu8.o
 .debug_frame   0x00004898       0x88 ./Dave/Generated/GLOBAL_CCU4/global_ccu4.o
 .debug_frame   0x00004920      0x2b0 ./Dave/Generated/E_EEPROM_XMC4/e_eeprom_xmc4.o
 .debug_frame   0x00004bd0       0x60 ./Dave/Generated/EVENT_GENERATOR/event_generator.o
 .debug_frame   0x00004c30       0x60 ./Dave/Generated/EVENT_DETECTOR/event_detector.o
 .debug_frame   0x00004c90       0x60 ./Dave/Generated/ECAT_SSC/ecat_ssc.o
 .debug_frame   0x00004cf0      0x25c ./Dave/Generated/ECAT_SSC/xmc_eschw.o
 .debug_frame   0x00004f4c       0x60 ./Dave/Generated/CPU_CTRL_XMC4/cpu_ctrl_xmc4_conf.o
 .debug_frame   0x00004fac       0xac ./Dave/Generated/CLOCK_XMC4/clock_xmc4.o
 .debug_frame   0x00005058       0x64 ./Dave/Generated/CLOCK_XMC4/clock_xmc4_conf.o
 .debug_frame   0x000050bc       0x38 ./Dave/Generated/DAVE.o
 .debug_frame   0x000050f4       0x9c ./firmwareupdate_SSC.o
 .debug_frame   0x00005190      0x1e0 ./flashprog.o
 .debug_frame   0x00005370      0x188 ./main.o
 .debug_frame   0x000054f8       0x20 c:/davev4-64bit/dave-4.3.2/eclipse/arm-gcc-49/bin/../lib/gcc/arm-none-eabi/4.9.3/../../../../arm-none-eabi/lib/armv7e-m/softfp\libg_nano.a(lib_a-errno.o)
 .debug_frame   0x00005518       0x2c c:/davev4-64bit/dave-4.3.2/eclipse/arm-gcc-49/bin/../lib/gcc/arm-none-eabi/4.9.3/../../../../arm-none-eabi/lib/armv7e-m/softfp\libg_nano.a(lib_a-init.o)
 .debug_frame   0x00005544       0x30 c:/davev4-64bit/dave-4.3.2/eclipse/arm-gcc-49/bin/../lib/gcc/arm-none-eabi/4.9.3/../../../../arm-none-eabi/lib/armv7e-m/softfp\libg_nano.a(lib_a-malloc.o)
 .debug_frame   0x00005574       0x28 c:/davev4-64bit/dave-4.3.2/eclipse/arm-gcc-49/bin/../lib/gcc/arm-none-eabi/4.9.3/../../../../arm-none-eabi/lib/armv7e-m/softfp\libg_nano.a(lib_a-memcpy.o)
 .debug_frame   0x0000559c       0x20 c:/davev4-64bit/dave-4.3.2/eclipse/arm-gcc-49/bin/../lib/gcc/arm-none-eabi/4.9.3/../../../../arm-none-eabi/lib/armv7e-m/softfp\libg_nano.a(lib_a-memset.o)
 .debug_frame   0x000055bc       0x2c c:/davev4-64bit/dave-4.3.2/eclipse/arm-gcc-49/bin/../lib/gcc/arm-none-eabi/4.9.3/../../../../arm-none-eabi/lib/armv7e-m/softfp\libg_nano.a(lib_a-nano-freer.o)
 .debug_frame   0x000055e8       0x2c c:/davev4-64bit/dave-4.3.2/eclipse/arm-gcc-49/bin/../lib/gcc/arm-none-eabi/4.9.3/../../../../arm-none-eabi/lib/armv7e-m/softfp\libg_nano.a(lib_a-nano-mallocr.o)
 .debug_frame   0x00005614       0x2c c:/davev4-64bit/dave-4.3.2/eclipse/arm-gcc-49/bin/../lib/gcc/arm-none-eabi/4.9.3/../../../../arm-none-eabi/lib/armv7e-m/softfp\libg_nano.a(lib_a-sbrkr.o)
 .debug_frame   0x00005640       0x20 c:/davev4-64bit/dave-4.3.2/eclipse/arm-gcc-49/bin/../lib/gcc/arm-none-eabi/4.9.3/../../../../arm-none-eabi/lib/armv7e-m/softfp\libg_nano.a(lib_a-strlen.o)
 .debug_frame   0x00005660       0x5c c:/davev4-64bit/dave-4.3.2/eclipse/arm-gcc-49/bin/../lib/gcc/arm-none-eabi/4.9.3/../../../../arm-none-eabi/lib/armv7e-m/softfp\libg_nano.a(lib_a-reent.o)

.debug_str      0x00000000     0xd950
 *(.debug_str)
 .debug_str     0x00000000      0x565 ./Startup/system_XMC4800.o
                                0x5d1 (size before relaxing)
 .debug_str     0x00000565      0x410 ./SSC/Src/XMC_ESC.o
                                0x64d (size before relaxing)
 .debug_str     0x00000975       0x41 ./SSC/Src/bootmode.o
                                0x25f (size before relaxing)
 .debug_str     0x000009b6      0x5ce ./SSC/Src/coeappl.o
                                0xaa3 (size before relaxing)
 .debug_str     0x00000f84     0x10da ./SSC/Src/ecatappl.o
                               0x154c (size before relaxing)
 .debug_str     0x0000205e      0x140 ./SSC/Src/ecatcoe.o
                                0x3ea (size before relaxing)
 .debug_str     0x0000219e      0x12b ./SSC/Src/ecatfoe.o
                                0x39d (size before relaxing)
 .debug_str     0x000022c9      0x402 ./SSC/Src/ecatslv.o
                               0x17ef (size before relaxing)
 .debug_str     0x000026cb       0xcd ./SSC/Src/foeappl.o
                                0x318 (size before relaxing)
 .debug_str     0x00002798      0x246 ./SSC/Src/mailbox.o
                                0xce7 (size before relaxing)
 .debug_str     0x000029de      0x225 ./SSC/Src/objdef.o
                                0x74a (size before relaxing)
 .debug_str     0x00002c03      0x294 ./SSC/Src/sdoserv.o
                                0x7c0 (size before relaxing)
 .debug_str     0x00002e97      0x75e ./Libraries/XMCLib/src/xmc4_eru.o
                                0x979 (size before relaxing)
 .debug_str     0x000035f5      0x890 ./Libraries/XMCLib/src/xmc4_flash.o
                                0xb0d (size before relaxing)
 .debug_str     0x00003e85      0x535 ./Libraries/XMCLib/src/xmc4_gpio.o
                                0x775 (size before relaxing)
 .debug_str     0x000043ba     0x1d4c ./Libraries/XMCLib/src/xmc4_scu.o
                               0x290b (size before relaxing)
 .debug_str     0x00006106     0x1306 ./Libraries/XMCLib/src/xmc_ccu4.o
                               0x1c9f (size before relaxing)
 .debug_str     0x0000740c     0x1820 ./Libraries/XMCLib/src/xmc_ccu8.o
                               0x23e3 (size before relaxing)
 .debug_str     0x00008c2c      0x279 ./Libraries/XMCLib/src/xmc_ecat.o
                               0x125a (size before relaxing)
 .debug_str     0x00008ea5      0x9c5 ./Libraries/XMCLib/src/xmc_eru.o
                                0xc79 (size before relaxing)
 .debug_str     0x0000986a      0x293 ./Libraries/XMCLib/src/xmc_fce.o
                                0xb8f (size before relaxing)
 .debug_str     0x00009afd       0xca ./Libraries/XMCLib/src/xmc_gpio.o
                                0x623 (size before relaxing)
 .debug_str     0x00009bc7       0x6f ./Libraries/Newlib/syscalls.o
                                0x229 (size before relaxing)
 .debug_str     0x00009c36      0x564 ./Dave/Generated/TIMER/timer.o
                                0xc30 (size before relaxing)
 .debug_str     0x0000a19a      0x29a ./Dave/Generated/TIMER/timer_conf.o
                                0xb75 (size before relaxing)
 .debug_str     0x0000a434      0xd8a ./Dave/Generated/PWM_CCU8/pwm_ccu8.o
                               0x25d1 (size before relaxing)
 .debug_str     0x0000b1be      0x340 ./Dave/Generated/PWM_CCU8/pwm_ccu8_conf.o
                               0x2257 (size before relaxing)
 .debug_str     0x0000b4fe      0x184 ./Dave/Generated/INTERRUPT/interrupt.o
                                0xaa7 (size before relaxing)
 .debug_str     0x0000b682       0x4d ./Dave/Generated/INTERRUPT/interrupt_conf.o
                                0x87c (size before relaxing)
 .debug_str     0x0000b6cf       0x57 ./Dave/Generated/GLOBAL_CCU8/global_ccu8.o
                                0x579 (size before relaxing)
 .debug_str     0x0000b726       0x31 ./Dave/Generated/GLOBAL_CCU8/global_ccu8_conf.o
                                0x48d (size before relaxing)
 .debug_str     0x0000b757       0xb5 ./Dave/Generated/GLOBAL_CCU4/global_ccu4.o
                                0x573 (size before relaxing)
 .debug_str     0x0000b80c       0x31 ./Dave/Generated/GLOBAL_CCU4/global_ccu4_conf.o
                                0x487 (size before relaxing)
 .debug_str     0x0000b83d      0x53a ./Dave/Generated/E_EEPROM_XMC4/e_eeprom_xmc4.o
                                0xbd4 (size before relaxing)
 .debug_str     0x0000bd77       0x45 ./Dave/Generated/E_EEPROM_XMC4/e_eeprom_xmc4_conf.o
                                0x248 (size before relaxing)
 .debug_str     0x0000bdbc      0x10f ./Dave/Generated/EVENT_GENERATOR/event_generator.o
                                0x480 (size before relaxing)
 .debug_str     0x0000becb       0x73 ./Dave/Generated/EVENT_GENERATOR/event_generator_conf.o
                                0x4b6 (size before relaxing)
 .debug_str     0x0000bf3e       0xed ./Dave/Generated/EVENT_DETECTOR/event_detector.o
                                0x470 (size before relaxing)
 .debug_str     0x0000c02b       0x71 ./Dave/Generated/EVENT_DETECTOR/event_detector_conf.o
                                0x7dd (size before relaxing)
 .debug_str     0x0000c09c       0xc9 ./Dave/Generated/ECAT_SSC/ecat_ssc.o
                                0xf18 (size before relaxing)
 .debug_str     0x0000c165       0x36 ./Dave/Generated/ECAT_SSC/ecat_ssc_conf.o
                                0xe7d (size before relaxing)
 .debug_str     0x0000c19b      0xd70 ./Dave/Generated/ECAT_SSC/xmc_eschw.o
                               0x2456 (size before relaxing)
 .debug_str     0x0000cf0b       0x86 ./Dave/Generated/CPU_CTRL_XMC4/cpu_ctrl_xmc4_conf.o
                                0x3b3 (size before relaxing)
 .debug_str     0x0000cf91       0xe7 ./Dave/Generated/CLOCK_XMC4/clock_xmc4.o
                                0x366 (size before relaxing)
 .debug_str     0x0000d078       0xe5 ./Dave/Generated/CLOCK_XMC4/clock_xmc4_conf.o
                                0x8ee (size before relaxing)
 .debug_str     0x0000d15d       0x85 ./Dave/Generated/DAVE.o
                               0x2970 (size before relaxing)
 .debug_str     0x0000d1e2       0xc0 ./firmwareupdate_SSC.o
                                0x2e4 (size before relaxing)
 .debug_str     0x0000d2a2      0x2e1 ./flashprog.o
                                0x65d (size before relaxing)
 .debug_str     0x0000d583      0x3cd ./main.o
                                0xd3e (size before relaxing)

.debug_loc      0x00000000     0xad92
 *(.debug_loc)
 .debug_loc     0x00000000      0x1a4 ./Startup/system_XMC4800.o
 .debug_loc     0x000001a4      0x310 ./SSC/Src/XMC_ESC.o
 .debug_loc     0x000004b4      0x114 ./SSC/Src/bootmode.o
 .debug_loc     0x000005c8      0x28c ./SSC/Src/coeappl.o
 .debug_loc     0x00000854      0x5a8 ./SSC/Src/ecatappl.o
 .debug_loc     0x00000dfc       0xe4 ./SSC/Src/ecatcoe.o
 .debug_loc     0x00000ee0       0xe4 ./SSC/Src/ecatfoe.o
 .debug_loc     0x00000fc4      0x810 ./SSC/Src/ecatslv.o
 .debug_loc     0x000017d4      0x1e0 ./SSC/Src/foeappl.o
 .debug_loc     0x000019b4      0x574 ./SSC/Src/mailbox.o
 .debug_loc     0x00001f28      0x40e ./SSC/Src/objdef.o
 .debug_loc     0x00002336      0x1e4 ./SSC/Src/sdoserv.o
 .debug_loc     0x0000251a       0xa0 ./Libraries/XMCLib/src/xmc4_eru.o
 .debug_loc     0x000025ba      0x830 ./Libraries/XMCLib/src/xmc4_flash.o
 .debug_loc     0x00002dea       0xb8 ./Libraries/XMCLib/src/xmc4_gpio.o
 .debug_loc     0x00002ea2     0x26dc ./Libraries/XMCLib/src/xmc4_scu.o
 .debug_loc     0x0000557e      0xc90 ./Libraries/XMCLib/src/xmc_ccu4.o
 .debug_loc     0x0000620e     0x106c ./Libraries/XMCLib/src/xmc_ccu8.o
 .debug_loc     0x0000727a      0x340 ./Libraries/XMCLib/src/xmc_ecat.o
 .debug_loc     0x000075ba      0x4f0 ./Libraries/XMCLib/src/xmc_eru.o
 .debug_loc     0x00007aaa      0x2dc ./Libraries/XMCLib/src/xmc_fce.o
 .debug_loc     0x00007d86       0xb8 ./Libraries/XMCLib/src/xmc_gpio.o
 .debug_loc     0x00007e3e       0x94 ./Libraries/Newlib/syscalls.o
 .debug_loc     0x00007ed2      0x81c ./Dave/Generated/TIMER/timer.o
 .debug_loc     0x000086ee      0xb54 ./Dave/Generated/PWM_CCU8/pwm_ccu8.o
 .debug_loc     0x00009242      0x254 ./Dave/Generated/INTERRUPT/interrupt.o
 .debug_loc     0x00009496      0x108 ./Dave/Generated/GLOBAL_CCU8/global_ccu8.o
 .debug_loc     0x0000959e      0x108 ./Dave/Generated/GLOBAL_CCU4/global_ccu4.o
 .debug_loc     0x000096a6      0x5a4 ./Dave/Generated/E_EEPROM_XMC4/e_eeprom_xmc4.o
 .debug_loc     0x00009c4a       0xac ./Dave/Generated/EVENT_GENERATOR/event_generator.o
 .debug_loc     0x00009cf6       0xac ./Dave/Generated/EVENT_DETECTOR/event_detector.o
 .debug_loc     0x00009da2       0xac ./Dave/Generated/ECAT_SSC/ecat_ssc.o
 .debug_loc     0x00009e4e      0x494 ./Dave/Generated/ECAT_SSC/xmc_eschw.o
 .debug_loc     0x0000a2e2       0xac ./Dave/Generated/CPU_CTRL_XMC4/cpu_ctrl_xmc4_conf.o
 .debug_loc     0x0000a38e      0x14c ./Dave/Generated/CLOCK_XMC4/clock_xmc4.o
 .debug_loc     0x0000a4da       0xac ./Dave/Generated/CLOCK_XMC4/clock_xmc4_conf.o
 .debug_loc     0x0000a586       0x50 ./Dave/Generated/DAVE.o
 .debug_loc     0x0000a5d6      0x104 ./firmwareupdate_SSC.o
 .debug_loc     0x0000a6da      0x3d8 ./flashprog.o
 .debug_loc     0x0000aab2      0x2e0 ./main.o

.debug_macinfo
 *(.debug_macinfo)

.debug_ranges   0x00000000     0x1298
 *(.debug_ranges)
 .debug_ranges  0x00000000       0x38 ./Startup/system_XMC4800.o
 .debug_ranges  0x00000038       0x60 ./SSC/Src/XMC_ESC.o
 .debug_ranges  0x00000098       0x20 ./SSC/Src/bootmode.o
 .debug_ranges  0x000000b8       0x48 ./SSC/Src/coeappl.o
 .debug_ranges  0x00000100       0xd0 ./SSC/Src/ecatappl.o
 .debug_ranges  0x000001d0       0x20 ./SSC/Src/ecatcoe.o
 .debug_ranges  0x000001f0       0x50 ./SSC/Src/ecatfoe.o
 .debug_ranges  0x00000240       0xe0 ./SSC/Src/ecatslv.o
 .debug_ranges  0x00000320       0x38 ./SSC/Src/foeappl.o
 .debug_ranges  0x00000358       0x90 ./SSC/Src/mailbox.o
 .debug_ranges  0x000003e8       0x68 ./SSC/Src/objdef.o
 .debug_ranges  0x00000450       0x50 ./SSC/Src/sdoserv.o
 .debug_ranges  0x000004a0       0x18 ./Libraries/XMCLib/src/xmc4_eru.o
 .debug_ranges  0x000004b8       0xd0 ./Libraries/XMCLib/src/xmc4_flash.o
 .debug_ranges  0x00000588       0x18 ./Libraries/XMCLib/src/xmc4_gpio.o
 .debug_ranges  0x000005a0      0x3e0 ./Libraries/XMCLib/src/xmc4_scu.o
 .debug_ranges  0x00000980      0x128 ./Libraries/XMCLib/src/xmc_ccu4.o
 .debug_ranges  0x00000aa8      0x180 ./Libraries/XMCLib/src/xmc_ccu8.o
 .debug_ranges  0x00000c28       0x60 ./Libraries/XMCLib/src/xmc_ecat.o
 .debug_ranges  0x00000c88       0x78 ./Libraries/XMCLib/src/xmc_eru.o
 .debug_ranges  0x00000d00       0x50 ./Libraries/XMCLib/src/xmc_fce.o
 .debug_ranges  0x00000d50       0x18 ./Libraries/XMCLib/src/xmc_gpio.o
 .debug_ranges  0x00000d68       0x18 ./Libraries/Newlib/syscalls.o
 .debug_ranges  0x00000d80       0xc8 ./Dave/Generated/TIMER/timer.o
 .debug_ranges  0x00000e48      0x118 ./Dave/Generated/PWM_CCU8/pwm_ccu8.o
 .debug_ranges  0x00000f60       0x40 ./Dave/Generated/INTERRUPT/interrupt.o
 .debug_ranges  0x00000fa0       0x20 ./Dave/Generated/GLOBAL_CCU8/global_ccu8.o
 .debug_ranges  0x00000fc0       0x20 ./Dave/Generated/GLOBAL_CCU4/global_ccu4.o
 .debug_ranges  0x00000fe0       0x90 ./Dave/Generated/E_EEPROM_XMC4/e_eeprom_xmc4.o
 .debug_ranges  0x00001070       0x18 ./Dave/Generated/EVENT_GENERATOR/event_generator.o
 .debug_ranges  0x00001088       0x18 ./Dave/Generated/EVENT_DETECTOR/event_detector.o
 .debug_ranges  0x000010a0       0x18 ./Dave/Generated/ECAT_SSC/ecat_ssc.o
 .debug_ranges  0x000010b8       0x88 ./Dave/Generated/ECAT_SSC/xmc_eschw.o
 .debug_ranges  0x00001140       0x18 ./Dave/Generated/CPU_CTRL_XMC4/cpu_ctrl_xmc4_conf.o
 .debug_ranges  0x00001158       0x28 ./Dave/Generated/CLOCK_XMC4/clock_xmc4.o
 .debug_ranges  0x00001180       0x18 ./Dave/Generated/CLOCK_XMC4/clock_xmc4_conf.o
 .debug_ranges  0x00001198       0x10 ./Dave/Generated/DAVE.o
 .debug_ranges  0x000011a8       0x28 ./firmwareupdate_SSC.o
 .debug_ranges  0x000011d0       0x68 ./flashprog.o
 .debug_ranges  0x00001238       0x60 ./main.o

.debug_weaknames
 *(.debug_weaknames)

.debug_funcnames
 *(.debug_funcnames)

.debug_typenames
 *(.debug_typenames)

.debug_varnames
 *(.debug_varnames)

.build_attributes
                0x00000000      0xcd2
 *(.ARM.attributes)
 .ARM.attributes
                0x00000000       0x25 ./Startup/startup_XMC4800.o
 .ARM.attributes
                0x00000025       0x37 ./Startup/system_XMC4800.o
 .ARM.attributes
                0x0000005c       0x37 ./SSC/Src/XMC_ESC.o
 .ARM.attributes
                0x00000093       0x37 ./SSC/Src/bootmode.o
 .ARM.attributes
                0x000000ca       0x37 ./SSC/Src/coeappl.o
 .ARM.attributes
                0x00000101       0x37 ./SSC/Src/ecatappl.o
 .ARM.attributes
                0x00000138       0x37 ./SSC/Src/ecatcoe.o
 .ARM.attributes
                0x0000016f       0x37 ./SSC/Src/ecatfoe.o
 .ARM.attributes
                0x000001a6       0x37 ./SSC/Src/ecatslv.o
 .ARM.attributes
                0x000001dd       0x37 ./SSC/Src/foeappl.o
 .ARM.attributes
                0x00000214       0x37 ./SSC/Src/mailbox.o
 .ARM.attributes
                0x0000024b       0x37 ./SSC/Src/objdef.o
 .ARM.attributes
                0x00000282       0x37 ./SSC/Src/sdoserv.o
 .ARM.attributes
                0x000002b9       0x37 ./Libraries/XMCLib/src/xmc4_eru.o
 .ARM.attributes
                0x000002f0       0x37 ./Libraries/XMCLib/src/xmc4_flash.o
 .ARM.attributes
                0x00000327       0x37 ./Libraries/XMCLib/src/xmc4_gpio.o
 .ARM.attributes
                0x0000035e       0x37 ./Libraries/XMCLib/src/xmc4_scu.o
 .ARM.attributes
                0x00000395       0x37 ./Libraries/XMCLib/src/xmc_ccu4.o
 .ARM.attributes
                0x000003cc       0x37 ./Libraries/XMCLib/src/xmc_ccu8.o
 .ARM.attributes
                0x00000403       0x37 ./Libraries/XMCLib/src/xmc_ecat.o
 .ARM.attributes
                0x0000043a       0x37 ./Libraries/XMCLib/src/xmc_eru.o
 .ARM.attributes
                0x00000471       0x37 ./Libraries/XMCLib/src/xmc_fce.o
 .ARM.attributes
                0x000004a8       0x37 ./Libraries/XMCLib/src/xmc_gpio.o
 .ARM.attributes
                0x000004df       0x37 ./Libraries/Newlib/syscalls.o
 .ARM.attributes
                0x00000516       0x37 ./Dave/Generated/TIMER/timer.o
 .ARM.attributes
                0x0000054d       0x37 ./Dave/Generated/TIMER/timer_conf.o
 .ARM.attributes
                0x00000584       0x37 ./Dave/Generated/PWM_CCU8/pwm_ccu8.o
 .ARM.attributes
                0x000005bb       0x37 ./Dave/Generated/PWM_CCU8/pwm_ccu8_conf.o
 .ARM.attributes
                0x000005f2       0x37 ./Dave/Generated/INTERRUPT/interrupt.o
 .ARM.attributes
                0x00000629       0x37 ./Dave/Generated/INTERRUPT/interrupt_conf.o
 .ARM.attributes
                0x00000660       0x37 ./Dave/Generated/GLOBAL_CCU8/global_ccu8.o
 .ARM.attributes
                0x00000697       0x37 ./Dave/Generated/GLOBAL_CCU8/global_ccu8_conf.o
 .ARM.attributes
                0x000006ce       0x37 ./Dave/Generated/GLOBAL_CCU4/global_ccu4.o
 .ARM.attributes
                0x00000705       0x37 ./Dave/Generated/GLOBAL_CCU4/global_ccu4_conf.o
 .ARM.attributes
                0x0000073c       0x37 ./Dave/Generated/E_EEPROM_XMC4/e_eeprom_xmc4.o
 .ARM.attributes
                0x00000773       0x37 ./Dave/Generated/E_EEPROM_XMC4/e_eeprom_xmc4_conf.o
 .ARM.attributes
                0x000007aa       0x37 ./Dave/Generated/EVENT_GENERATOR/event_generator.o
 .ARM.attributes
                0x000007e1       0x37 ./Dave/Generated/EVENT_GENERATOR/event_generator_conf.o
 .ARM.attributes
                0x00000818       0x37 ./Dave/Generated/EVENT_DETECTOR/event_detector.o
 .ARM.attributes
                0x0000084f       0x37 ./Dave/Generated/EVENT_DETECTOR/event_detector_conf.o
 .ARM.attributes
                0x00000886       0x37 ./Dave/Generated/ECAT_SSC/ecat_ssc.o
 .ARM.attributes
                0x000008bd       0x37 ./Dave/Generated/ECAT_SSC/ecat_ssc_conf.o
 .ARM.attributes
                0x000008f4       0x37 ./Dave/Generated/ECAT_SSC/xmc_eschw.o
 .ARM.attributes
                0x0000092b       0x37 ./Dave/Generated/CPU_CTRL_XMC4/cpu_ctrl_xmc4_conf.o
 .ARM.attributes
                0x00000962       0x37 ./Dave/Generated/CLOCK_XMC4/clock_xmc4.o
 .ARM.attributes
                0x00000999       0x37 ./Dave/Generated/CLOCK_XMC4/clock_xmc4_conf.o
 .ARM.attributes
                0x000009d0       0x37 ./Dave/Generated/DAVE.o
 .ARM.attributes
                0x00000a07       0x37 ./firmwareupdate_SSC.o
 .ARM.attributes
                0x00000a3e       0x37 ./flashprog.o
 .ARM.attributes
                0x00000a75       0x37 ./main.o
 .ARM.attributes
                0x00000aac       0x32 c:/davev4-64bit/dave-4.3.2/eclipse/arm-gcc-49/bin/../lib/gcc/arm-none-eabi/4.9.3/../../../../arm-none-eabi/lib/armv7e-m/softfp\libg_nano.a(lib_a-errno.o)
 .ARM.attributes
                0x00000ade       0x32 c:/davev4-64bit/dave-4.3.2/eclipse/arm-gcc-49/bin/../lib/gcc/arm-none-eabi/4.9.3/../../../../arm-none-eabi/lib/armv7e-m/softfp\libg_nano.a(lib_a-impure.o)
 .ARM.attributes
                0x00000b10       0x32 c:/davev4-64bit/dave-4.3.2/eclipse/arm-gcc-49/bin/../lib/gcc/arm-none-eabi/4.9.3/../../../../arm-none-eabi/lib/armv7e-m/softfp\libg_nano.a(lib_a-init.o)
 .ARM.attributes
                0x00000b42       0x32 c:/davev4-64bit/dave-4.3.2/eclipse/arm-gcc-49/bin/../lib/gcc/arm-none-eabi/4.9.3/../../../../arm-none-eabi/lib/armv7e-m/softfp\libg_nano.a(lib_a-malloc.o)
 .ARM.attributes
                0x00000b74       0x32 c:/davev4-64bit/dave-4.3.2/eclipse/arm-gcc-49/bin/../lib/gcc/arm-none-eabi/4.9.3/../../../../arm-none-eabi/lib/armv7e-m/softfp\libg_nano.a(lib_a-memcpy.o)
 .ARM.attributes
                0x00000ba6       0x32 c:/davev4-64bit/dave-4.3.2/eclipse/arm-gcc-49/bin/../lib/gcc/arm-none-eabi/4.9.3/../../../../arm-none-eabi/lib/armv7e-m/softfp\libg_nano.a(lib_a-memset.o)
 .ARM.attributes
                0x00000bd8       0x32 c:/davev4-64bit/dave-4.3.2/eclipse/arm-gcc-49/bin/../lib/gcc/arm-none-eabi/4.9.3/../../../../arm-none-eabi/lib/armv7e-m/softfp\libg_nano.a(lib_a-nano-freer.o)
 .ARM.attributes
                0x00000c0a       0x32 c:/davev4-64bit/dave-4.3.2/eclipse/arm-gcc-49/bin/../lib/gcc/arm-none-eabi/4.9.3/../../../../arm-none-eabi/lib/armv7e-m/softfp\libg_nano.a(lib_a-nano-mallocr.o)
 .ARM.attributes
                0x00000c3c       0x32 c:/davev4-64bit/dave-4.3.2/eclipse/arm-gcc-49/bin/../lib/gcc/arm-none-eabi/4.9.3/../../../../arm-none-eabi/lib/armv7e-m/softfp\libg_nano.a(lib_a-sbrkr.o)
 .ARM.attributes
                0x00000c6e       0x32 c:/davev4-64bit/dave-4.3.2/eclipse/arm-gcc-49/bin/../lib/gcc/arm-none-eabi/4.9.3/../../../../arm-none-eabi/lib/armv7e-m/softfp\libg_nano.a(lib_a-strlen.o)
 .ARM.attributes
                0x00000ca0       0x32 c:/davev4-64bit/dave-4.3.2/eclipse/arm-gcc-49/bin/../lib/gcc/arm-none-eabi/4.9.3/../../../../arm-none-eabi/lib/armv7e-m/softfp\libg_nano.a(lib_a-reent.o)
OUTPUT(ETHCAT_FWUPDATE_SSC_APPLICATION_XMC48.elf elf32-littlearm)
