   1              	 .syntax unified
   2              	 .cpu cortex-m4
   3              	 .eabi_attribute 27,3
   4              	 .fpu fpv4-sp-d16
   5              	 .eabi_attribute 20,1
   6              	 .eabi_attribute 21,1
   7              	 .eabi_attribute 23,3
   8              	 .eabi_attribute 24,1
   9              	 .eabi_attribute 25,1
  10              	 .eabi_attribute 26,1
  11              	 .eabi_attribute 30,6
  12              	 .eabi_attribute 34,1
  13              	 .eabi_attribute 18,4
  14              	 .thumb
  15              	 .file "system_XMC4800.c"
  16              	 .text
  17              	.Ltext0:
  18              	 .cfi_sections .debug_frame
  19              	 .global SystemCoreClock
  20              	 .section .no_init,"aw",%progbits
  21              	 .align 2
  24              	SystemCoreClock:
  25 0000 00000000 	 .space 4
  26              	 .global g_chipid
  27              	 .align 2
  30              	g_chipid:
  31 0004 00000000 	 .space 16
  31      00000000 
  31      00000000 
  31      00000000 
  32              	 .section .text.delay,"ax",%progbits
  33              	 .align 2
  34              	 .thumb
  35              	 .thumb_func
  37              	delay:
  38              	.LFB130:
  39              	 .file 1 "../Startup/system_XMC4800.c"
   1:../Startup/system_XMC4800.c **** /**************************************************************************************************
   2:../Startup/system_XMC4800.c ****  * @file     system_XMC4800.c
   3:../Startup/system_XMC4800.c ****  * @brief    CMSIS Cortex-M4 Device Peripheral Access Layer Header File for the Infineon XMC4800 De
   4:../Startup/system_XMC4800.c ****  * @version  V1.0.5
   5:../Startup/system_XMC4800.c ****  * @date     26. Sep 2017
   6:../Startup/system_XMC4800.c ****  *
   7:../Startup/system_XMC4800.c ****  * @cond
   8:../Startup/system_XMC4800.c ****  **************************************************************************************************
   9:../Startup/system_XMC4800.c ****  * Copyright (c) 2015-2017, Infineon Technologies AG
  10:../Startup/system_XMC4800.c ****  * All rights reserved.
  11:../Startup/system_XMC4800.c ****  *
  12:../Startup/system_XMC4800.c ****  * Redistribution and use in source and binary forms, with or without modification,are permitted pr
  13:../Startup/system_XMC4800.c ****  * following conditions are met:
  14:../Startup/system_XMC4800.c ****  *
  15:../Startup/system_XMC4800.c ****  * Redistributions of source code must retain the above copyright notice, this list of conditions a
  16:../Startup/system_XMC4800.c ****  * disclaimer.
  17:../Startup/system_XMC4800.c ****  *
  18:../Startup/system_XMC4800.c ****  * Redistributions in binary form must reproduce the above copyright notice, this list of condition
  19:../Startup/system_XMC4800.c ****  * disclaimer in the documentation and/or other materials provided with the distribution.
  20:../Startup/system_XMC4800.c ****  *
  21:../Startup/system_XMC4800.c ****  * Neither the name of the copyright holders nor the names of its contributors may be used to endor
  22:../Startup/system_XMC4800.c ****  * products derived from this software without specific prior written permission.
  23:../Startup/system_XMC4800.c ****  *
  24:../Startup/system_XMC4800.c ****  * THIS SOFTWARE IS PROVIDED BY THE COPYRIGHT HOLDERS AND CONTRIBUTORS "AS IS" AND ANY EXPRESS OR I
  25:../Startup/system_XMC4800.c ****  * INCLUDING, BUT NOT LIMITED TO, THE IMPLIED WARRANTIES OF MERCHANTABILITY AND FITNESS FOR A PARTI
  26:../Startup/system_XMC4800.c ****  * DISCLAIMED. IN NO EVENT SHALL THE COPYRIGHT HOLDER OR CONTRIBUTORS BE LIABLE  FOR ANY DIRECT, IN
  27:../Startup/system_XMC4800.c ****  * SPECIAL, EXEMPLARY, OR CONSEQUENTIAL DAMAGES (INCLUDING, BUT NOT LIMITED TO, PROCUREMENT OF SUBS
  28:../Startup/system_XMC4800.c ****  * SERVICES; LOSS OF USE, DATA, OR PROFITS; OR BUSINESS INTERRUPTION) HOWEVER CAUSED AND ON ANY THE
  29:../Startup/system_XMC4800.c ****  * WHETHER IN CONTRACT, STRICT LIABILITY,OR TORT (INCLUDING NEGLIGENCE OR OTHERWISE) ARISING IN ANY
  30:../Startup/system_XMC4800.c ****  * OF THIS SOFTWARE, EVEN IF ADVISED OF THE POSSIBILITY OF SUCH DAMAGE.
  31:../Startup/system_XMC4800.c ****  *
  32:../Startup/system_XMC4800.c ****  * To improve the quality of the software, users are encouraged to share modifications, enhancement
  33:../Startup/system_XMC4800.c ****  * Infineon Technologies AG dave@infineon.com).
  34:../Startup/system_XMC4800.c ****  **************************************************************************************************
  35:../Startup/system_XMC4800.c ****  *
  36:../Startup/system_XMC4800.c ****  ********************** Version History ***************************************
  37:../Startup/system_XMC4800.c ****  * V1.0.0, 22. May 2015, Initial version
  38:../Startup/system_XMC4800.c ****  * V1.0.1, 26. Jan 2016, Disable trap generation from clock unit
  39:../Startup/system_XMC4800.c ****  * V1.0.2, 01. Jun 2016, Fix masking of OSCHPCTRL value
  40:../Startup/system_XMC4800.c ****  * V1.0.3, 09. Feb 2017, Fix activation of USBPLL when SDMMC clock is enabled 
  41:../Startup/system_XMC4800.c ****  * V1.0.4, 19. Jun 2017, Rely on cmsis_compiler.h instead of defining __WEAK
  42:../Startup/system_XMC4800.c ****  * V1.0.5, 26. Sep 2017, Disable FPU if FPU_USED is zero    
  43:../Startup/system_XMC4800.c ****  ******************************************************************************
  44:../Startup/system_XMC4800.c **** * @endcond
  45:../Startup/system_XMC4800.c **** */
  46:../Startup/system_XMC4800.c **** 
  47:../Startup/system_XMC4800.c **** /*******************************************************************************
  48:../Startup/system_XMC4800.c ****  * Default clock initialization
  49:../Startup/system_XMC4800.c ****  * fPLL = 288MHz => fSYS = 144MHz => fCPU = 144MHz
  50:../Startup/system_XMC4800.c ****  *                                => fPB  = 144MHz
  51:../Startup/system_XMC4800.c ****  *                                => fCCU = 144MHz
  52:../Startup/system_XMC4800.c ****  *                                => fETH = 72MHz
  53:../Startup/system_XMC4800.c ****  *               => fUSB = 48MHz
  54:../Startup/system_XMC4800.c ****  *               => fEBU = 72MHz
  55:../Startup/system_XMC4800.c ****  *
  56:../Startup/system_XMC4800.c ****  * fUSBPLL = 200MHz => fECAT = 100MHz
  57:../Startup/system_XMC4800.c ****  *
  58:../Startup/system_XMC4800.c ****  * fOFI = 24MHz => fWDT = 24MHz
  59:../Startup/system_XMC4800.c ****  *******************************************************************************/
  60:../Startup/system_XMC4800.c **** 
  61:../Startup/system_XMC4800.c **** /*******************************************************************************
  62:../Startup/system_XMC4800.c ****  * HEADER FILES
  63:../Startup/system_XMC4800.c ****  *******************************************************************************/
  64:../Startup/system_XMC4800.c **** #include <string.h>
  65:../Startup/system_XMC4800.c **** 
  66:../Startup/system_XMC4800.c **** #include <XMC4800.h>
  67:../Startup/system_XMC4800.c **** #include "system_XMC4800.h"
  68:../Startup/system_XMC4800.c **** 
  69:../Startup/system_XMC4800.c **** /*******************************************************************************
  70:../Startup/system_XMC4800.c ****  * MACROS
  71:../Startup/system_XMC4800.c ****  *******************************************************************************/
  72:../Startup/system_XMC4800.c **** #define CHIPID_LOC ((uint8_t *)0x20000000UL)
  73:../Startup/system_XMC4800.c **** 
  74:../Startup/system_XMC4800.c **** #define PMU_FLASH_WS          (0x4U)
  75:../Startup/system_XMC4800.c **** 
  76:../Startup/system_XMC4800.c **** #define FOSCREF               (2500000U)
  77:../Startup/system_XMC4800.c **** 
  78:../Startup/system_XMC4800.c **** #define DELAY_CNT_50US_50MHZ  (2500UL)
  79:../Startup/system_XMC4800.c **** #define DELAY_CNT_150US_50MHZ (7500UL)
  80:../Startup/system_XMC4800.c **** #define DELAY_CNT_50US_48MHZ  (2400UL)
  81:../Startup/system_XMC4800.c **** #define DELAY_CNT_50US_72MHZ  (3600UL)
  82:../Startup/system_XMC4800.c **** #define DELAY_CNT_50US_96MHZ  (4800UL)
  83:../Startup/system_XMC4800.c **** #define DELAY_CNT_50US_120MHZ (6000UL)
  84:../Startup/system_XMC4800.c **** #define DELAY_CNT_50US_144MHZ (7200UL)
  85:../Startup/system_XMC4800.c **** 
  86:../Startup/system_XMC4800.c **** #define SCU_PLL_PLLSTAT_OSC_USABLE  (SCU_PLL_PLLSTAT_PLLHV_Msk | \
  87:../Startup/system_XMC4800.c ****                                      SCU_PLL_PLLSTAT_PLLLV_Msk | \
  88:../Startup/system_XMC4800.c ****                                      SCU_PLL_PLLSTAT_PLLSP_Msk)
  89:../Startup/system_XMC4800.c **** 
  90:../Startup/system_XMC4800.c **** /*
  91:../Startup/system_XMC4800.c **** //-------- <<< Use Configuration Wizard in Context Menu >>> ------------------
  92:../Startup/system_XMC4800.c **** */
  93:../Startup/system_XMC4800.c **** 
  94:../Startup/system_XMC4800.c **** /*
  95:../Startup/system_XMC4800.c **** // <h> Clock configuration
  96:../Startup/system_XMC4800.c **** */
  97:../Startup/system_XMC4800.c **** 
  98:../Startup/system_XMC4800.c **** /*
  99:../Startup/system_XMC4800.c **** //    <o> External crystal frequency [Hz]
 100:../Startup/system_XMC4800.c **** //       <8000000=> 8MHz
 101:../Startup/system_XMC4800.c **** //       <12000000=> 12MHz
 102:../Startup/system_XMC4800.c **** //       <16000000=> 16MHz
 103:../Startup/system_XMC4800.c **** //    <i> Defines external crystal frequency
 104:../Startup/system_XMC4800.c **** //    <i> Default: 8MHz
 105:../Startup/system_XMC4800.c **** */
 106:../Startup/system_XMC4800.c **** #define OSCHP_FREQUENCY (12000000U)
 107:../Startup/system_XMC4800.c **** 
 108:../Startup/system_XMC4800.c **** /* USB PLL settings, fUSBPLL = 200MHz */
 109:../Startup/system_XMC4800.c **** /* Note: Implicit divider of 2, fUSBPLLVCO = 400MHz */
 110:../Startup/system_XMC4800.c **** #if OSCHP_FREQUENCY == 8000000U
 111:../Startup/system_XMC4800.c **** #define USB_PDIV (1U)
 112:../Startup/system_XMC4800.c **** #define USB_NDIV (99U)
 113:../Startup/system_XMC4800.c **** 
 114:../Startup/system_XMC4800.c **** #elif OSCHP_FREQUENCY == 12000000U
 115:../Startup/system_XMC4800.c **** #define USB_PDIV (2U)
 116:../Startup/system_XMC4800.c **** #define USB_NDIV (99U)
 117:../Startup/system_XMC4800.c **** 
 118:../Startup/system_XMC4800.c **** #elif OSCHP_FREQUENCY == 16000000U
 119:../Startup/system_XMC4800.c **** #define USB_PDIV (3U)
 120:../Startup/system_XMC4800.c **** #define USB_NDIV (99U)
 121:../Startup/system_XMC4800.c **** 
 122:../Startup/system_XMC4800.c **** #else
 123:../Startup/system_XMC4800.c **** #error "External crystal frequency not supported"
 124:../Startup/system_XMC4800.c **** 
 125:../Startup/system_XMC4800.c **** #endif
 126:../Startup/system_XMC4800.c **** 
 127:../Startup/system_XMC4800.c **** /*
 128:../Startup/system_XMC4800.c **** //    <o> Backup clock calibration mode
 129:../Startup/system_XMC4800.c **** //       <0=> Factory calibration
 130:../Startup/system_XMC4800.c **** //       <1=> Automatic calibration
 131:../Startup/system_XMC4800.c **** //    <i> Default: Automatic calibration
 132:../Startup/system_XMC4800.c **** */
 133:../Startup/system_XMC4800.c **** #define FOFI_CALIBRATION_MODE 1
 134:../Startup/system_XMC4800.c **** #define FOFI_CALIBRATION_MODE_FACTORY 0
 135:../Startup/system_XMC4800.c **** #define FOFI_CALIBRATION_MODE_AUTOMATIC 1
 136:../Startup/system_XMC4800.c **** 
 137:../Startup/system_XMC4800.c **** /*
 138:../Startup/system_XMC4800.c **** //    <o> Standby clock (fSTDBY) source selection
 139:../Startup/system_XMC4800.c **** //       <0=> Internal slow oscillator (32768Hz)
 140:../Startup/system_XMC4800.c **** //       <1=> External crystal (32768Hz)
 141:../Startup/system_XMC4800.c **** //    <i> Default: Internal slow oscillator (32768Hz)
 142:../Startup/system_XMC4800.c **** */
 143:../Startup/system_XMC4800.c **** #define STDBY_CLOCK_SRC 0
 144:../Startup/system_XMC4800.c **** #define STDBY_CLOCK_SRC_OSI 0
 145:../Startup/system_XMC4800.c **** #define STDBY_CLOCK_SRC_OSCULP 1
 146:../Startup/system_XMC4800.c **** 
 147:../Startup/system_XMC4800.c **** /*
 148:../Startup/system_XMC4800.c **** //    <o> PLL clock source selection
 149:../Startup/system_XMC4800.c **** //       <0=> External crystal
 150:../Startup/system_XMC4800.c **** //       <1=> Internal fast oscillator
 151:../Startup/system_XMC4800.c **** //    <i> Default: External crystal
 152:../Startup/system_XMC4800.c **** */
 153:../Startup/system_XMC4800.c **** #define PLL_CLOCK_SRC 0
 154:../Startup/system_XMC4800.c **** #define PLL_CLOCK_SRC_EXT_XTAL 0
 155:../Startup/system_XMC4800.c **** #define PLL_CLOCK_SRC_OFI 1
 156:../Startup/system_XMC4800.c **** 
 157:../Startup/system_XMC4800.c **** /* PLL settings, fPLL = 288MHz */
 158:../Startup/system_XMC4800.c **** #if PLL_CLOCK_SRC == PLL_CLOCK_SRC_EXT_XTAL
 159:../Startup/system_XMC4800.c **** #if OSCHP_FREQUENCY == 8000000U
 160:../Startup/system_XMC4800.c **** #define PLL_PDIV (1U)
 161:../Startup/system_XMC4800.c **** #define PLL_NDIV (71U)
 162:../Startup/system_XMC4800.c **** #define PLL_K2DIV (0U)
 163:../Startup/system_XMC4800.c **** 
 164:../Startup/system_XMC4800.c **** #elif OSCHP_FREQUENCY == 12000000U
 165:../Startup/system_XMC4800.c **** #define PLL_PDIV (1U)
 166:../Startup/system_XMC4800.c **** #define PLL_NDIV (47U)
 167:../Startup/system_XMC4800.c **** #define PLL_K2DIV (0U)
 168:../Startup/system_XMC4800.c **** 
 169:../Startup/system_XMC4800.c **** #elif OSCHP_FREQUENCY == 16000000U
 170:../Startup/system_XMC4800.c **** #define PLL_PDIV (1U)
 171:../Startup/system_XMC4800.c **** #define PLL_NDIV (35U)
 172:../Startup/system_XMC4800.c **** #define PLL_K2DIV (0U)
 173:../Startup/system_XMC4800.c **** 
 174:../Startup/system_XMC4800.c **** #else
 175:../Startup/system_XMC4800.c **** #error "External crystal frequency not supported"
 176:../Startup/system_XMC4800.c **** 
 177:../Startup/system_XMC4800.c **** #endif
 178:../Startup/system_XMC4800.c **** 
 179:../Startup/system_XMC4800.c **** #define VCO ((OSCHP_FREQUENCY / (PLL_PDIV + 1UL)) * (PLL_NDIV + 1UL))
 180:../Startup/system_XMC4800.c **** 
 181:../Startup/system_XMC4800.c **** #else /* PLL_CLOCK_SRC == PLL_CLOCK_SRC_EXT_XTAL */
 182:../Startup/system_XMC4800.c **** #define PLL_PDIV (1U)
 183:../Startup/system_XMC4800.c **** #define PLL_NDIV (23U)
 184:../Startup/system_XMC4800.c **** #define PLL_K2DIV (0U)
 185:../Startup/system_XMC4800.c **** 
 186:../Startup/system_XMC4800.c **** #define VCO ((OFI_FREQUENCY / (PLL_PDIV + 1UL)) * (PLL_NDIV + 1UL))
 187:../Startup/system_XMC4800.c **** 
 188:../Startup/system_XMC4800.c **** #endif /* PLL_CLOCK_SRC == PLL_CLOCK_SRC_OFI */
 189:../Startup/system_XMC4800.c **** 
 190:../Startup/system_XMC4800.c **** #define PLL_K2DIV_24MHZ  ((VCO / OFI_FREQUENCY) - 1UL)
 191:../Startup/system_XMC4800.c **** #define PLL_K2DIV_48MHZ  ((VCO / 48000000U) - 1UL)
 192:../Startup/system_XMC4800.c **** #define PLL_K2DIV_72MHZ  ((VCO / 72000000U) - 1UL)
 193:../Startup/system_XMC4800.c **** #define PLL_K2DIV_96MHZ  ((VCO / 96000000U) - 1UL)
 194:../Startup/system_XMC4800.c **** #define PLL_K2DIV_120MHZ ((VCO / 120000000U) - 1UL)
 195:../Startup/system_XMC4800.c **** 
 196:../Startup/system_XMC4800.c **** #define SCU_CLK_CLKCLR_ENABLE_USBCLK SCU_CLK_CLKCLR_USBCDI_Msk
 197:../Startup/system_XMC4800.c **** #define SCU_CLK_CLKCLR_ENABLE_MMCCLK SCU_CLK_CLKCLR_MMCCDI_Msk
 198:../Startup/system_XMC4800.c **** #define SCU_CLK_CLKCLR_ENABLE_ETHCLK SCU_CLK_CLKCLR_ETH0CDI_Msk
 199:../Startup/system_XMC4800.c **** #define SCU_CLK_CLKCLR_ENABLE_EBUCLK SCU_CLK_CLKCLR_EBUCDI_Msk
 200:../Startup/system_XMC4800.c **** #define SCU_CLK_CLKCLR_ENABLE_CCUCLK SCU_CLK_CLKCLR_CCUCDI_Msk
 201:../Startup/system_XMC4800.c **** 
 202:../Startup/system_XMC4800.c **** #define SCU_CLK_SYSCLKCR_SYSSEL_OFI      (0U << SCU_CLK_SYSCLKCR_SYSSEL_Pos)
 203:../Startup/system_XMC4800.c **** #define SCU_CLK_SYSCLKCR_SYSSEL_PLL      (1U << SCU_CLK_SYSCLKCR_SYSSEL_Pos)
 204:../Startup/system_XMC4800.c **** 
 205:../Startup/system_XMC4800.c **** #define SCU_CLK_USBCLKCR_USBSEL_USBPLL   (0U << SCU_CLK_USBCLKCR_USBSEL_Pos)
 206:../Startup/system_XMC4800.c **** #define SCU_CLK_USBCLKCR_USBSEL_PLL      (1U << SCU_CLK_USBCLKCR_USBSEL_Pos)
 207:../Startup/system_XMC4800.c **** 
 208:../Startup/system_XMC4800.c **** #define SCU_CLK_ECATCLKCR_ECATSEL_USBPLL (0U << SCU_CLK_ECATCLKCR_ECATSEL_Pos)
 209:../Startup/system_XMC4800.c **** #define SCU_CLK_ECATCLKCR_ECATSEL_PLL    (1U << SCU_CLK_ECATCLKCR_ECATSEL_Pos)
 210:../Startup/system_XMC4800.c **** 
 211:../Startup/system_XMC4800.c **** #define SCU_CLK_WDTCLKCR_WDTSEL_OFI      (0U << SCU_CLK_WDTCLKCR_WDTSEL_Pos)
 212:../Startup/system_XMC4800.c **** #define SCU_CLK_WDTCLKCR_WDTSEL_STANDBY  (1U << SCU_CLK_WDTCLKCR_WDTSEL_Pos)
 213:../Startup/system_XMC4800.c **** #define SCU_CLK_WDTCLKCR_WDTSEL_PLL      (2U << SCU_CLK_WDTCLKCR_WDTSEL_Pos)
 214:../Startup/system_XMC4800.c **** 
 215:../Startup/system_XMC4800.c **** #define SCU_CLK_EXTCLKCR_ECKSEL_SYS      (0U << SCU_CLK_EXTCLKCR_ECKSEL_Pos)
 216:../Startup/system_XMC4800.c **** #define SCU_CLK_EXTCLKCR_ECKSEL_USBPLL   (2U << SCU_CLK_EXTCLKCR_ECKSEL_Pos)
 217:../Startup/system_XMC4800.c **** #define SCU_CLK_EXTCLKCR_ECKSEL_PLL      (3U << SCU_CLK_EXTCLKCR_ECKSEL_Pos)
 218:../Startup/system_XMC4800.c **** 
 219:../Startup/system_XMC4800.c **** #define EXTCLK_PIN_P0_8  (1)
 220:../Startup/system_XMC4800.c **** #define EXTCLK_PIN_P1_15 (2)
 221:../Startup/system_XMC4800.c **** 
 222:../Startup/system_XMC4800.c **** /*
 223:../Startup/system_XMC4800.c **** //    <h> Clock tree
 224:../Startup/system_XMC4800.c **** //        <o1.16> System clock source selection
 225:../Startup/system_XMC4800.c **** //                      <0=> fOFI
 226:../Startup/system_XMC4800.c **** //                      <1=> fPLL
 227:../Startup/system_XMC4800.c **** //                      <i> Default: fPLL
 228:../Startup/system_XMC4800.c **** //        <o1.0..7> System clock divider <1-256><#-1>
 229:../Startup/system_XMC4800.c **** //                      <i> Default: 2
 230:../Startup/system_XMC4800.c **** //        <o2.0> CPU clock divider
 231:../Startup/system_XMC4800.c **** //                      <0=> fCPU = fSYS
 232:../Startup/system_XMC4800.c **** //                      <1=> fCPU = fSYS / 2
 233:../Startup/system_XMC4800.c **** //                      <i> Default: fCPU = fSYS
 234:../Startup/system_XMC4800.c **** //        <o3.0>  Peripheral clock divider
 235:../Startup/system_XMC4800.c **** //                      <0=> fPB = fCPU
 236:../Startup/system_XMC4800.c **** //                      <1=> fPB = fCPU / 2
 237:../Startup/system_XMC4800.c **** //                      <i> Default: fPB = fCPU
 238:../Startup/system_XMC4800.c **** //        <o4.0>  CCU clock divider
 239:../Startup/system_XMC4800.c **** //                      <0=> fCCU = fCPU
 240:../Startup/system_XMC4800.c **** //                      <1=> fCCU = fCPU / 2
 241:../Startup/system_XMC4800.c **** //                      <i> Default: fCCU = fCPU
 242:../Startup/system_XMC4800.c **** //        <e.5> Enable WDT clock
 243:../Startup/system_XMC4800.c **** //             <o5.16..17> WDT clock source <0=> fOFI
 244:../Startup/system_XMC4800.c **** //                                          <1=> fSTDBY
 245:../Startup/system_XMC4800.c **** //                                          <2=> fPLL
 246:../Startup/system_XMC4800.c **** //                      <i> Default: fOFI
 247:../Startup/system_XMC4800.c **** //             <o5.0..7> WDT clock divider <1-256><#-1>
 248:../Startup/system_XMC4800.c **** //                      <i> Default: 1
 249:../Startup/system_XMC4800.c **** //        </e>
 250:../Startup/system_XMC4800.c **** //        <e.3> Enable EBU clock
 251:../Startup/system_XMC4800.c **** //             <o6.0..5>  EBU clock divider  <1-64><#-1>
 252:../Startup/system_XMC4800.c **** //             <i> Default: 4
 253:../Startup/system_XMC4800.c **** //        </e>
 254:../Startup/system_XMC4800.c **** //        <e.2> Enable ETH clock
 255:../Startup/system_XMC4800.c **** //        </e>
 256:../Startup/system_XMC4800.c **** //        <e.1> Enable MMC clock
 257:../Startup/system_XMC4800.c **** //        </e>
 258:../Startup/system_XMC4800.c **** //        <e.0> Enable USB clock
 259:../Startup/system_XMC4800.c **** //             <o7.16> USB clock source <0=> fUSBPLL
 260:../Startup/system_XMC4800.c **** //                                      <1=> fPLL
 261:../Startup/system_XMC4800.c **** //             <i> Default: fPLL
 262:../Startup/system_XMC4800.c **** //             <o7.0..2> USB clock source divider <1-8><#-1>
 263:../Startup/system_XMC4800.c **** //             <i> Default: 6
 264:../Startup/system_XMC4800.c **** //        </e>
 265:../Startup/system_XMC4800.c **** //        <o8.16..17> ECAT clock source <0=> fUSBPLL
 266:../Startup/system_XMC4800.c **** //                                      <1=> fPLL
 267:../Startup/system_XMC4800.c **** //             <i> Default: fUSBPLL
 268:../Startup/system_XMC4800.c **** //        <o8.0..1> ECAT clock divider <1-4><#-1>
 269:../Startup/system_XMC4800.c **** //             <i> Default: 2
 270:../Startup/system_XMC4800.c **** //        <e9> Enable external clock
 271:../Startup/system_XMC4800.c **** //             <o9.0..1> External Clock Source Selection
 272:../Startup/system_XMC4800.c **** //                  <0=> fSYS
 273:../Startup/system_XMC4800.c **** //                  <2=> fUSB
 274:../Startup/system_XMC4800.c **** //                  <3=> fPLL
 275:../Startup/system_XMC4800.c **** //                  <i> Default: fPLL
 276:../Startup/system_XMC4800.c **** //             <o9.16..24> External Clock divider <1-512><#-1>
 277:../Startup/system_XMC4800.c **** //                  <i> Default: 288
 278:../Startup/system_XMC4800.c **** //                  <i> Only valid for USB PLL and PLL clocks
 279:../Startup/system_XMC4800.c **** //             <o10.0> External Clock Pin Selection
 280:../Startup/system_XMC4800.c **** //                  <0=> Disabled
 281:../Startup/system_XMC4800.c **** //                  <1=> P0.8
 282:../Startup/system_XMC4800.c **** //                  <2=> P1.15
 283:../Startup/system_XMC4800.c **** //                  <i> Default: Disabled
 284:../Startup/system_XMC4800.c **** //        </e>
 285:../Startup/system_XMC4800.c **** //    </h>
 286:../Startup/system_XMC4800.c **** */
 287:../Startup/system_XMC4800.c **** #define __CLKSET    (0x00000000UL)
 288:../Startup/system_XMC4800.c **** #define __SYSCLKCR  (0x00010001UL)
 289:../Startup/system_XMC4800.c **** #define __CPUCLKCR  (0x00000000UL)
 290:../Startup/system_XMC4800.c **** #define __PBCLKCR   (0x00000000UL)
 291:../Startup/system_XMC4800.c **** #define __CCUCLKCR  (0x00000000UL)
 292:../Startup/system_XMC4800.c **** #define __WDTCLKCR  (0x00000000UL)
 293:../Startup/system_XMC4800.c **** #define __EBUCLKCR  (0x00000003UL)
 294:../Startup/system_XMC4800.c **** #define __USBCLKCR  (0x00010005UL)
 295:../Startup/system_XMC4800.c **** #define __ECATCLKCR (0x00000001UL)
 296:../Startup/system_XMC4800.c **** 
 297:../Startup/system_XMC4800.c **** #define __EXTCLKCR (0x01200003UL)
 298:../Startup/system_XMC4800.c **** #define __EXTCLKPIN (0U)
 299:../Startup/system_XMC4800.c **** 
 300:../Startup/system_XMC4800.c **** /*
 301:../Startup/system_XMC4800.c **** // </h>
 302:../Startup/system_XMC4800.c **** */
 303:../Startup/system_XMC4800.c **** 
 304:../Startup/system_XMC4800.c **** /*
 305:../Startup/system_XMC4800.c **** //-------- <<< end of configuration section >>> ------------------
 306:../Startup/system_XMC4800.c **** */
 307:../Startup/system_XMC4800.c **** 
 308:../Startup/system_XMC4800.c **** #define ENABLE_PLL \
 309:../Startup/system_XMC4800.c ****     (((__SYSCLKCR & SCU_CLK_SYSCLKCR_SYSSEL_Msk) == SCU_CLK_SYSCLKCR_SYSSEL_PLL) || \
 310:../Startup/system_XMC4800.c ****      ((__ECATCLKCR & SCU_CLK_ECATCLKCR_ECATSEL_Msk) == SCU_CLK_ECATCLKCR_ECATSEL_PLL) || \
 311:../Startup/system_XMC4800.c ****      ((__CLKSET & SCU_CLK_CLKSET_EBUCEN_Msk) != 0) || \
 312:../Startup/system_XMC4800.c ****      (((__CLKSET & SCU_CLK_CLKSET_USBCEN_Msk) != 0) && ((__USBCLKCR & SCU_CLK_USBCLKCR_USBSEL_Msk) 
 313:../Startup/system_XMC4800.c ****      (((__CLKSET & SCU_CLK_CLKSET_WDTCEN_Msk) != 0) && ((__WDTCLKCR & SCU_CLK_WDTCLKCR_WDTSEL_Msk) 
 314:../Startup/system_XMC4800.c **** 
 315:../Startup/system_XMC4800.c **** #define ENABLE_USBPLL \
 316:../Startup/system_XMC4800.c ****     (((__ECATCLKCR & SCU_CLK_ECATCLKCR_ECATSEL_Msk) == SCU_CLK_ECATCLKCR_ECATSEL_USBPLL) || \
 317:../Startup/system_XMC4800.c ****      (((__CLKSET & SCU_CLK_CLKSET_USBCEN_Msk) != 0) && ((__USBCLKCR & SCU_CLK_USBCLKCR_USBSEL_Msk) 
 318:../Startup/system_XMC4800.c ****      (((__CLKSET & SCU_CLK_CLKSET_MMCCEN_Msk) != 0) && ((__USBCLKCR & SCU_CLK_USBCLKCR_USBSEL_Msk) 
 319:../Startup/system_XMC4800.c **** 
 320:../Startup/system_XMC4800.c **** /*******************************************************************************
 321:../Startup/system_XMC4800.c ****  * GLOBAL VARIABLES
 322:../Startup/system_XMC4800.c ****  *******************************************************************************/
 323:../Startup/system_XMC4800.c **** #if defined ( __CC_ARM )
 324:../Startup/system_XMC4800.c **** #if defined(XMC4800_E196x2048) || defined(XMC4800_F144x2048) || defined(XMC4800_F100x2048)
 325:../Startup/system_XMC4800.c **** uint32_t SystemCoreClock __attribute__((at(0x2003FFC0)));
 326:../Startup/system_XMC4800.c **** uint8_t g_chipid[16] __attribute__((at(0x2003FFC4)));
 327:../Startup/system_XMC4800.c **** #elif defined(XMC4800_E196x1536) || defined(XMC4800_F144x1536) || defined(XMC4800_F100x1536)
 328:../Startup/system_XMC4800.c **** uint32_t SystemCoreClock __attribute__((at(0x2002CFC0)));
 329:../Startup/system_XMC4800.c **** uint8_t g_chipid[16] __attribute__((at(0x2002CFC4)));
 330:../Startup/system_XMC4800.c **** #elif defined(XMC4800_E196x1024) || defined(XMC4800_F144x1024) || defined(XMC4800_F100x1024)
 331:../Startup/system_XMC4800.c **** uint32_t SystemCoreClock __attribute__((at(0x2001FFC0)));
 332:../Startup/system_XMC4800.c **** uint8_t g_chipid[16] __attribute__((at(0x2001FFC4)));
 333:../Startup/system_XMC4800.c **** #else
 334:../Startup/system_XMC4800.c **** #error "system_XMC4800.c: device not supported" 
 335:../Startup/system_XMC4800.c **** #endif
 336:../Startup/system_XMC4800.c **** #elif defined (__ARMCC_VERSION) && (__ARMCC_VERSION >= 6010050)
 337:../Startup/system_XMC4800.c **** #if defined(XMC4800_E196x2048) || defined(XMC4800_F144x2048) || defined(XMC4800_F100x2048)
 338:../Startup/system_XMC4800.c **** uint32_t SystemCoreClock __attribute__((section(".ARM.__at_0x2003FFC0")));
 339:../Startup/system_XMC4800.c **** uint8_t g_chipid[16] __attribute__((section(".ARM.__at_0x2003FFC0")));
 340:../Startup/system_XMC4800.c **** #elif defined(XMC4800_E196x1536) || defined(XMC4800_F144x1536) || defined(XMC4800_F100x1536)
 341:../Startup/system_XMC4800.c **** uint32_t SystemCoreClock __attribute__((section(".ARM.__at_0x2002CFC0")));
 342:../Startup/system_XMC4800.c **** uint8_t g_chipid[16] __attribute__((section(".ARM.__at_0x2002CFC4")));
 343:../Startup/system_XMC4800.c **** #elif defined(XMC4800_E196x1024) || defined(XMC4800_F144x1024) || defined(XMC4800_F100x1024)
 344:../Startup/system_XMC4800.c **** uint32_t SystemCoreClock __attribute__((section(".ARM.__at_0x2001FFC0")));
 345:../Startup/system_XMC4800.c **** uint8_t g_chipid[16] __attribute__((section(".ARM.__at_0x2001FFC4")));
 346:../Startup/system_XMC4800.c **** #else
 347:../Startup/system_XMC4800.c **** #error "system_XMC4800.c: device not supported" 
 348:../Startup/system_XMC4800.c **** #endif
 349:../Startup/system_XMC4800.c **** #elif defined ( __ICCARM__ )
 350:../Startup/system_XMC4800.c **** #if defined(XMC4800_E196x2048) || defined(XMC4800_F144x2048) || defined(XMC4800_F100x2048) || \
 351:../Startup/system_XMC4800.c ****     defined(XMC4800_E196x1536) || defined(XMC4800_F144x1536) || defined(XMC4800_F100x1536) || \
 352:../Startup/system_XMC4800.c ****     defined(XMC4800_E196x1024) || defined(XMC4800_F144x1024) || defined(XMC4800_F100x1024)
 353:../Startup/system_XMC4800.c **** __no_init uint32_t SystemCoreClock;
 354:../Startup/system_XMC4800.c **** __no_init uint8_t g_chipid[16];
 355:../Startup/system_XMC4800.c **** #else
 356:../Startup/system_XMC4800.c **** #error "system_XMC4800.c: device not supported" 
 357:../Startup/system_XMC4800.c **** #endif    
 358:../Startup/system_XMC4800.c **** #elif defined ( __GNUC__ )
 359:../Startup/system_XMC4800.c **** #if defined(XMC4800_E196x2048) || defined(XMC4800_F144x2048) || defined(XMC4800_F100x2048) || \
 360:../Startup/system_XMC4800.c ****     defined(XMC4800_E196x1536) || defined(XMC4800_F144x1536) || defined(XMC4800_F100x1536) || \
 361:../Startup/system_XMC4800.c ****     defined(XMC4800_E196x1024) || defined(XMC4800_F144x1024) || defined(XMC4800_F100x1024)
 362:../Startup/system_XMC4800.c **** uint32_t SystemCoreClock __attribute__((section(".no_init")));
 363:../Startup/system_XMC4800.c **** uint8_t g_chipid[16] __attribute__((section(".no_init")));
 364:../Startup/system_XMC4800.c **** #else
 365:../Startup/system_XMC4800.c **** #error "system_XMC4800.c: device not supported" 
 366:../Startup/system_XMC4800.c **** #endif    
 367:../Startup/system_XMC4800.c **** #elif defined ( __TASKING__ )
 368:../Startup/system_XMC4800.c **** #if defined(XMC4800_E196x2048) || defined(XMC4800_F144x2048) || defined(XMC4800_F100x2048)
 369:../Startup/system_XMC4800.c **** uint32_t SystemCoreClock __at( 0x2003FFC0 );
 370:../Startup/system_XMC4800.c **** uint8_t g_chipid[16] __at( 0x2003FFC4 );
 371:../Startup/system_XMC4800.c **** #elif defined(XMC4800_E196x1536) || defined(XMC4800_F144x1536) || defined(XMC4800_F100x1536)
 372:../Startup/system_XMC4800.c **** uint32_t SystemCoreClock __at( 0x2002CFC0 );
 373:../Startup/system_XMC4800.c **** uint8_t g_chipid[16] __at( 0x2002CFC4 );
 374:../Startup/system_XMC4800.c **** #elif defined(XMC4800_E196x1024) || defined(XMC4800_F144x1024) || defined(XMC4800_F100x1024)
 375:../Startup/system_XMC4800.c **** uint32_t SystemCoreClock __at( 0x2001FFC0 );
 376:../Startup/system_XMC4800.c **** uint8_t g_chipid[16] __at( 0x2001FFC4 );
 377:../Startup/system_XMC4800.c **** #else
 378:../Startup/system_XMC4800.c **** #error "system_XMC4800.c: device not supported" 
 379:../Startup/system_XMC4800.c **** #endif    
 380:../Startup/system_XMC4800.c **** #else
 381:../Startup/system_XMC4800.c **** #error "system_XMC4800.c: compiler not supported" 
 382:../Startup/system_XMC4800.c **** #endif    
 383:../Startup/system_XMC4800.c **** 
 384:../Startup/system_XMC4800.c **** extern uint32_t __Vectors;
 385:../Startup/system_XMC4800.c **** 
 386:../Startup/system_XMC4800.c **** /*******************************************************************************
 387:../Startup/system_XMC4800.c ****  * LOCAL FUNCTIONS
 388:../Startup/system_XMC4800.c ****  *******************************************************************************/
 389:../Startup/system_XMC4800.c **** static void delay(uint32_t cycles)
 390:../Startup/system_XMC4800.c **** {
  40              	 .loc 1 390 0
  41              	 .cfi_startproc
  42              	 
  43              	 
  44              	 
  45 0000 80B4     	 push {r7}
  46              	.LCFI0:
  47              	 .cfi_def_cfa_offset 4
  48              	 .cfi_offset 7,-4
  49 0002 85B0     	 sub sp,sp,#20
  50              	.LCFI1:
  51              	 .cfi_def_cfa_offset 24
  52 0004 00AF     	 add r7,sp,#0
  53              	.LCFI2:
  54              	 .cfi_def_cfa_register 7
  55 0006 7860     	 str r0,[r7,#4]
 391:../Startup/system_XMC4800.c ****   volatile uint32_t i;
 392:../Startup/system_XMC4800.c **** 
 393:../Startup/system_XMC4800.c ****   for(i = 0UL; i < cycles ;++i)
  56              	 .loc 1 393 0
  57 0008 0023     	 movs r3,#0
  58 000a FB60     	 str r3,[r7,#12]
  59 000c 03E0     	 b .L2
  60              	.L3:
 394:../Startup/system_XMC4800.c ****   {
 395:../Startup/system_XMC4800.c ****     __NOP();
  61              	 .loc 1 395 0 discriminator 3
  62              	
  63 000e 00BF     	 nop
  64              	
 393:../Startup/system_XMC4800.c ****   {
  65              	 .loc 1 393 0 discriminator 3
  66              	 .thumb
  67 0010 FB68     	 ldr r3,[r7,#12]
  68 0012 0133     	 adds r3,r3,#1
  69 0014 FB60     	 str r3,[r7,#12]
  70              	.L2:
 393:../Startup/system_XMC4800.c ****   {
  71              	 .loc 1 393 0 is_stmt 0 discriminator 1
  72 0016 FA68     	 ldr r2,[r7,#12]
  73 0018 7B68     	 ldr r3,[r7,#4]
  74 001a 9A42     	 cmp r2,r3
  75 001c F7D3     	 bcc .L3
 396:../Startup/system_XMC4800.c ****   }
 397:../Startup/system_XMC4800.c **** }
  76              	 .loc 1 397 0 is_stmt 1
  77 001e 1437     	 adds r7,r7,#20
  78              	.LCFI3:
  79              	 .cfi_def_cfa_offset 4
  80 0020 BD46     	 mov sp,r7
  81              	.LCFI4:
  82              	 .cfi_def_cfa_register 13
  83              	 
  84 0022 5DF8047B 	 ldr r7,[sp],#4
  85              	.LCFI5:
  86              	 .cfi_restore 7
  87              	 .cfi_def_cfa_offset 0
  88 0026 7047     	 bx lr
  89              	 .cfi_endproc
  90              	.LFE130:
  92              	 .section .text.SystemInit,"ax",%progbits
  93              	 .align 2
  94              	 .weak SystemInit
  95              	 .thumb
  96              	 .thumb_func
  98              	SystemInit:
  99              	.LFB131:
 398:../Startup/system_XMC4800.c **** 
 399:../Startup/system_XMC4800.c **** /*******************************************************************************
 400:../Startup/system_XMC4800.c ****  * API IMPLEMENTATION
 401:../Startup/system_XMC4800.c ****  *******************************************************************************/
 402:../Startup/system_XMC4800.c **** 
 403:../Startup/system_XMC4800.c **** __WEAK void SystemInit(void)
 404:../Startup/system_XMC4800.c **** {
 100              	 .loc 1 404 0
 101              	 .cfi_startproc
 102              	 
 103              	 
 104 0000 98B5     	 push {r3,r4,r7,lr}
 105              	.LCFI6:
 106              	 .cfi_def_cfa_offset 16
 107              	 .cfi_offset 3,-16
 108              	 .cfi_offset 4,-12
 109              	 .cfi_offset 7,-8
 110              	 .cfi_offset 14,-4
 111 0002 00AF     	 add r7,sp,#0
 112              	.LCFI7:
 113              	 .cfi_def_cfa_register 7
 405:../Startup/system_XMC4800.c ****   memcpy(g_chipid, CHIPID_LOC, 16);
 114              	 .loc 1 405 0
 115 0004 054A     	 ldr r2,.L5
 116 0006 4FF00053 	 mov r3,#536870912
 117 000a 1446     	 mov r4,r2
 118 000c 0FCB     	 ldmia r3,{r0,r1,r2,r3}
 119 000e 84E80F00 	 stmia r4,{r0,r1,r2,r3}
 406:../Startup/system_XMC4800.c **** 
 407:../Startup/system_XMC4800.c ****   SystemCoreSetup();
 120              	 .loc 1 407 0
 121 0012 FFF7FEFF 	 bl SystemCoreSetup
 408:../Startup/system_XMC4800.c ****   SystemCoreClockSetup();
 122              	 .loc 1 408 0
 123 0016 FFF7FEFF 	 bl SystemCoreClockSetup
 409:../Startup/system_XMC4800.c **** }
 124              	 .loc 1 409 0
 125 001a 98BD     	 pop {r3,r4,r7,pc}
 126              	.L6:
 127              	 .align 2
 128              	.L5:
 129 001c 00000000 	 .word g_chipid
 130              	 .cfi_endproc
 131              	.LFE131:
 133              	 .section .text.SystemCoreSetup,"ax",%progbits
 134              	 .align 2
 135              	 .weak SystemCoreSetup
 136              	 .thumb
 137              	 .thumb_func
 139              	SystemCoreSetup:
 140              	.LFB132:
 410:../Startup/system_XMC4800.c **** 
 411:../Startup/system_XMC4800.c **** __WEAK void SystemCoreSetup(void)
 412:../Startup/system_XMC4800.c **** {
 141              	 .loc 1 412 0
 142              	 .cfi_startproc
 143              	 
 144              	 
 145              	 
 146 0000 80B4     	 push {r7}
 147              	.LCFI8:
 148              	 .cfi_def_cfa_offset 4
 149              	 .cfi_offset 7,-4
 150 0002 83B0     	 sub sp,sp,#12
 151              	.LCFI9:
 152              	 .cfi_def_cfa_offset 16
 153 0004 00AF     	 add r7,sp,#0
 154              	.LCFI10:
 155              	 .cfi_def_cfa_register 7
 156              	.LBB8:
 157              	.LBB9:
 158              	 .file 2 "C:/src/bakalarka_workspace/ETHCAT_FWUPDATE_SSC_APPLICATION_XMC48/Libraries/CMSIS/Include/cmsis_gcc.h"
   1:C:/src/bakalarka_workspace/ETHCAT_FWUPDATE_SSC_APPLICATION_XMC48/Libraries/CMSIS/Include\cmsis_gcc.h **** /**************************************************************************//**
   2:C:/src/bakalarka_workspace/ETHCAT_FWUPDATE_SSC_APPLICATION_XMC48/Libraries/CMSIS/Include\cmsis_gcc.h ****  * @file     cmsis_gcc.h
   3:C:/src/bakalarka_workspace/ETHCAT_FWUPDATE_SSC_APPLICATION_XMC48/Libraries/CMSIS/Include\cmsis_gcc.h ****  * @brief    CMSIS compiler GCC header file
   4:C:/src/bakalarka_workspace/ETHCAT_FWUPDATE_SSC_APPLICATION_XMC48/Libraries/CMSIS/Include\cmsis_gcc.h ****  * @version  V5.0.2
   5:C:/src/bakalarka_workspace/ETHCAT_FWUPDATE_SSC_APPLICATION_XMC48/Libraries/CMSIS/Include\cmsis_gcc.h ****  * @date     13. February 2017
   6:C:/src/bakalarka_workspace/ETHCAT_FWUPDATE_SSC_APPLICATION_XMC48/Libraries/CMSIS/Include\cmsis_gcc.h ****  ******************************************************************************/
   7:C:/src/bakalarka_workspace/ETHCAT_FWUPDATE_SSC_APPLICATION_XMC48/Libraries/CMSIS/Include\cmsis_gcc.h **** /*
   8:C:/src/bakalarka_workspace/ETHCAT_FWUPDATE_SSC_APPLICATION_XMC48/Libraries/CMSIS/Include\cmsis_gcc.h ****  * Copyright (c) 2009-2017 ARM Limited. All rights reserved.
   9:C:/src/bakalarka_workspace/ETHCAT_FWUPDATE_SSC_APPLICATION_XMC48/Libraries/CMSIS/Include\cmsis_gcc.h ****  *
  10:C:/src/bakalarka_workspace/ETHCAT_FWUPDATE_SSC_APPLICATION_XMC48/Libraries/CMSIS/Include\cmsis_gcc.h ****  * SPDX-License-Identifier: Apache-2.0
  11:C:/src/bakalarka_workspace/ETHCAT_FWUPDATE_SSC_APPLICATION_XMC48/Libraries/CMSIS/Include\cmsis_gcc.h ****  *
  12:C:/src/bakalarka_workspace/ETHCAT_FWUPDATE_SSC_APPLICATION_XMC48/Libraries/CMSIS/Include\cmsis_gcc.h ****  * Licensed under the Apache License, Version 2.0 (the License); you may
  13:C:/src/bakalarka_workspace/ETHCAT_FWUPDATE_SSC_APPLICATION_XMC48/Libraries/CMSIS/Include\cmsis_gcc.h ****  * not use this file except in compliance with the License.
  14:C:/src/bakalarka_workspace/ETHCAT_FWUPDATE_SSC_APPLICATION_XMC48/Libraries/CMSIS/Include\cmsis_gcc.h ****  * You may obtain a copy of the License at
  15:C:/src/bakalarka_workspace/ETHCAT_FWUPDATE_SSC_APPLICATION_XMC48/Libraries/CMSIS/Include\cmsis_gcc.h ****  *
  16:C:/src/bakalarka_workspace/ETHCAT_FWUPDATE_SSC_APPLICATION_XMC48/Libraries/CMSIS/Include\cmsis_gcc.h ****  * www.apache.org/licenses/LICENSE-2.0
  17:C:/src/bakalarka_workspace/ETHCAT_FWUPDATE_SSC_APPLICATION_XMC48/Libraries/CMSIS/Include\cmsis_gcc.h ****  *
  18:C:/src/bakalarka_workspace/ETHCAT_FWUPDATE_SSC_APPLICATION_XMC48/Libraries/CMSIS/Include\cmsis_gcc.h ****  * Unless required by applicable law or agreed to in writing, software
  19:C:/src/bakalarka_workspace/ETHCAT_FWUPDATE_SSC_APPLICATION_XMC48/Libraries/CMSIS/Include\cmsis_gcc.h ****  * distributed under the License is distributed on an AS IS BASIS, WITHOUT
  20:C:/src/bakalarka_workspace/ETHCAT_FWUPDATE_SSC_APPLICATION_XMC48/Libraries/CMSIS/Include\cmsis_gcc.h ****  * WARRANTIES OR CONDITIONS OF ANY KIND, either express or implied.
  21:C:/src/bakalarka_workspace/ETHCAT_FWUPDATE_SSC_APPLICATION_XMC48/Libraries/CMSIS/Include\cmsis_gcc.h ****  * See the License for the specific language governing permissions and
  22:C:/src/bakalarka_workspace/ETHCAT_FWUPDATE_SSC_APPLICATION_XMC48/Libraries/CMSIS/Include\cmsis_gcc.h ****  * limitations under the License.
  23:C:/src/bakalarka_workspace/ETHCAT_FWUPDATE_SSC_APPLICATION_XMC48/Libraries/CMSIS/Include\cmsis_gcc.h ****  */
  24:C:/src/bakalarka_workspace/ETHCAT_FWUPDATE_SSC_APPLICATION_XMC48/Libraries/CMSIS/Include\cmsis_gcc.h **** 
  25:C:/src/bakalarka_workspace/ETHCAT_FWUPDATE_SSC_APPLICATION_XMC48/Libraries/CMSIS/Include\cmsis_gcc.h **** #ifndef __CMSIS_GCC_H
  26:C:/src/bakalarka_workspace/ETHCAT_FWUPDATE_SSC_APPLICATION_XMC48/Libraries/CMSIS/Include\cmsis_gcc.h **** #define __CMSIS_GCC_H
  27:C:/src/bakalarka_workspace/ETHCAT_FWUPDATE_SSC_APPLICATION_XMC48/Libraries/CMSIS/Include\cmsis_gcc.h **** 
  28:C:/src/bakalarka_workspace/ETHCAT_FWUPDATE_SSC_APPLICATION_XMC48/Libraries/CMSIS/Include\cmsis_gcc.h **** /* ignore some GCC warnings */
  29:C:/src/bakalarka_workspace/ETHCAT_FWUPDATE_SSC_APPLICATION_XMC48/Libraries/CMSIS/Include\cmsis_gcc.h **** #pragma GCC diagnostic push
  30:C:/src/bakalarka_workspace/ETHCAT_FWUPDATE_SSC_APPLICATION_XMC48/Libraries/CMSIS/Include\cmsis_gcc.h **** #pragma GCC diagnostic ignored "-Wsign-conversion"
  31:C:/src/bakalarka_workspace/ETHCAT_FWUPDATE_SSC_APPLICATION_XMC48/Libraries/CMSIS/Include\cmsis_gcc.h **** #pragma GCC diagnostic ignored "-Wconversion"
  32:C:/src/bakalarka_workspace/ETHCAT_FWUPDATE_SSC_APPLICATION_XMC48/Libraries/CMSIS/Include\cmsis_gcc.h **** #pragma GCC diagnostic ignored "-Wunused-parameter"
  33:C:/src/bakalarka_workspace/ETHCAT_FWUPDATE_SSC_APPLICATION_XMC48/Libraries/CMSIS/Include\cmsis_gcc.h **** 
  34:C:/src/bakalarka_workspace/ETHCAT_FWUPDATE_SSC_APPLICATION_XMC48/Libraries/CMSIS/Include\cmsis_gcc.h **** /* Fallback for __has_builtin */
  35:C:/src/bakalarka_workspace/ETHCAT_FWUPDATE_SSC_APPLICATION_XMC48/Libraries/CMSIS/Include\cmsis_gcc.h **** #ifndef __has_builtin
  36:C:/src/bakalarka_workspace/ETHCAT_FWUPDATE_SSC_APPLICATION_XMC48/Libraries/CMSIS/Include\cmsis_gcc.h ****   #define __has_builtin(x) (0)
  37:C:/src/bakalarka_workspace/ETHCAT_FWUPDATE_SSC_APPLICATION_XMC48/Libraries/CMSIS/Include\cmsis_gcc.h **** #endif
  38:C:/src/bakalarka_workspace/ETHCAT_FWUPDATE_SSC_APPLICATION_XMC48/Libraries/CMSIS/Include\cmsis_gcc.h **** 
  39:C:/src/bakalarka_workspace/ETHCAT_FWUPDATE_SSC_APPLICATION_XMC48/Libraries/CMSIS/Include\cmsis_gcc.h **** /* CMSIS compiler specific defines */
  40:C:/src/bakalarka_workspace/ETHCAT_FWUPDATE_SSC_APPLICATION_XMC48/Libraries/CMSIS/Include\cmsis_gcc.h **** #ifndef   __ASM
  41:C:/src/bakalarka_workspace/ETHCAT_FWUPDATE_SSC_APPLICATION_XMC48/Libraries/CMSIS/Include\cmsis_gcc.h ****   #define __ASM                                  __asm
  42:C:/src/bakalarka_workspace/ETHCAT_FWUPDATE_SSC_APPLICATION_XMC48/Libraries/CMSIS/Include\cmsis_gcc.h **** #endif
  43:C:/src/bakalarka_workspace/ETHCAT_FWUPDATE_SSC_APPLICATION_XMC48/Libraries/CMSIS/Include\cmsis_gcc.h **** #ifndef   __INLINE
  44:C:/src/bakalarka_workspace/ETHCAT_FWUPDATE_SSC_APPLICATION_XMC48/Libraries/CMSIS/Include\cmsis_gcc.h ****   #define __INLINE                               inline
  45:C:/src/bakalarka_workspace/ETHCAT_FWUPDATE_SSC_APPLICATION_XMC48/Libraries/CMSIS/Include\cmsis_gcc.h **** #endif
  46:C:/src/bakalarka_workspace/ETHCAT_FWUPDATE_SSC_APPLICATION_XMC48/Libraries/CMSIS/Include\cmsis_gcc.h **** #ifndef   __STATIC_INLINE
  47:C:/src/bakalarka_workspace/ETHCAT_FWUPDATE_SSC_APPLICATION_XMC48/Libraries/CMSIS/Include\cmsis_gcc.h ****   #define __STATIC_INLINE                        static inline
  48:C:/src/bakalarka_workspace/ETHCAT_FWUPDATE_SSC_APPLICATION_XMC48/Libraries/CMSIS/Include\cmsis_gcc.h **** #endif
  49:C:/src/bakalarka_workspace/ETHCAT_FWUPDATE_SSC_APPLICATION_XMC48/Libraries/CMSIS/Include\cmsis_gcc.h **** #ifndef   __STATIC_FORCEINLINE                 
  50:C:/src/bakalarka_workspace/ETHCAT_FWUPDATE_SSC_APPLICATION_XMC48/Libraries/CMSIS/Include\cmsis_gcc.h ****   #define __STATIC_FORCEINLINE                   __attribute__((always_inline)) static inline
  51:C:/src/bakalarka_workspace/ETHCAT_FWUPDATE_SSC_APPLICATION_XMC48/Libraries/CMSIS/Include\cmsis_gcc.h **** #endif                                           
  52:C:/src/bakalarka_workspace/ETHCAT_FWUPDATE_SSC_APPLICATION_XMC48/Libraries/CMSIS/Include\cmsis_gcc.h **** #ifndef   __NO_RETURN
  53:C:/src/bakalarka_workspace/ETHCAT_FWUPDATE_SSC_APPLICATION_XMC48/Libraries/CMSIS/Include\cmsis_gcc.h ****   #define __NO_RETURN                            __attribute__((__noreturn__))
  54:C:/src/bakalarka_workspace/ETHCAT_FWUPDATE_SSC_APPLICATION_XMC48/Libraries/CMSIS/Include\cmsis_gcc.h **** #endif
  55:C:/src/bakalarka_workspace/ETHCAT_FWUPDATE_SSC_APPLICATION_XMC48/Libraries/CMSIS/Include\cmsis_gcc.h **** #ifndef   __USED
  56:C:/src/bakalarka_workspace/ETHCAT_FWUPDATE_SSC_APPLICATION_XMC48/Libraries/CMSIS/Include\cmsis_gcc.h ****   #define __USED                                 __attribute__((used))
  57:C:/src/bakalarka_workspace/ETHCAT_FWUPDATE_SSC_APPLICATION_XMC48/Libraries/CMSIS/Include\cmsis_gcc.h **** #endif
  58:C:/src/bakalarka_workspace/ETHCAT_FWUPDATE_SSC_APPLICATION_XMC48/Libraries/CMSIS/Include\cmsis_gcc.h **** #ifndef   __WEAK
  59:C:/src/bakalarka_workspace/ETHCAT_FWUPDATE_SSC_APPLICATION_XMC48/Libraries/CMSIS/Include\cmsis_gcc.h ****   #define __WEAK                                 __attribute__((weak))
  60:C:/src/bakalarka_workspace/ETHCAT_FWUPDATE_SSC_APPLICATION_XMC48/Libraries/CMSIS/Include\cmsis_gcc.h **** #endif
  61:C:/src/bakalarka_workspace/ETHCAT_FWUPDATE_SSC_APPLICATION_XMC48/Libraries/CMSIS/Include\cmsis_gcc.h **** #ifndef   __PACKED
  62:C:/src/bakalarka_workspace/ETHCAT_FWUPDATE_SSC_APPLICATION_XMC48/Libraries/CMSIS/Include\cmsis_gcc.h ****   #define __PACKED                               __attribute__((packed, aligned(1)))
  63:C:/src/bakalarka_workspace/ETHCAT_FWUPDATE_SSC_APPLICATION_XMC48/Libraries/CMSIS/Include\cmsis_gcc.h **** #endif
  64:C:/src/bakalarka_workspace/ETHCAT_FWUPDATE_SSC_APPLICATION_XMC48/Libraries/CMSIS/Include\cmsis_gcc.h **** #ifndef   __PACKED_STRUCT
  65:C:/src/bakalarka_workspace/ETHCAT_FWUPDATE_SSC_APPLICATION_XMC48/Libraries/CMSIS/Include\cmsis_gcc.h ****   #define __PACKED_STRUCT                        struct __attribute__((packed, aligned(1)))
  66:C:/src/bakalarka_workspace/ETHCAT_FWUPDATE_SSC_APPLICATION_XMC48/Libraries/CMSIS/Include\cmsis_gcc.h **** #endif
  67:C:/src/bakalarka_workspace/ETHCAT_FWUPDATE_SSC_APPLICATION_XMC48/Libraries/CMSIS/Include\cmsis_gcc.h **** #ifndef   __PACKED_UNION
  68:C:/src/bakalarka_workspace/ETHCAT_FWUPDATE_SSC_APPLICATION_XMC48/Libraries/CMSIS/Include\cmsis_gcc.h ****   #define __PACKED_UNION                         union __attribute__((packed, aligned(1)))
  69:C:/src/bakalarka_workspace/ETHCAT_FWUPDATE_SSC_APPLICATION_XMC48/Libraries/CMSIS/Include\cmsis_gcc.h **** #endif
  70:C:/src/bakalarka_workspace/ETHCAT_FWUPDATE_SSC_APPLICATION_XMC48/Libraries/CMSIS/Include\cmsis_gcc.h **** #ifndef   __UNALIGNED_UINT32        /* deprecated */
  71:C:/src/bakalarka_workspace/ETHCAT_FWUPDATE_SSC_APPLICATION_XMC48/Libraries/CMSIS/Include\cmsis_gcc.h ****   #pragma GCC diagnostic push
  72:C:/src/bakalarka_workspace/ETHCAT_FWUPDATE_SSC_APPLICATION_XMC48/Libraries/CMSIS/Include\cmsis_gcc.h ****   #pragma GCC diagnostic ignored "-Wpacked"
  73:C:/src/bakalarka_workspace/ETHCAT_FWUPDATE_SSC_APPLICATION_XMC48/Libraries/CMSIS/Include\cmsis_gcc.h ****   #pragma GCC diagnostic ignored "-Wattributes"
  74:C:/src/bakalarka_workspace/ETHCAT_FWUPDATE_SSC_APPLICATION_XMC48/Libraries/CMSIS/Include\cmsis_gcc.h ****   struct __attribute__((packed)) T_UINT32 { uint32_t v; };
  75:C:/src/bakalarka_workspace/ETHCAT_FWUPDATE_SSC_APPLICATION_XMC48/Libraries/CMSIS/Include\cmsis_gcc.h ****   #pragma GCC diagnostic pop
  76:C:/src/bakalarka_workspace/ETHCAT_FWUPDATE_SSC_APPLICATION_XMC48/Libraries/CMSIS/Include\cmsis_gcc.h ****   #define __UNALIGNED_UINT32(x)                  (((struct T_UINT32 *)(x))->v)
  77:C:/src/bakalarka_workspace/ETHCAT_FWUPDATE_SSC_APPLICATION_XMC48/Libraries/CMSIS/Include\cmsis_gcc.h **** #endif
  78:C:/src/bakalarka_workspace/ETHCAT_FWUPDATE_SSC_APPLICATION_XMC48/Libraries/CMSIS/Include\cmsis_gcc.h **** #ifndef   __UNALIGNED_UINT16_WRITE
  79:C:/src/bakalarka_workspace/ETHCAT_FWUPDATE_SSC_APPLICATION_XMC48/Libraries/CMSIS/Include\cmsis_gcc.h ****   #pragma GCC diagnostic push
  80:C:/src/bakalarka_workspace/ETHCAT_FWUPDATE_SSC_APPLICATION_XMC48/Libraries/CMSIS/Include\cmsis_gcc.h ****   #pragma GCC diagnostic ignored "-Wpacked"
  81:C:/src/bakalarka_workspace/ETHCAT_FWUPDATE_SSC_APPLICATION_XMC48/Libraries/CMSIS/Include\cmsis_gcc.h ****   #pragma GCC diagnostic ignored "-Wattributes"
  82:C:/src/bakalarka_workspace/ETHCAT_FWUPDATE_SSC_APPLICATION_XMC48/Libraries/CMSIS/Include\cmsis_gcc.h ****   __PACKED_STRUCT T_UINT16_WRITE { uint16_t v; };
  83:C:/src/bakalarka_workspace/ETHCAT_FWUPDATE_SSC_APPLICATION_XMC48/Libraries/CMSIS/Include\cmsis_gcc.h ****   #pragma GCC diagnostic pop
  84:C:/src/bakalarka_workspace/ETHCAT_FWUPDATE_SSC_APPLICATION_XMC48/Libraries/CMSIS/Include\cmsis_gcc.h ****   #define __UNALIGNED_UINT16_WRITE(addr, val)    (void)((((struct T_UINT16_WRITE *)(void *)(addr))-
  85:C:/src/bakalarka_workspace/ETHCAT_FWUPDATE_SSC_APPLICATION_XMC48/Libraries/CMSIS/Include\cmsis_gcc.h **** #endif
  86:C:/src/bakalarka_workspace/ETHCAT_FWUPDATE_SSC_APPLICATION_XMC48/Libraries/CMSIS/Include\cmsis_gcc.h **** #ifndef   __UNALIGNED_UINT16_READ
  87:C:/src/bakalarka_workspace/ETHCAT_FWUPDATE_SSC_APPLICATION_XMC48/Libraries/CMSIS/Include\cmsis_gcc.h ****   #pragma GCC diagnostic push
  88:C:/src/bakalarka_workspace/ETHCAT_FWUPDATE_SSC_APPLICATION_XMC48/Libraries/CMSIS/Include\cmsis_gcc.h ****   #pragma GCC diagnostic ignored "-Wpacked"
  89:C:/src/bakalarka_workspace/ETHCAT_FWUPDATE_SSC_APPLICATION_XMC48/Libraries/CMSIS/Include\cmsis_gcc.h ****   #pragma GCC diagnostic ignored "-Wattributes"
  90:C:/src/bakalarka_workspace/ETHCAT_FWUPDATE_SSC_APPLICATION_XMC48/Libraries/CMSIS/Include\cmsis_gcc.h ****   __PACKED_STRUCT T_UINT16_READ { uint16_t v; };
  91:C:/src/bakalarka_workspace/ETHCAT_FWUPDATE_SSC_APPLICATION_XMC48/Libraries/CMSIS/Include\cmsis_gcc.h ****   #pragma GCC diagnostic pop
  92:C:/src/bakalarka_workspace/ETHCAT_FWUPDATE_SSC_APPLICATION_XMC48/Libraries/CMSIS/Include\cmsis_gcc.h ****   #define __UNALIGNED_UINT16_READ(addr)          (((const struct T_UINT16_READ *)(const void *)(add
  93:C:/src/bakalarka_workspace/ETHCAT_FWUPDATE_SSC_APPLICATION_XMC48/Libraries/CMSIS/Include\cmsis_gcc.h **** #endif
  94:C:/src/bakalarka_workspace/ETHCAT_FWUPDATE_SSC_APPLICATION_XMC48/Libraries/CMSIS/Include\cmsis_gcc.h **** #ifndef   __UNALIGNED_UINT32_WRITE
  95:C:/src/bakalarka_workspace/ETHCAT_FWUPDATE_SSC_APPLICATION_XMC48/Libraries/CMSIS/Include\cmsis_gcc.h ****   #pragma GCC diagnostic push
  96:C:/src/bakalarka_workspace/ETHCAT_FWUPDATE_SSC_APPLICATION_XMC48/Libraries/CMSIS/Include\cmsis_gcc.h ****   #pragma GCC diagnostic ignored "-Wpacked"
  97:C:/src/bakalarka_workspace/ETHCAT_FWUPDATE_SSC_APPLICATION_XMC48/Libraries/CMSIS/Include\cmsis_gcc.h ****   #pragma GCC diagnostic ignored "-Wattributes"
  98:C:/src/bakalarka_workspace/ETHCAT_FWUPDATE_SSC_APPLICATION_XMC48/Libraries/CMSIS/Include\cmsis_gcc.h ****   __PACKED_STRUCT T_UINT32_WRITE { uint32_t v; };
  99:C:/src/bakalarka_workspace/ETHCAT_FWUPDATE_SSC_APPLICATION_XMC48/Libraries/CMSIS/Include\cmsis_gcc.h ****   #pragma GCC diagnostic pop
 100:C:/src/bakalarka_workspace/ETHCAT_FWUPDATE_SSC_APPLICATION_XMC48/Libraries/CMSIS/Include\cmsis_gcc.h ****   #define __UNALIGNED_UINT32_WRITE(addr, val)    (void)((((struct T_UINT32_WRITE *)(void *)(addr))-
 101:C:/src/bakalarka_workspace/ETHCAT_FWUPDATE_SSC_APPLICATION_XMC48/Libraries/CMSIS/Include\cmsis_gcc.h **** #endif
 102:C:/src/bakalarka_workspace/ETHCAT_FWUPDATE_SSC_APPLICATION_XMC48/Libraries/CMSIS/Include\cmsis_gcc.h **** #ifndef   __UNALIGNED_UINT32_READ
 103:C:/src/bakalarka_workspace/ETHCAT_FWUPDATE_SSC_APPLICATION_XMC48/Libraries/CMSIS/Include\cmsis_gcc.h ****   #pragma GCC diagnostic push
 104:C:/src/bakalarka_workspace/ETHCAT_FWUPDATE_SSC_APPLICATION_XMC48/Libraries/CMSIS/Include\cmsis_gcc.h ****   #pragma GCC diagnostic ignored "-Wpacked"
 105:C:/src/bakalarka_workspace/ETHCAT_FWUPDATE_SSC_APPLICATION_XMC48/Libraries/CMSIS/Include\cmsis_gcc.h ****   #pragma GCC diagnostic ignored "-Wattributes"
 106:C:/src/bakalarka_workspace/ETHCAT_FWUPDATE_SSC_APPLICATION_XMC48/Libraries/CMSIS/Include\cmsis_gcc.h ****   __PACKED_STRUCT T_UINT32_READ { uint32_t v; };
 107:C:/src/bakalarka_workspace/ETHCAT_FWUPDATE_SSC_APPLICATION_XMC48/Libraries/CMSIS/Include\cmsis_gcc.h ****   #pragma GCC diagnostic pop
 108:C:/src/bakalarka_workspace/ETHCAT_FWUPDATE_SSC_APPLICATION_XMC48/Libraries/CMSIS/Include\cmsis_gcc.h ****   #define __UNALIGNED_UINT32_READ(addr)          (((const struct T_UINT32_READ *)(const void *)(add
 109:C:/src/bakalarka_workspace/ETHCAT_FWUPDATE_SSC_APPLICATION_XMC48/Libraries/CMSIS/Include\cmsis_gcc.h **** #endif
 110:C:/src/bakalarka_workspace/ETHCAT_FWUPDATE_SSC_APPLICATION_XMC48/Libraries/CMSIS/Include\cmsis_gcc.h **** #ifndef   __ALIGNED
 111:C:/src/bakalarka_workspace/ETHCAT_FWUPDATE_SSC_APPLICATION_XMC48/Libraries/CMSIS/Include\cmsis_gcc.h ****   #define __ALIGNED(x)                           __attribute__((aligned(x)))
 112:C:/src/bakalarka_workspace/ETHCAT_FWUPDATE_SSC_APPLICATION_XMC48/Libraries/CMSIS/Include\cmsis_gcc.h **** #endif
 113:C:/src/bakalarka_workspace/ETHCAT_FWUPDATE_SSC_APPLICATION_XMC48/Libraries/CMSIS/Include\cmsis_gcc.h **** #ifndef   __RESTRICT
 114:C:/src/bakalarka_workspace/ETHCAT_FWUPDATE_SSC_APPLICATION_XMC48/Libraries/CMSIS/Include\cmsis_gcc.h ****   #define __RESTRICT                             __restrict
 115:C:/src/bakalarka_workspace/ETHCAT_FWUPDATE_SSC_APPLICATION_XMC48/Libraries/CMSIS/Include\cmsis_gcc.h **** #endif
 116:C:/src/bakalarka_workspace/ETHCAT_FWUPDATE_SSC_APPLICATION_XMC48/Libraries/CMSIS/Include\cmsis_gcc.h **** 
 117:C:/src/bakalarka_workspace/ETHCAT_FWUPDATE_SSC_APPLICATION_XMC48/Libraries/CMSIS/Include\cmsis_gcc.h **** 
 118:C:/src/bakalarka_workspace/ETHCAT_FWUPDATE_SSC_APPLICATION_XMC48/Libraries/CMSIS/Include\cmsis_gcc.h **** /* ###########################  Core Function Access  ########################### */
 119:C:/src/bakalarka_workspace/ETHCAT_FWUPDATE_SSC_APPLICATION_XMC48/Libraries/CMSIS/Include\cmsis_gcc.h **** /** \ingroup  CMSIS_Core_FunctionInterface
 120:C:/src/bakalarka_workspace/ETHCAT_FWUPDATE_SSC_APPLICATION_XMC48/Libraries/CMSIS/Include\cmsis_gcc.h ****     \defgroup CMSIS_Core_RegAccFunctions CMSIS Core Register Access Functions
 121:C:/src/bakalarka_workspace/ETHCAT_FWUPDATE_SSC_APPLICATION_XMC48/Libraries/CMSIS/Include\cmsis_gcc.h ****   @{
 122:C:/src/bakalarka_workspace/ETHCAT_FWUPDATE_SSC_APPLICATION_XMC48/Libraries/CMSIS/Include\cmsis_gcc.h ****  */
 123:C:/src/bakalarka_workspace/ETHCAT_FWUPDATE_SSC_APPLICATION_XMC48/Libraries/CMSIS/Include\cmsis_gcc.h **** 
 124:C:/src/bakalarka_workspace/ETHCAT_FWUPDATE_SSC_APPLICATION_XMC48/Libraries/CMSIS/Include\cmsis_gcc.h **** /**
 125:C:/src/bakalarka_workspace/ETHCAT_FWUPDATE_SSC_APPLICATION_XMC48/Libraries/CMSIS/Include\cmsis_gcc.h ****   \brief   Enable IRQ Interrupts
 126:C:/src/bakalarka_workspace/ETHCAT_FWUPDATE_SSC_APPLICATION_XMC48/Libraries/CMSIS/Include\cmsis_gcc.h ****   \details Enables IRQ interrupts by clearing the I-bit in the CPSR.
 127:C:/src/bakalarka_workspace/ETHCAT_FWUPDATE_SSC_APPLICATION_XMC48/Libraries/CMSIS/Include\cmsis_gcc.h ****            Can only be executed in Privileged modes.
 128:C:/src/bakalarka_workspace/ETHCAT_FWUPDATE_SSC_APPLICATION_XMC48/Libraries/CMSIS/Include\cmsis_gcc.h ****  */
 129:C:/src/bakalarka_workspace/ETHCAT_FWUPDATE_SSC_APPLICATION_XMC48/Libraries/CMSIS/Include\cmsis_gcc.h **** __STATIC_FORCEINLINE void __enable_irq(void)
 130:C:/src/bakalarka_workspace/ETHCAT_FWUPDATE_SSC_APPLICATION_XMC48/Libraries/CMSIS/Include\cmsis_gcc.h **** {
 131:C:/src/bakalarka_workspace/ETHCAT_FWUPDATE_SSC_APPLICATION_XMC48/Libraries/CMSIS/Include\cmsis_gcc.h ****   __ASM volatile ("cpsie i" : : : "memory");
 132:C:/src/bakalarka_workspace/ETHCAT_FWUPDATE_SSC_APPLICATION_XMC48/Libraries/CMSIS/Include\cmsis_gcc.h **** }
 133:C:/src/bakalarka_workspace/ETHCAT_FWUPDATE_SSC_APPLICATION_XMC48/Libraries/CMSIS/Include\cmsis_gcc.h **** 
 134:C:/src/bakalarka_workspace/ETHCAT_FWUPDATE_SSC_APPLICATION_XMC48/Libraries/CMSIS/Include\cmsis_gcc.h **** 
 135:C:/src/bakalarka_workspace/ETHCAT_FWUPDATE_SSC_APPLICATION_XMC48/Libraries/CMSIS/Include\cmsis_gcc.h **** /**
 136:C:/src/bakalarka_workspace/ETHCAT_FWUPDATE_SSC_APPLICATION_XMC48/Libraries/CMSIS/Include\cmsis_gcc.h ****   \brief   Disable IRQ Interrupts
 137:C:/src/bakalarka_workspace/ETHCAT_FWUPDATE_SSC_APPLICATION_XMC48/Libraries/CMSIS/Include\cmsis_gcc.h ****   \details Disables IRQ interrupts by setting the I-bit in the CPSR.
 138:C:/src/bakalarka_workspace/ETHCAT_FWUPDATE_SSC_APPLICATION_XMC48/Libraries/CMSIS/Include\cmsis_gcc.h ****            Can only be executed in Privileged modes.
 139:C:/src/bakalarka_workspace/ETHCAT_FWUPDATE_SSC_APPLICATION_XMC48/Libraries/CMSIS/Include\cmsis_gcc.h ****  */
 140:C:/src/bakalarka_workspace/ETHCAT_FWUPDATE_SSC_APPLICATION_XMC48/Libraries/CMSIS/Include\cmsis_gcc.h **** __STATIC_FORCEINLINE void __disable_irq(void)
 141:C:/src/bakalarka_workspace/ETHCAT_FWUPDATE_SSC_APPLICATION_XMC48/Libraries/CMSIS/Include\cmsis_gcc.h **** {
 142:C:/src/bakalarka_workspace/ETHCAT_FWUPDATE_SSC_APPLICATION_XMC48/Libraries/CMSIS/Include\cmsis_gcc.h ****   __ASM volatile ("cpsid i" : : : "memory");
 159              	 .loc 2 142 0
 160              	
 161 0006 72B6     	 cpsid i
 162              	
 163              	 .thumb
 164              	.LBE9:
 165              	.LBE8:
 413:../Startup/system_XMC4800.c ****   uint32_t temp;
 414:../Startup/system_XMC4800.c **** 
 415:../Startup/system_XMC4800.c ****   /* relocate vector table */
 416:../Startup/system_XMC4800.c ****   __disable_irq();
 417:../Startup/system_XMC4800.c ****   SCB->VTOR = (uint32_t)(&__Vectors);
 166              	 .loc 1 417 0
 167 0008 164B     	 ldr r3,.L8
 168 000a 174A     	 ldr r2,.L8+4
 169 000c 9A60     	 str r2,[r3,#8]
 170              	.LBB10:
 171              	.LBB11:
 143:C:/src/bakalarka_workspace/ETHCAT_FWUPDATE_SSC_APPLICATION_XMC48/Libraries/CMSIS/Include\cmsis_gcc.h **** }
 144:C:/src/bakalarka_workspace/ETHCAT_FWUPDATE_SSC_APPLICATION_XMC48/Libraries/CMSIS/Include\cmsis_gcc.h **** 
 145:C:/src/bakalarka_workspace/ETHCAT_FWUPDATE_SSC_APPLICATION_XMC48/Libraries/CMSIS/Include\cmsis_gcc.h **** 
 146:C:/src/bakalarka_workspace/ETHCAT_FWUPDATE_SSC_APPLICATION_XMC48/Libraries/CMSIS/Include\cmsis_gcc.h **** /**
 147:C:/src/bakalarka_workspace/ETHCAT_FWUPDATE_SSC_APPLICATION_XMC48/Libraries/CMSIS/Include\cmsis_gcc.h ****   \brief   Get Control Register
 148:C:/src/bakalarka_workspace/ETHCAT_FWUPDATE_SSC_APPLICATION_XMC48/Libraries/CMSIS/Include\cmsis_gcc.h ****   \details Returns the content of the Control Register.
 149:C:/src/bakalarka_workspace/ETHCAT_FWUPDATE_SSC_APPLICATION_XMC48/Libraries/CMSIS/Include\cmsis_gcc.h ****   \return               Control Register value
 150:C:/src/bakalarka_workspace/ETHCAT_FWUPDATE_SSC_APPLICATION_XMC48/Libraries/CMSIS/Include\cmsis_gcc.h ****  */
 151:C:/src/bakalarka_workspace/ETHCAT_FWUPDATE_SSC_APPLICATION_XMC48/Libraries/CMSIS/Include\cmsis_gcc.h **** __STATIC_FORCEINLINE uint32_t __get_CONTROL(void)
 152:C:/src/bakalarka_workspace/ETHCAT_FWUPDATE_SSC_APPLICATION_XMC48/Libraries/CMSIS/Include\cmsis_gcc.h **** {
 153:C:/src/bakalarka_workspace/ETHCAT_FWUPDATE_SSC_APPLICATION_XMC48/Libraries/CMSIS/Include\cmsis_gcc.h ****   uint32_t result;
 154:C:/src/bakalarka_workspace/ETHCAT_FWUPDATE_SSC_APPLICATION_XMC48/Libraries/CMSIS/Include\cmsis_gcc.h **** 
 155:C:/src/bakalarka_workspace/ETHCAT_FWUPDATE_SSC_APPLICATION_XMC48/Libraries/CMSIS/Include\cmsis_gcc.h ****   __ASM volatile ("MRS %0, control" : "=r" (result) );
 156:C:/src/bakalarka_workspace/ETHCAT_FWUPDATE_SSC_APPLICATION_XMC48/Libraries/CMSIS/Include\cmsis_gcc.h ****   return(result);
 157:C:/src/bakalarka_workspace/ETHCAT_FWUPDATE_SSC_APPLICATION_XMC48/Libraries/CMSIS/Include\cmsis_gcc.h **** }
 158:C:/src/bakalarka_workspace/ETHCAT_FWUPDATE_SSC_APPLICATION_XMC48/Libraries/CMSIS/Include\cmsis_gcc.h **** 
 159:C:/src/bakalarka_workspace/ETHCAT_FWUPDATE_SSC_APPLICATION_XMC48/Libraries/CMSIS/Include\cmsis_gcc.h **** 
 160:C:/src/bakalarka_workspace/ETHCAT_FWUPDATE_SSC_APPLICATION_XMC48/Libraries/CMSIS/Include\cmsis_gcc.h **** #if (defined (__ARM_FEATURE_CMSE ) && (__ARM_FEATURE_CMSE == 3))
 161:C:/src/bakalarka_workspace/ETHCAT_FWUPDATE_SSC_APPLICATION_XMC48/Libraries/CMSIS/Include\cmsis_gcc.h **** /**
 162:C:/src/bakalarka_workspace/ETHCAT_FWUPDATE_SSC_APPLICATION_XMC48/Libraries/CMSIS/Include\cmsis_gcc.h ****   \brief   Get Control Register (non-secure)
 163:C:/src/bakalarka_workspace/ETHCAT_FWUPDATE_SSC_APPLICATION_XMC48/Libraries/CMSIS/Include\cmsis_gcc.h ****   \details Returns the content of the non-secure Control Register when in secure mode.
 164:C:/src/bakalarka_workspace/ETHCAT_FWUPDATE_SSC_APPLICATION_XMC48/Libraries/CMSIS/Include\cmsis_gcc.h ****   \return               non-secure Control Register value
 165:C:/src/bakalarka_workspace/ETHCAT_FWUPDATE_SSC_APPLICATION_XMC48/Libraries/CMSIS/Include\cmsis_gcc.h ****  */
 166:C:/src/bakalarka_workspace/ETHCAT_FWUPDATE_SSC_APPLICATION_XMC48/Libraries/CMSIS/Include\cmsis_gcc.h **** __STATIC_FORCEINLINE uint32_t __TZ_get_CONTROL_NS(void)
 167:C:/src/bakalarka_workspace/ETHCAT_FWUPDATE_SSC_APPLICATION_XMC48/Libraries/CMSIS/Include\cmsis_gcc.h **** {
 168:C:/src/bakalarka_workspace/ETHCAT_FWUPDATE_SSC_APPLICATION_XMC48/Libraries/CMSIS/Include\cmsis_gcc.h ****   uint32_t result;
 169:C:/src/bakalarka_workspace/ETHCAT_FWUPDATE_SSC_APPLICATION_XMC48/Libraries/CMSIS/Include\cmsis_gcc.h **** 
 170:C:/src/bakalarka_workspace/ETHCAT_FWUPDATE_SSC_APPLICATION_XMC48/Libraries/CMSIS/Include\cmsis_gcc.h ****   __ASM volatile ("MRS %0, control_ns" : "=r" (result) );
 171:C:/src/bakalarka_workspace/ETHCAT_FWUPDATE_SSC_APPLICATION_XMC48/Libraries/CMSIS/Include\cmsis_gcc.h ****   return(result);
 172:C:/src/bakalarka_workspace/ETHCAT_FWUPDATE_SSC_APPLICATION_XMC48/Libraries/CMSIS/Include\cmsis_gcc.h **** }
 173:C:/src/bakalarka_workspace/ETHCAT_FWUPDATE_SSC_APPLICATION_XMC48/Libraries/CMSIS/Include\cmsis_gcc.h **** #endif
 174:C:/src/bakalarka_workspace/ETHCAT_FWUPDATE_SSC_APPLICATION_XMC48/Libraries/CMSIS/Include\cmsis_gcc.h **** 
 175:C:/src/bakalarka_workspace/ETHCAT_FWUPDATE_SSC_APPLICATION_XMC48/Libraries/CMSIS/Include\cmsis_gcc.h **** 
 176:C:/src/bakalarka_workspace/ETHCAT_FWUPDATE_SSC_APPLICATION_XMC48/Libraries/CMSIS/Include\cmsis_gcc.h **** /**
 177:C:/src/bakalarka_workspace/ETHCAT_FWUPDATE_SSC_APPLICATION_XMC48/Libraries/CMSIS/Include\cmsis_gcc.h ****   \brief   Set Control Register
 178:C:/src/bakalarka_workspace/ETHCAT_FWUPDATE_SSC_APPLICATION_XMC48/Libraries/CMSIS/Include\cmsis_gcc.h ****   \details Writes the given value to the Control Register.
 179:C:/src/bakalarka_workspace/ETHCAT_FWUPDATE_SSC_APPLICATION_XMC48/Libraries/CMSIS/Include\cmsis_gcc.h ****   \param [in]    control  Control Register value to set
 180:C:/src/bakalarka_workspace/ETHCAT_FWUPDATE_SSC_APPLICATION_XMC48/Libraries/CMSIS/Include\cmsis_gcc.h ****  */
 181:C:/src/bakalarka_workspace/ETHCAT_FWUPDATE_SSC_APPLICATION_XMC48/Libraries/CMSIS/Include\cmsis_gcc.h **** __STATIC_FORCEINLINE void __set_CONTROL(uint32_t control)
 182:C:/src/bakalarka_workspace/ETHCAT_FWUPDATE_SSC_APPLICATION_XMC48/Libraries/CMSIS/Include\cmsis_gcc.h **** {
 183:C:/src/bakalarka_workspace/ETHCAT_FWUPDATE_SSC_APPLICATION_XMC48/Libraries/CMSIS/Include\cmsis_gcc.h ****   __ASM volatile ("MSR control, %0" : : "r" (control) : "memory");
 184:C:/src/bakalarka_workspace/ETHCAT_FWUPDATE_SSC_APPLICATION_XMC48/Libraries/CMSIS/Include\cmsis_gcc.h **** }
 185:C:/src/bakalarka_workspace/ETHCAT_FWUPDATE_SSC_APPLICATION_XMC48/Libraries/CMSIS/Include\cmsis_gcc.h **** 
 186:C:/src/bakalarka_workspace/ETHCAT_FWUPDATE_SSC_APPLICATION_XMC48/Libraries/CMSIS/Include\cmsis_gcc.h **** 
 187:C:/src/bakalarka_workspace/ETHCAT_FWUPDATE_SSC_APPLICATION_XMC48/Libraries/CMSIS/Include\cmsis_gcc.h **** #if (defined (__ARM_FEATURE_CMSE ) && (__ARM_FEATURE_CMSE == 3))
 188:C:/src/bakalarka_workspace/ETHCAT_FWUPDATE_SSC_APPLICATION_XMC48/Libraries/CMSIS/Include\cmsis_gcc.h **** /**
 189:C:/src/bakalarka_workspace/ETHCAT_FWUPDATE_SSC_APPLICATION_XMC48/Libraries/CMSIS/Include\cmsis_gcc.h ****   \brief   Set Control Register (non-secure)
 190:C:/src/bakalarka_workspace/ETHCAT_FWUPDATE_SSC_APPLICATION_XMC48/Libraries/CMSIS/Include\cmsis_gcc.h ****   \details Writes the given value to the non-secure Control Register when in secure state.
 191:C:/src/bakalarka_workspace/ETHCAT_FWUPDATE_SSC_APPLICATION_XMC48/Libraries/CMSIS/Include\cmsis_gcc.h ****   \param [in]    control  Control Register value to set
 192:C:/src/bakalarka_workspace/ETHCAT_FWUPDATE_SSC_APPLICATION_XMC48/Libraries/CMSIS/Include\cmsis_gcc.h ****  */
 193:C:/src/bakalarka_workspace/ETHCAT_FWUPDATE_SSC_APPLICATION_XMC48/Libraries/CMSIS/Include\cmsis_gcc.h **** __STATIC_FORCEINLINE void __TZ_set_CONTROL_NS(uint32_t control)
 194:C:/src/bakalarka_workspace/ETHCAT_FWUPDATE_SSC_APPLICATION_XMC48/Libraries/CMSIS/Include\cmsis_gcc.h **** {
 195:C:/src/bakalarka_workspace/ETHCAT_FWUPDATE_SSC_APPLICATION_XMC48/Libraries/CMSIS/Include\cmsis_gcc.h ****   __ASM volatile ("MSR control_ns, %0" : : "r" (control) : "memory");
 196:C:/src/bakalarka_workspace/ETHCAT_FWUPDATE_SSC_APPLICATION_XMC48/Libraries/CMSIS/Include\cmsis_gcc.h **** }
 197:C:/src/bakalarka_workspace/ETHCAT_FWUPDATE_SSC_APPLICATION_XMC48/Libraries/CMSIS/Include\cmsis_gcc.h **** #endif
 198:C:/src/bakalarka_workspace/ETHCAT_FWUPDATE_SSC_APPLICATION_XMC48/Libraries/CMSIS/Include\cmsis_gcc.h **** 
 199:C:/src/bakalarka_workspace/ETHCAT_FWUPDATE_SSC_APPLICATION_XMC48/Libraries/CMSIS/Include\cmsis_gcc.h **** 
 200:C:/src/bakalarka_workspace/ETHCAT_FWUPDATE_SSC_APPLICATION_XMC48/Libraries/CMSIS/Include\cmsis_gcc.h **** /**
 201:C:/src/bakalarka_workspace/ETHCAT_FWUPDATE_SSC_APPLICATION_XMC48/Libraries/CMSIS/Include\cmsis_gcc.h ****   \brief   Get IPSR Register
 202:C:/src/bakalarka_workspace/ETHCAT_FWUPDATE_SSC_APPLICATION_XMC48/Libraries/CMSIS/Include\cmsis_gcc.h ****   \details Returns the content of the IPSR Register.
 203:C:/src/bakalarka_workspace/ETHCAT_FWUPDATE_SSC_APPLICATION_XMC48/Libraries/CMSIS/Include\cmsis_gcc.h ****   \return               IPSR Register value
 204:C:/src/bakalarka_workspace/ETHCAT_FWUPDATE_SSC_APPLICATION_XMC48/Libraries/CMSIS/Include\cmsis_gcc.h ****  */
 205:C:/src/bakalarka_workspace/ETHCAT_FWUPDATE_SSC_APPLICATION_XMC48/Libraries/CMSIS/Include\cmsis_gcc.h **** __STATIC_FORCEINLINE uint32_t __get_IPSR(void)
 206:C:/src/bakalarka_workspace/ETHCAT_FWUPDATE_SSC_APPLICATION_XMC48/Libraries/CMSIS/Include\cmsis_gcc.h **** {
 207:C:/src/bakalarka_workspace/ETHCAT_FWUPDATE_SSC_APPLICATION_XMC48/Libraries/CMSIS/Include\cmsis_gcc.h ****   uint32_t result;
 208:C:/src/bakalarka_workspace/ETHCAT_FWUPDATE_SSC_APPLICATION_XMC48/Libraries/CMSIS/Include\cmsis_gcc.h **** 
 209:C:/src/bakalarka_workspace/ETHCAT_FWUPDATE_SSC_APPLICATION_XMC48/Libraries/CMSIS/Include\cmsis_gcc.h ****   __ASM volatile ("MRS %0, ipsr" : "=r" (result) );
 210:C:/src/bakalarka_workspace/ETHCAT_FWUPDATE_SSC_APPLICATION_XMC48/Libraries/CMSIS/Include\cmsis_gcc.h ****   return(result);
 211:C:/src/bakalarka_workspace/ETHCAT_FWUPDATE_SSC_APPLICATION_XMC48/Libraries/CMSIS/Include\cmsis_gcc.h **** }
 212:C:/src/bakalarka_workspace/ETHCAT_FWUPDATE_SSC_APPLICATION_XMC48/Libraries/CMSIS/Include\cmsis_gcc.h **** 
 213:C:/src/bakalarka_workspace/ETHCAT_FWUPDATE_SSC_APPLICATION_XMC48/Libraries/CMSIS/Include\cmsis_gcc.h **** 
 214:C:/src/bakalarka_workspace/ETHCAT_FWUPDATE_SSC_APPLICATION_XMC48/Libraries/CMSIS/Include\cmsis_gcc.h **** /**
 215:C:/src/bakalarka_workspace/ETHCAT_FWUPDATE_SSC_APPLICATION_XMC48/Libraries/CMSIS/Include\cmsis_gcc.h ****   \brief   Get APSR Register
 216:C:/src/bakalarka_workspace/ETHCAT_FWUPDATE_SSC_APPLICATION_XMC48/Libraries/CMSIS/Include\cmsis_gcc.h ****   \details Returns the content of the APSR Register.
 217:C:/src/bakalarka_workspace/ETHCAT_FWUPDATE_SSC_APPLICATION_XMC48/Libraries/CMSIS/Include\cmsis_gcc.h ****   \return               APSR Register value
 218:C:/src/bakalarka_workspace/ETHCAT_FWUPDATE_SSC_APPLICATION_XMC48/Libraries/CMSIS/Include\cmsis_gcc.h ****  */
 219:C:/src/bakalarka_workspace/ETHCAT_FWUPDATE_SSC_APPLICATION_XMC48/Libraries/CMSIS/Include\cmsis_gcc.h **** __STATIC_FORCEINLINE uint32_t __get_APSR(void)
 220:C:/src/bakalarka_workspace/ETHCAT_FWUPDATE_SSC_APPLICATION_XMC48/Libraries/CMSIS/Include\cmsis_gcc.h **** {
 221:C:/src/bakalarka_workspace/ETHCAT_FWUPDATE_SSC_APPLICATION_XMC48/Libraries/CMSIS/Include\cmsis_gcc.h ****   uint32_t result;
 222:C:/src/bakalarka_workspace/ETHCAT_FWUPDATE_SSC_APPLICATION_XMC48/Libraries/CMSIS/Include\cmsis_gcc.h **** 
 223:C:/src/bakalarka_workspace/ETHCAT_FWUPDATE_SSC_APPLICATION_XMC48/Libraries/CMSIS/Include\cmsis_gcc.h ****   __ASM volatile ("MRS %0, apsr" : "=r" (result) );
 224:C:/src/bakalarka_workspace/ETHCAT_FWUPDATE_SSC_APPLICATION_XMC48/Libraries/CMSIS/Include\cmsis_gcc.h ****   return(result);
 225:C:/src/bakalarka_workspace/ETHCAT_FWUPDATE_SSC_APPLICATION_XMC48/Libraries/CMSIS/Include\cmsis_gcc.h **** }
 226:C:/src/bakalarka_workspace/ETHCAT_FWUPDATE_SSC_APPLICATION_XMC48/Libraries/CMSIS/Include\cmsis_gcc.h **** 
 227:C:/src/bakalarka_workspace/ETHCAT_FWUPDATE_SSC_APPLICATION_XMC48/Libraries/CMSIS/Include\cmsis_gcc.h **** 
 228:C:/src/bakalarka_workspace/ETHCAT_FWUPDATE_SSC_APPLICATION_XMC48/Libraries/CMSIS/Include\cmsis_gcc.h **** /**
 229:C:/src/bakalarka_workspace/ETHCAT_FWUPDATE_SSC_APPLICATION_XMC48/Libraries/CMSIS/Include\cmsis_gcc.h ****   \brief   Get xPSR Register
 230:C:/src/bakalarka_workspace/ETHCAT_FWUPDATE_SSC_APPLICATION_XMC48/Libraries/CMSIS/Include\cmsis_gcc.h ****   \details Returns the content of the xPSR Register.
 231:C:/src/bakalarka_workspace/ETHCAT_FWUPDATE_SSC_APPLICATION_XMC48/Libraries/CMSIS/Include\cmsis_gcc.h ****   \return               xPSR Register value
 232:C:/src/bakalarka_workspace/ETHCAT_FWUPDATE_SSC_APPLICATION_XMC48/Libraries/CMSIS/Include\cmsis_gcc.h ****  */
 233:C:/src/bakalarka_workspace/ETHCAT_FWUPDATE_SSC_APPLICATION_XMC48/Libraries/CMSIS/Include\cmsis_gcc.h **** __STATIC_FORCEINLINE uint32_t __get_xPSR(void)
 234:C:/src/bakalarka_workspace/ETHCAT_FWUPDATE_SSC_APPLICATION_XMC48/Libraries/CMSIS/Include\cmsis_gcc.h **** {
 235:C:/src/bakalarka_workspace/ETHCAT_FWUPDATE_SSC_APPLICATION_XMC48/Libraries/CMSIS/Include\cmsis_gcc.h ****   uint32_t result;
 236:C:/src/bakalarka_workspace/ETHCAT_FWUPDATE_SSC_APPLICATION_XMC48/Libraries/CMSIS/Include\cmsis_gcc.h **** 
 237:C:/src/bakalarka_workspace/ETHCAT_FWUPDATE_SSC_APPLICATION_XMC48/Libraries/CMSIS/Include\cmsis_gcc.h ****   __ASM volatile ("MRS %0, xpsr" : "=r" (result) );
 238:C:/src/bakalarka_workspace/ETHCAT_FWUPDATE_SSC_APPLICATION_XMC48/Libraries/CMSIS/Include\cmsis_gcc.h ****   return(result);
 239:C:/src/bakalarka_workspace/ETHCAT_FWUPDATE_SSC_APPLICATION_XMC48/Libraries/CMSIS/Include\cmsis_gcc.h **** }
 240:C:/src/bakalarka_workspace/ETHCAT_FWUPDATE_SSC_APPLICATION_XMC48/Libraries/CMSIS/Include\cmsis_gcc.h **** 
 241:C:/src/bakalarka_workspace/ETHCAT_FWUPDATE_SSC_APPLICATION_XMC48/Libraries/CMSIS/Include\cmsis_gcc.h **** 
 242:C:/src/bakalarka_workspace/ETHCAT_FWUPDATE_SSC_APPLICATION_XMC48/Libraries/CMSIS/Include\cmsis_gcc.h **** /**
 243:C:/src/bakalarka_workspace/ETHCAT_FWUPDATE_SSC_APPLICATION_XMC48/Libraries/CMSIS/Include\cmsis_gcc.h ****   \brief   Get Process Stack Pointer
 244:C:/src/bakalarka_workspace/ETHCAT_FWUPDATE_SSC_APPLICATION_XMC48/Libraries/CMSIS/Include\cmsis_gcc.h ****   \details Returns the current value of the Process Stack Pointer (PSP).
 245:C:/src/bakalarka_workspace/ETHCAT_FWUPDATE_SSC_APPLICATION_XMC48/Libraries/CMSIS/Include\cmsis_gcc.h ****   \return               PSP Register value
 246:C:/src/bakalarka_workspace/ETHCAT_FWUPDATE_SSC_APPLICATION_XMC48/Libraries/CMSIS/Include\cmsis_gcc.h ****  */
 247:C:/src/bakalarka_workspace/ETHCAT_FWUPDATE_SSC_APPLICATION_XMC48/Libraries/CMSIS/Include\cmsis_gcc.h **** __STATIC_FORCEINLINE uint32_t __get_PSP(void)
 248:C:/src/bakalarka_workspace/ETHCAT_FWUPDATE_SSC_APPLICATION_XMC48/Libraries/CMSIS/Include\cmsis_gcc.h **** {
 249:C:/src/bakalarka_workspace/ETHCAT_FWUPDATE_SSC_APPLICATION_XMC48/Libraries/CMSIS/Include\cmsis_gcc.h ****   register uint32_t result;
 250:C:/src/bakalarka_workspace/ETHCAT_FWUPDATE_SSC_APPLICATION_XMC48/Libraries/CMSIS/Include\cmsis_gcc.h **** 
 251:C:/src/bakalarka_workspace/ETHCAT_FWUPDATE_SSC_APPLICATION_XMC48/Libraries/CMSIS/Include\cmsis_gcc.h ****   __ASM volatile ("MRS %0, psp"  : "=r" (result) );
 252:C:/src/bakalarka_workspace/ETHCAT_FWUPDATE_SSC_APPLICATION_XMC48/Libraries/CMSIS/Include\cmsis_gcc.h ****   return(result);
 253:C:/src/bakalarka_workspace/ETHCAT_FWUPDATE_SSC_APPLICATION_XMC48/Libraries/CMSIS/Include\cmsis_gcc.h **** }
 254:C:/src/bakalarka_workspace/ETHCAT_FWUPDATE_SSC_APPLICATION_XMC48/Libraries/CMSIS/Include\cmsis_gcc.h **** 
 255:C:/src/bakalarka_workspace/ETHCAT_FWUPDATE_SSC_APPLICATION_XMC48/Libraries/CMSIS/Include\cmsis_gcc.h **** 
 256:C:/src/bakalarka_workspace/ETHCAT_FWUPDATE_SSC_APPLICATION_XMC48/Libraries/CMSIS/Include\cmsis_gcc.h **** #if (defined (__ARM_FEATURE_CMSE ) && (__ARM_FEATURE_CMSE == 3))
 257:C:/src/bakalarka_workspace/ETHCAT_FWUPDATE_SSC_APPLICATION_XMC48/Libraries/CMSIS/Include\cmsis_gcc.h **** /**
 258:C:/src/bakalarka_workspace/ETHCAT_FWUPDATE_SSC_APPLICATION_XMC48/Libraries/CMSIS/Include\cmsis_gcc.h ****   \brief   Get Process Stack Pointer (non-secure)
 259:C:/src/bakalarka_workspace/ETHCAT_FWUPDATE_SSC_APPLICATION_XMC48/Libraries/CMSIS/Include\cmsis_gcc.h ****   \details Returns the current value of the non-secure Process Stack Pointer (PSP) when in secure s
 260:C:/src/bakalarka_workspace/ETHCAT_FWUPDATE_SSC_APPLICATION_XMC48/Libraries/CMSIS/Include\cmsis_gcc.h ****   \return               PSP Register value
 261:C:/src/bakalarka_workspace/ETHCAT_FWUPDATE_SSC_APPLICATION_XMC48/Libraries/CMSIS/Include\cmsis_gcc.h ****  */
 262:C:/src/bakalarka_workspace/ETHCAT_FWUPDATE_SSC_APPLICATION_XMC48/Libraries/CMSIS/Include\cmsis_gcc.h **** __STATIC_FORCEINLINE uint32_t __TZ_get_PSP_NS(void)
 263:C:/src/bakalarka_workspace/ETHCAT_FWUPDATE_SSC_APPLICATION_XMC48/Libraries/CMSIS/Include\cmsis_gcc.h **** {
 264:C:/src/bakalarka_workspace/ETHCAT_FWUPDATE_SSC_APPLICATION_XMC48/Libraries/CMSIS/Include\cmsis_gcc.h ****   register uint32_t result;
 265:C:/src/bakalarka_workspace/ETHCAT_FWUPDATE_SSC_APPLICATION_XMC48/Libraries/CMSIS/Include\cmsis_gcc.h **** 
 266:C:/src/bakalarka_workspace/ETHCAT_FWUPDATE_SSC_APPLICATION_XMC48/Libraries/CMSIS/Include\cmsis_gcc.h ****   __ASM volatile ("MRS %0, psp_ns"  : "=r" (result) );
 267:C:/src/bakalarka_workspace/ETHCAT_FWUPDATE_SSC_APPLICATION_XMC48/Libraries/CMSIS/Include\cmsis_gcc.h ****   return(result);
 268:C:/src/bakalarka_workspace/ETHCAT_FWUPDATE_SSC_APPLICATION_XMC48/Libraries/CMSIS/Include\cmsis_gcc.h **** }
 269:C:/src/bakalarka_workspace/ETHCAT_FWUPDATE_SSC_APPLICATION_XMC48/Libraries/CMSIS/Include\cmsis_gcc.h **** #endif
 270:C:/src/bakalarka_workspace/ETHCAT_FWUPDATE_SSC_APPLICATION_XMC48/Libraries/CMSIS/Include\cmsis_gcc.h **** 
 271:C:/src/bakalarka_workspace/ETHCAT_FWUPDATE_SSC_APPLICATION_XMC48/Libraries/CMSIS/Include\cmsis_gcc.h **** 
 272:C:/src/bakalarka_workspace/ETHCAT_FWUPDATE_SSC_APPLICATION_XMC48/Libraries/CMSIS/Include\cmsis_gcc.h **** /**
 273:C:/src/bakalarka_workspace/ETHCAT_FWUPDATE_SSC_APPLICATION_XMC48/Libraries/CMSIS/Include\cmsis_gcc.h ****   \brief   Set Process Stack Pointer
 274:C:/src/bakalarka_workspace/ETHCAT_FWUPDATE_SSC_APPLICATION_XMC48/Libraries/CMSIS/Include\cmsis_gcc.h ****   \details Assigns the given value to the Process Stack Pointer (PSP).
 275:C:/src/bakalarka_workspace/ETHCAT_FWUPDATE_SSC_APPLICATION_XMC48/Libraries/CMSIS/Include\cmsis_gcc.h ****   \param [in]    topOfProcStack  Process Stack Pointer value to set
 276:C:/src/bakalarka_workspace/ETHCAT_FWUPDATE_SSC_APPLICATION_XMC48/Libraries/CMSIS/Include\cmsis_gcc.h ****  */
 277:C:/src/bakalarka_workspace/ETHCAT_FWUPDATE_SSC_APPLICATION_XMC48/Libraries/CMSIS/Include\cmsis_gcc.h **** __STATIC_FORCEINLINE void __set_PSP(uint32_t topOfProcStack)
 278:C:/src/bakalarka_workspace/ETHCAT_FWUPDATE_SSC_APPLICATION_XMC48/Libraries/CMSIS/Include\cmsis_gcc.h **** {
 279:C:/src/bakalarka_workspace/ETHCAT_FWUPDATE_SSC_APPLICATION_XMC48/Libraries/CMSIS/Include\cmsis_gcc.h ****   __ASM volatile ("MSR psp, %0" : : "r" (topOfProcStack) : );
 280:C:/src/bakalarka_workspace/ETHCAT_FWUPDATE_SSC_APPLICATION_XMC48/Libraries/CMSIS/Include\cmsis_gcc.h **** }
 281:C:/src/bakalarka_workspace/ETHCAT_FWUPDATE_SSC_APPLICATION_XMC48/Libraries/CMSIS/Include\cmsis_gcc.h **** 
 282:C:/src/bakalarka_workspace/ETHCAT_FWUPDATE_SSC_APPLICATION_XMC48/Libraries/CMSIS/Include\cmsis_gcc.h **** 
 283:C:/src/bakalarka_workspace/ETHCAT_FWUPDATE_SSC_APPLICATION_XMC48/Libraries/CMSIS/Include\cmsis_gcc.h **** #if (defined (__ARM_FEATURE_CMSE ) && (__ARM_FEATURE_CMSE == 3))
 284:C:/src/bakalarka_workspace/ETHCAT_FWUPDATE_SSC_APPLICATION_XMC48/Libraries/CMSIS/Include\cmsis_gcc.h **** /**
 285:C:/src/bakalarka_workspace/ETHCAT_FWUPDATE_SSC_APPLICATION_XMC48/Libraries/CMSIS/Include\cmsis_gcc.h ****   \brief   Set Process Stack Pointer (non-secure)
 286:C:/src/bakalarka_workspace/ETHCAT_FWUPDATE_SSC_APPLICATION_XMC48/Libraries/CMSIS/Include\cmsis_gcc.h ****   \details Assigns the given value to the non-secure Process Stack Pointer (PSP) when in secure sta
 287:C:/src/bakalarka_workspace/ETHCAT_FWUPDATE_SSC_APPLICATION_XMC48/Libraries/CMSIS/Include\cmsis_gcc.h ****   \param [in]    topOfProcStack  Process Stack Pointer value to set
 288:C:/src/bakalarka_workspace/ETHCAT_FWUPDATE_SSC_APPLICATION_XMC48/Libraries/CMSIS/Include\cmsis_gcc.h ****  */
 289:C:/src/bakalarka_workspace/ETHCAT_FWUPDATE_SSC_APPLICATION_XMC48/Libraries/CMSIS/Include\cmsis_gcc.h **** __STATIC_FORCEINLINE void __TZ_set_PSP_NS(uint32_t topOfProcStack)
 290:C:/src/bakalarka_workspace/ETHCAT_FWUPDATE_SSC_APPLICATION_XMC48/Libraries/CMSIS/Include\cmsis_gcc.h **** {
 291:C:/src/bakalarka_workspace/ETHCAT_FWUPDATE_SSC_APPLICATION_XMC48/Libraries/CMSIS/Include\cmsis_gcc.h ****   __ASM volatile ("MSR psp_ns, %0" : : "r" (topOfProcStack) : );
 292:C:/src/bakalarka_workspace/ETHCAT_FWUPDATE_SSC_APPLICATION_XMC48/Libraries/CMSIS/Include\cmsis_gcc.h **** }
 293:C:/src/bakalarka_workspace/ETHCAT_FWUPDATE_SSC_APPLICATION_XMC48/Libraries/CMSIS/Include\cmsis_gcc.h **** #endif
 294:C:/src/bakalarka_workspace/ETHCAT_FWUPDATE_SSC_APPLICATION_XMC48/Libraries/CMSIS/Include\cmsis_gcc.h **** 
 295:C:/src/bakalarka_workspace/ETHCAT_FWUPDATE_SSC_APPLICATION_XMC48/Libraries/CMSIS/Include\cmsis_gcc.h **** 
 296:C:/src/bakalarka_workspace/ETHCAT_FWUPDATE_SSC_APPLICATION_XMC48/Libraries/CMSIS/Include\cmsis_gcc.h **** /**
 297:C:/src/bakalarka_workspace/ETHCAT_FWUPDATE_SSC_APPLICATION_XMC48/Libraries/CMSIS/Include\cmsis_gcc.h ****   \brief   Get Main Stack Pointer
 298:C:/src/bakalarka_workspace/ETHCAT_FWUPDATE_SSC_APPLICATION_XMC48/Libraries/CMSIS/Include\cmsis_gcc.h ****   \details Returns the current value of the Main Stack Pointer (MSP).
 299:C:/src/bakalarka_workspace/ETHCAT_FWUPDATE_SSC_APPLICATION_XMC48/Libraries/CMSIS/Include\cmsis_gcc.h ****   \return               MSP Register value
 300:C:/src/bakalarka_workspace/ETHCAT_FWUPDATE_SSC_APPLICATION_XMC48/Libraries/CMSIS/Include\cmsis_gcc.h ****  */
 301:C:/src/bakalarka_workspace/ETHCAT_FWUPDATE_SSC_APPLICATION_XMC48/Libraries/CMSIS/Include\cmsis_gcc.h **** __STATIC_FORCEINLINE uint32_t __get_MSP(void)
 302:C:/src/bakalarka_workspace/ETHCAT_FWUPDATE_SSC_APPLICATION_XMC48/Libraries/CMSIS/Include\cmsis_gcc.h **** {
 303:C:/src/bakalarka_workspace/ETHCAT_FWUPDATE_SSC_APPLICATION_XMC48/Libraries/CMSIS/Include\cmsis_gcc.h ****   register uint32_t result;
 304:C:/src/bakalarka_workspace/ETHCAT_FWUPDATE_SSC_APPLICATION_XMC48/Libraries/CMSIS/Include\cmsis_gcc.h **** 
 305:C:/src/bakalarka_workspace/ETHCAT_FWUPDATE_SSC_APPLICATION_XMC48/Libraries/CMSIS/Include\cmsis_gcc.h ****   __ASM volatile ("MRS %0, msp" : "=r" (result) );
 306:C:/src/bakalarka_workspace/ETHCAT_FWUPDATE_SSC_APPLICATION_XMC48/Libraries/CMSIS/Include\cmsis_gcc.h ****   return(result);
 307:C:/src/bakalarka_workspace/ETHCAT_FWUPDATE_SSC_APPLICATION_XMC48/Libraries/CMSIS/Include\cmsis_gcc.h **** }
 308:C:/src/bakalarka_workspace/ETHCAT_FWUPDATE_SSC_APPLICATION_XMC48/Libraries/CMSIS/Include\cmsis_gcc.h **** 
 309:C:/src/bakalarka_workspace/ETHCAT_FWUPDATE_SSC_APPLICATION_XMC48/Libraries/CMSIS/Include\cmsis_gcc.h **** 
 310:C:/src/bakalarka_workspace/ETHCAT_FWUPDATE_SSC_APPLICATION_XMC48/Libraries/CMSIS/Include\cmsis_gcc.h **** #if (defined (__ARM_FEATURE_CMSE ) && (__ARM_FEATURE_CMSE == 3))
 311:C:/src/bakalarka_workspace/ETHCAT_FWUPDATE_SSC_APPLICATION_XMC48/Libraries/CMSIS/Include\cmsis_gcc.h **** /**
 312:C:/src/bakalarka_workspace/ETHCAT_FWUPDATE_SSC_APPLICATION_XMC48/Libraries/CMSIS/Include\cmsis_gcc.h ****   \brief   Get Main Stack Pointer (non-secure)
 313:C:/src/bakalarka_workspace/ETHCAT_FWUPDATE_SSC_APPLICATION_XMC48/Libraries/CMSIS/Include\cmsis_gcc.h ****   \details Returns the current value of the non-secure Main Stack Pointer (MSP) when in secure stat
 314:C:/src/bakalarka_workspace/ETHCAT_FWUPDATE_SSC_APPLICATION_XMC48/Libraries/CMSIS/Include\cmsis_gcc.h ****   \return               MSP Register value
 315:C:/src/bakalarka_workspace/ETHCAT_FWUPDATE_SSC_APPLICATION_XMC48/Libraries/CMSIS/Include\cmsis_gcc.h ****  */
 316:C:/src/bakalarka_workspace/ETHCAT_FWUPDATE_SSC_APPLICATION_XMC48/Libraries/CMSIS/Include\cmsis_gcc.h **** __STATIC_FORCEINLINE uint32_t __TZ_get_MSP_NS(void)
 317:C:/src/bakalarka_workspace/ETHCAT_FWUPDATE_SSC_APPLICATION_XMC48/Libraries/CMSIS/Include\cmsis_gcc.h **** {
 318:C:/src/bakalarka_workspace/ETHCAT_FWUPDATE_SSC_APPLICATION_XMC48/Libraries/CMSIS/Include\cmsis_gcc.h ****   register uint32_t result;
 319:C:/src/bakalarka_workspace/ETHCAT_FWUPDATE_SSC_APPLICATION_XMC48/Libraries/CMSIS/Include\cmsis_gcc.h **** 
 320:C:/src/bakalarka_workspace/ETHCAT_FWUPDATE_SSC_APPLICATION_XMC48/Libraries/CMSIS/Include\cmsis_gcc.h ****   __ASM volatile ("MRS %0, msp_ns" : "=r" (result) );
 321:C:/src/bakalarka_workspace/ETHCAT_FWUPDATE_SSC_APPLICATION_XMC48/Libraries/CMSIS/Include\cmsis_gcc.h ****   return(result);
 322:C:/src/bakalarka_workspace/ETHCAT_FWUPDATE_SSC_APPLICATION_XMC48/Libraries/CMSIS/Include\cmsis_gcc.h **** }
 323:C:/src/bakalarka_workspace/ETHCAT_FWUPDATE_SSC_APPLICATION_XMC48/Libraries/CMSIS/Include\cmsis_gcc.h **** #endif
 324:C:/src/bakalarka_workspace/ETHCAT_FWUPDATE_SSC_APPLICATION_XMC48/Libraries/CMSIS/Include\cmsis_gcc.h **** 
 325:C:/src/bakalarka_workspace/ETHCAT_FWUPDATE_SSC_APPLICATION_XMC48/Libraries/CMSIS/Include\cmsis_gcc.h **** 
 326:C:/src/bakalarka_workspace/ETHCAT_FWUPDATE_SSC_APPLICATION_XMC48/Libraries/CMSIS/Include\cmsis_gcc.h **** /**
 327:C:/src/bakalarka_workspace/ETHCAT_FWUPDATE_SSC_APPLICATION_XMC48/Libraries/CMSIS/Include\cmsis_gcc.h ****   \brief   Set Main Stack Pointer
 328:C:/src/bakalarka_workspace/ETHCAT_FWUPDATE_SSC_APPLICATION_XMC48/Libraries/CMSIS/Include\cmsis_gcc.h ****   \details Assigns the given value to the Main Stack Pointer (MSP).
 329:C:/src/bakalarka_workspace/ETHCAT_FWUPDATE_SSC_APPLICATION_XMC48/Libraries/CMSIS/Include\cmsis_gcc.h ****   \param [in]    topOfMainStack  Main Stack Pointer value to set
 330:C:/src/bakalarka_workspace/ETHCAT_FWUPDATE_SSC_APPLICATION_XMC48/Libraries/CMSIS/Include\cmsis_gcc.h ****  */
 331:C:/src/bakalarka_workspace/ETHCAT_FWUPDATE_SSC_APPLICATION_XMC48/Libraries/CMSIS/Include\cmsis_gcc.h **** __STATIC_FORCEINLINE void __set_MSP(uint32_t topOfMainStack)
 332:C:/src/bakalarka_workspace/ETHCAT_FWUPDATE_SSC_APPLICATION_XMC48/Libraries/CMSIS/Include\cmsis_gcc.h **** {
 333:C:/src/bakalarka_workspace/ETHCAT_FWUPDATE_SSC_APPLICATION_XMC48/Libraries/CMSIS/Include\cmsis_gcc.h ****   __ASM volatile ("MSR msp, %0" : : "r" (topOfMainStack) : );
 334:C:/src/bakalarka_workspace/ETHCAT_FWUPDATE_SSC_APPLICATION_XMC48/Libraries/CMSIS/Include\cmsis_gcc.h **** }
 335:C:/src/bakalarka_workspace/ETHCAT_FWUPDATE_SSC_APPLICATION_XMC48/Libraries/CMSIS/Include\cmsis_gcc.h **** 
 336:C:/src/bakalarka_workspace/ETHCAT_FWUPDATE_SSC_APPLICATION_XMC48/Libraries/CMSIS/Include\cmsis_gcc.h **** 
 337:C:/src/bakalarka_workspace/ETHCAT_FWUPDATE_SSC_APPLICATION_XMC48/Libraries/CMSIS/Include\cmsis_gcc.h **** #if (defined (__ARM_FEATURE_CMSE ) && (__ARM_FEATURE_CMSE == 3))
 338:C:/src/bakalarka_workspace/ETHCAT_FWUPDATE_SSC_APPLICATION_XMC48/Libraries/CMSIS/Include\cmsis_gcc.h **** /**
 339:C:/src/bakalarka_workspace/ETHCAT_FWUPDATE_SSC_APPLICATION_XMC48/Libraries/CMSIS/Include\cmsis_gcc.h ****   \brief   Set Main Stack Pointer (non-secure)
 340:C:/src/bakalarka_workspace/ETHCAT_FWUPDATE_SSC_APPLICATION_XMC48/Libraries/CMSIS/Include\cmsis_gcc.h ****   \details Assigns the given value to the non-secure Main Stack Pointer (MSP) when in secure state.
 341:C:/src/bakalarka_workspace/ETHCAT_FWUPDATE_SSC_APPLICATION_XMC48/Libraries/CMSIS/Include\cmsis_gcc.h ****   \param [in]    topOfMainStack  Main Stack Pointer value to set
 342:C:/src/bakalarka_workspace/ETHCAT_FWUPDATE_SSC_APPLICATION_XMC48/Libraries/CMSIS/Include\cmsis_gcc.h ****  */
 343:C:/src/bakalarka_workspace/ETHCAT_FWUPDATE_SSC_APPLICATION_XMC48/Libraries/CMSIS/Include\cmsis_gcc.h **** __STATIC_FORCEINLINE void __TZ_set_MSP_NS(uint32_t topOfMainStack)
 344:C:/src/bakalarka_workspace/ETHCAT_FWUPDATE_SSC_APPLICATION_XMC48/Libraries/CMSIS/Include\cmsis_gcc.h **** {
 345:C:/src/bakalarka_workspace/ETHCAT_FWUPDATE_SSC_APPLICATION_XMC48/Libraries/CMSIS/Include\cmsis_gcc.h ****   __ASM volatile ("MSR msp_ns, %0" : : "r" (topOfMainStack) : );
 346:C:/src/bakalarka_workspace/ETHCAT_FWUPDATE_SSC_APPLICATION_XMC48/Libraries/CMSIS/Include\cmsis_gcc.h **** }
 347:C:/src/bakalarka_workspace/ETHCAT_FWUPDATE_SSC_APPLICATION_XMC48/Libraries/CMSIS/Include\cmsis_gcc.h **** #endif
 348:C:/src/bakalarka_workspace/ETHCAT_FWUPDATE_SSC_APPLICATION_XMC48/Libraries/CMSIS/Include\cmsis_gcc.h **** 
 349:C:/src/bakalarka_workspace/ETHCAT_FWUPDATE_SSC_APPLICATION_XMC48/Libraries/CMSIS/Include\cmsis_gcc.h **** 
 350:C:/src/bakalarka_workspace/ETHCAT_FWUPDATE_SSC_APPLICATION_XMC48/Libraries/CMSIS/Include\cmsis_gcc.h **** #if (defined (__ARM_FEATURE_CMSE ) && (__ARM_FEATURE_CMSE == 3))
 351:C:/src/bakalarka_workspace/ETHCAT_FWUPDATE_SSC_APPLICATION_XMC48/Libraries/CMSIS/Include\cmsis_gcc.h **** /**
 352:C:/src/bakalarka_workspace/ETHCAT_FWUPDATE_SSC_APPLICATION_XMC48/Libraries/CMSIS/Include\cmsis_gcc.h ****   \brief   Get Stack Pointer (non-secure)
 353:C:/src/bakalarka_workspace/ETHCAT_FWUPDATE_SSC_APPLICATION_XMC48/Libraries/CMSIS/Include\cmsis_gcc.h ****   \details Returns the current value of the non-secure Stack Pointer (SP) when in secure state.
 354:C:/src/bakalarka_workspace/ETHCAT_FWUPDATE_SSC_APPLICATION_XMC48/Libraries/CMSIS/Include\cmsis_gcc.h ****   \return               SP Register value
 355:C:/src/bakalarka_workspace/ETHCAT_FWUPDATE_SSC_APPLICATION_XMC48/Libraries/CMSIS/Include\cmsis_gcc.h ****  */
 356:C:/src/bakalarka_workspace/ETHCAT_FWUPDATE_SSC_APPLICATION_XMC48/Libraries/CMSIS/Include\cmsis_gcc.h **** __STATIC_FORCEINLINE uint32_t __TZ_get_SP_NS(void)
 357:C:/src/bakalarka_workspace/ETHCAT_FWUPDATE_SSC_APPLICATION_XMC48/Libraries/CMSIS/Include\cmsis_gcc.h **** {
 358:C:/src/bakalarka_workspace/ETHCAT_FWUPDATE_SSC_APPLICATION_XMC48/Libraries/CMSIS/Include\cmsis_gcc.h ****   register uint32_t result;
 359:C:/src/bakalarka_workspace/ETHCAT_FWUPDATE_SSC_APPLICATION_XMC48/Libraries/CMSIS/Include\cmsis_gcc.h **** 
 360:C:/src/bakalarka_workspace/ETHCAT_FWUPDATE_SSC_APPLICATION_XMC48/Libraries/CMSIS/Include\cmsis_gcc.h ****   __ASM volatile ("MRS %0, sp_ns" : "=r" (result) );
 361:C:/src/bakalarka_workspace/ETHCAT_FWUPDATE_SSC_APPLICATION_XMC48/Libraries/CMSIS/Include\cmsis_gcc.h ****   return(result);
 362:C:/src/bakalarka_workspace/ETHCAT_FWUPDATE_SSC_APPLICATION_XMC48/Libraries/CMSIS/Include\cmsis_gcc.h **** }
 363:C:/src/bakalarka_workspace/ETHCAT_FWUPDATE_SSC_APPLICATION_XMC48/Libraries/CMSIS/Include\cmsis_gcc.h **** 
 364:C:/src/bakalarka_workspace/ETHCAT_FWUPDATE_SSC_APPLICATION_XMC48/Libraries/CMSIS/Include\cmsis_gcc.h **** 
 365:C:/src/bakalarka_workspace/ETHCAT_FWUPDATE_SSC_APPLICATION_XMC48/Libraries/CMSIS/Include\cmsis_gcc.h **** /**
 366:C:/src/bakalarka_workspace/ETHCAT_FWUPDATE_SSC_APPLICATION_XMC48/Libraries/CMSIS/Include\cmsis_gcc.h ****   \brief   Set Stack Pointer (non-secure)
 367:C:/src/bakalarka_workspace/ETHCAT_FWUPDATE_SSC_APPLICATION_XMC48/Libraries/CMSIS/Include\cmsis_gcc.h ****   \details Assigns the given value to the non-secure Stack Pointer (SP) when in secure state.
 368:C:/src/bakalarka_workspace/ETHCAT_FWUPDATE_SSC_APPLICATION_XMC48/Libraries/CMSIS/Include\cmsis_gcc.h ****   \param [in]    topOfStack  Stack Pointer value to set
 369:C:/src/bakalarka_workspace/ETHCAT_FWUPDATE_SSC_APPLICATION_XMC48/Libraries/CMSIS/Include\cmsis_gcc.h ****  */
 370:C:/src/bakalarka_workspace/ETHCAT_FWUPDATE_SSC_APPLICATION_XMC48/Libraries/CMSIS/Include\cmsis_gcc.h **** __STATIC_FORCEINLINE void __TZ_set_SP_NS(uint32_t topOfStack)
 371:C:/src/bakalarka_workspace/ETHCAT_FWUPDATE_SSC_APPLICATION_XMC48/Libraries/CMSIS/Include\cmsis_gcc.h **** {
 372:C:/src/bakalarka_workspace/ETHCAT_FWUPDATE_SSC_APPLICATION_XMC48/Libraries/CMSIS/Include\cmsis_gcc.h ****   __ASM volatile ("MSR sp_ns, %0" : : "r" (topOfStack) : );
 373:C:/src/bakalarka_workspace/ETHCAT_FWUPDATE_SSC_APPLICATION_XMC48/Libraries/CMSIS/Include\cmsis_gcc.h **** }
 374:C:/src/bakalarka_workspace/ETHCAT_FWUPDATE_SSC_APPLICATION_XMC48/Libraries/CMSIS/Include\cmsis_gcc.h **** #endif
 375:C:/src/bakalarka_workspace/ETHCAT_FWUPDATE_SSC_APPLICATION_XMC48/Libraries/CMSIS/Include\cmsis_gcc.h **** 
 376:C:/src/bakalarka_workspace/ETHCAT_FWUPDATE_SSC_APPLICATION_XMC48/Libraries/CMSIS/Include\cmsis_gcc.h **** 
 377:C:/src/bakalarka_workspace/ETHCAT_FWUPDATE_SSC_APPLICATION_XMC48/Libraries/CMSIS/Include\cmsis_gcc.h **** /**
 378:C:/src/bakalarka_workspace/ETHCAT_FWUPDATE_SSC_APPLICATION_XMC48/Libraries/CMSIS/Include\cmsis_gcc.h ****   \brief   Get Priority Mask
 379:C:/src/bakalarka_workspace/ETHCAT_FWUPDATE_SSC_APPLICATION_XMC48/Libraries/CMSIS/Include\cmsis_gcc.h ****   \details Returns the current state of the priority mask bit from the Priority Mask Register.
 380:C:/src/bakalarka_workspace/ETHCAT_FWUPDATE_SSC_APPLICATION_XMC48/Libraries/CMSIS/Include\cmsis_gcc.h ****   \return               Priority Mask value
 381:C:/src/bakalarka_workspace/ETHCAT_FWUPDATE_SSC_APPLICATION_XMC48/Libraries/CMSIS/Include\cmsis_gcc.h ****  */
 382:C:/src/bakalarka_workspace/ETHCAT_FWUPDATE_SSC_APPLICATION_XMC48/Libraries/CMSIS/Include\cmsis_gcc.h **** __STATIC_FORCEINLINE uint32_t __get_PRIMASK(void)
 383:C:/src/bakalarka_workspace/ETHCAT_FWUPDATE_SSC_APPLICATION_XMC48/Libraries/CMSIS/Include\cmsis_gcc.h **** {
 384:C:/src/bakalarka_workspace/ETHCAT_FWUPDATE_SSC_APPLICATION_XMC48/Libraries/CMSIS/Include\cmsis_gcc.h ****   uint32_t result;
 385:C:/src/bakalarka_workspace/ETHCAT_FWUPDATE_SSC_APPLICATION_XMC48/Libraries/CMSIS/Include\cmsis_gcc.h **** 
 386:C:/src/bakalarka_workspace/ETHCAT_FWUPDATE_SSC_APPLICATION_XMC48/Libraries/CMSIS/Include\cmsis_gcc.h ****   __ASM volatile ("MRS %0, primask" : "=r" (result) :: "memory");
 387:C:/src/bakalarka_workspace/ETHCAT_FWUPDATE_SSC_APPLICATION_XMC48/Libraries/CMSIS/Include\cmsis_gcc.h ****   return(result);
 388:C:/src/bakalarka_workspace/ETHCAT_FWUPDATE_SSC_APPLICATION_XMC48/Libraries/CMSIS/Include\cmsis_gcc.h **** }
 389:C:/src/bakalarka_workspace/ETHCAT_FWUPDATE_SSC_APPLICATION_XMC48/Libraries/CMSIS/Include\cmsis_gcc.h **** 
 390:C:/src/bakalarka_workspace/ETHCAT_FWUPDATE_SSC_APPLICATION_XMC48/Libraries/CMSIS/Include\cmsis_gcc.h **** 
 391:C:/src/bakalarka_workspace/ETHCAT_FWUPDATE_SSC_APPLICATION_XMC48/Libraries/CMSIS/Include\cmsis_gcc.h **** #if (defined (__ARM_FEATURE_CMSE ) && (__ARM_FEATURE_CMSE == 3))
 392:C:/src/bakalarka_workspace/ETHCAT_FWUPDATE_SSC_APPLICATION_XMC48/Libraries/CMSIS/Include\cmsis_gcc.h **** /**
 393:C:/src/bakalarka_workspace/ETHCAT_FWUPDATE_SSC_APPLICATION_XMC48/Libraries/CMSIS/Include\cmsis_gcc.h ****   \brief   Get Priority Mask (non-secure)
 394:C:/src/bakalarka_workspace/ETHCAT_FWUPDATE_SSC_APPLICATION_XMC48/Libraries/CMSIS/Include\cmsis_gcc.h ****   \details Returns the current state of the non-secure priority mask bit from the Priority Mask Reg
 395:C:/src/bakalarka_workspace/ETHCAT_FWUPDATE_SSC_APPLICATION_XMC48/Libraries/CMSIS/Include\cmsis_gcc.h ****   \return               Priority Mask value
 396:C:/src/bakalarka_workspace/ETHCAT_FWUPDATE_SSC_APPLICATION_XMC48/Libraries/CMSIS/Include\cmsis_gcc.h ****  */
 397:C:/src/bakalarka_workspace/ETHCAT_FWUPDATE_SSC_APPLICATION_XMC48/Libraries/CMSIS/Include\cmsis_gcc.h **** __STATIC_FORCEINLINE uint32_t __TZ_get_PRIMASK_NS(void)
 398:C:/src/bakalarka_workspace/ETHCAT_FWUPDATE_SSC_APPLICATION_XMC48/Libraries/CMSIS/Include\cmsis_gcc.h **** {
 399:C:/src/bakalarka_workspace/ETHCAT_FWUPDATE_SSC_APPLICATION_XMC48/Libraries/CMSIS/Include\cmsis_gcc.h ****   uint32_t result;
 400:C:/src/bakalarka_workspace/ETHCAT_FWUPDATE_SSC_APPLICATION_XMC48/Libraries/CMSIS/Include\cmsis_gcc.h **** 
 401:C:/src/bakalarka_workspace/ETHCAT_FWUPDATE_SSC_APPLICATION_XMC48/Libraries/CMSIS/Include\cmsis_gcc.h ****   __ASM volatile ("MRS %0, primask_ns" : "=r" (result) :: "memory");
 402:C:/src/bakalarka_workspace/ETHCAT_FWUPDATE_SSC_APPLICATION_XMC48/Libraries/CMSIS/Include\cmsis_gcc.h ****   return(result);
 403:C:/src/bakalarka_workspace/ETHCAT_FWUPDATE_SSC_APPLICATION_XMC48/Libraries/CMSIS/Include\cmsis_gcc.h **** }
 404:C:/src/bakalarka_workspace/ETHCAT_FWUPDATE_SSC_APPLICATION_XMC48/Libraries/CMSIS/Include\cmsis_gcc.h **** #endif
 405:C:/src/bakalarka_workspace/ETHCAT_FWUPDATE_SSC_APPLICATION_XMC48/Libraries/CMSIS/Include\cmsis_gcc.h **** 
 406:C:/src/bakalarka_workspace/ETHCAT_FWUPDATE_SSC_APPLICATION_XMC48/Libraries/CMSIS/Include\cmsis_gcc.h **** 
 407:C:/src/bakalarka_workspace/ETHCAT_FWUPDATE_SSC_APPLICATION_XMC48/Libraries/CMSIS/Include\cmsis_gcc.h **** /**
 408:C:/src/bakalarka_workspace/ETHCAT_FWUPDATE_SSC_APPLICATION_XMC48/Libraries/CMSIS/Include\cmsis_gcc.h ****   \brief   Set Priority Mask
 409:C:/src/bakalarka_workspace/ETHCAT_FWUPDATE_SSC_APPLICATION_XMC48/Libraries/CMSIS/Include\cmsis_gcc.h ****   \details Assigns the given value to the Priority Mask Register.
 410:C:/src/bakalarka_workspace/ETHCAT_FWUPDATE_SSC_APPLICATION_XMC48/Libraries/CMSIS/Include\cmsis_gcc.h ****   \param [in]    priMask  Priority Mask
 411:C:/src/bakalarka_workspace/ETHCAT_FWUPDATE_SSC_APPLICATION_XMC48/Libraries/CMSIS/Include\cmsis_gcc.h ****  */
 412:C:/src/bakalarka_workspace/ETHCAT_FWUPDATE_SSC_APPLICATION_XMC48/Libraries/CMSIS/Include\cmsis_gcc.h **** __STATIC_FORCEINLINE void __set_PRIMASK(uint32_t priMask)
 413:C:/src/bakalarka_workspace/ETHCAT_FWUPDATE_SSC_APPLICATION_XMC48/Libraries/CMSIS/Include\cmsis_gcc.h **** {
 414:C:/src/bakalarka_workspace/ETHCAT_FWUPDATE_SSC_APPLICATION_XMC48/Libraries/CMSIS/Include\cmsis_gcc.h ****   __ASM volatile ("MSR primask, %0" : : "r" (priMask) : "memory");
 415:C:/src/bakalarka_workspace/ETHCAT_FWUPDATE_SSC_APPLICATION_XMC48/Libraries/CMSIS/Include\cmsis_gcc.h **** }
 416:C:/src/bakalarka_workspace/ETHCAT_FWUPDATE_SSC_APPLICATION_XMC48/Libraries/CMSIS/Include\cmsis_gcc.h **** 
 417:C:/src/bakalarka_workspace/ETHCAT_FWUPDATE_SSC_APPLICATION_XMC48/Libraries/CMSIS/Include\cmsis_gcc.h **** 
 418:C:/src/bakalarka_workspace/ETHCAT_FWUPDATE_SSC_APPLICATION_XMC48/Libraries/CMSIS/Include\cmsis_gcc.h **** #if (defined (__ARM_FEATURE_CMSE ) && (__ARM_FEATURE_CMSE == 3))
 419:C:/src/bakalarka_workspace/ETHCAT_FWUPDATE_SSC_APPLICATION_XMC48/Libraries/CMSIS/Include\cmsis_gcc.h **** /**
 420:C:/src/bakalarka_workspace/ETHCAT_FWUPDATE_SSC_APPLICATION_XMC48/Libraries/CMSIS/Include\cmsis_gcc.h ****   \brief   Set Priority Mask (non-secure)
 421:C:/src/bakalarka_workspace/ETHCAT_FWUPDATE_SSC_APPLICATION_XMC48/Libraries/CMSIS/Include\cmsis_gcc.h ****   \details Assigns the given value to the non-secure Priority Mask Register when in secure state.
 422:C:/src/bakalarka_workspace/ETHCAT_FWUPDATE_SSC_APPLICATION_XMC48/Libraries/CMSIS/Include\cmsis_gcc.h ****   \param [in]    priMask  Priority Mask
 423:C:/src/bakalarka_workspace/ETHCAT_FWUPDATE_SSC_APPLICATION_XMC48/Libraries/CMSIS/Include\cmsis_gcc.h ****  */
 424:C:/src/bakalarka_workspace/ETHCAT_FWUPDATE_SSC_APPLICATION_XMC48/Libraries/CMSIS/Include\cmsis_gcc.h **** __STATIC_FORCEINLINE void __TZ_set_PRIMASK_NS(uint32_t priMask)
 425:C:/src/bakalarka_workspace/ETHCAT_FWUPDATE_SSC_APPLICATION_XMC48/Libraries/CMSIS/Include\cmsis_gcc.h **** {
 426:C:/src/bakalarka_workspace/ETHCAT_FWUPDATE_SSC_APPLICATION_XMC48/Libraries/CMSIS/Include\cmsis_gcc.h ****   __ASM volatile ("MSR primask_ns, %0" : : "r" (priMask) : "memory");
 427:C:/src/bakalarka_workspace/ETHCAT_FWUPDATE_SSC_APPLICATION_XMC48/Libraries/CMSIS/Include\cmsis_gcc.h **** }
 428:C:/src/bakalarka_workspace/ETHCAT_FWUPDATE_SSC_APPLICATION_XMC48/Libraries/CMSIS/Include\cmsis_gcc.h **** #endif
 429:C:/src/bakalarka_workspace/ETHCAT_FWUPDATE_SSC_APPLICATION_XMC48/Libraries/CMSIS/Include\cmsis_gcc.h **** 
 430:C:/src/bakalarka_workspace/ETHCAT_FWUPDATE_SSC_APPLICATION_XMC48/Libraries/CMSIS/Include\cmsis_gcc.h **** 
 431:C:/src/bakalarka_workspace/ETHCAT_FWUPDATE_SSC_APPLICATION_XMC48/Libraries/CMSIS/Include\cmsis_gcc.h **** #if ((defined (__ARM_ARCH_7M__      ) && (__ARM_ARCH_7M__      == 1)) || \
 432:C:/src/bakalarka_workspace/ETHCAT_FWUPDATE_SSC_APPLICATION_XMC48/Libraries/CMSIS/Include\cmsis_gcc.h ****      (defined (__ARM_ARCH_7EM__     ) && (__ARM_ARCH_7EM__     == 1)) || \
 433:C:/src/bakalarka_workspace/ETHCAT_FWUPDATE_SSC_APPLICATION_XMC48/Libraries/CMSIS/Include\cmsis_gcc.h ****      (defined (__ARM_ARCH_8M_MAIN__ ) && (__ARM_ARCH_8M_MAIN__ == 1))    )
 434:C:/src/bakalarka_workspace/ETHCAT_FWUPDATE_SSC_APPLICATION_XMC48/Libraries/CMSIS/Include\cmsis_gcc.h **** /**
 435:C:/src/bakalarka_workspace/ETHCAT_FWUPDATE_SSC_APPLICATION_XMC48/Libraries/CMSIS/Include\cmsis_gcc.h ****   \brief   Enable FIQ
 436:C:/src/bakalarka_workspace/ETHCAT_FWUPDATE_SSC_APPLICATION_XMC48/Libraries/CMSIS/Include\cmsis_gcc.h ****   \details Enables FIQ interrupts by clearing the F-bit in the CPSR.
 437:C:/src/bakalarka_workspace/ETHCAT_FWUPDATE_SSC_APPLICATION_XMC48/Libraries/CMSIS/Include\cmsis_gcc.h ****            Can only be executed in Privileged modes.
 438:C:/src/bakalarka_workspace/ETHCAT_FWUPDATE_SSC_APPLICATION_XMC48/Libraries/CMSIS/Include\cmsis_gcc.h ****  */
 439:C:/src/bakalarka_workspace/ETHCAT_FWUPDATE_SSC_APPLICATION_XMC48/Libraries/CMSIS/Include\cmsis_gcc.h **** __STATIC_FORCEINLINE void __enable_fault_irq(void)
 440:C:/src/bakalarka_workspace/ETHCAT_FWUPDATE_SSC_APPLICATION_XMC48/Libraries/CMSIS/Include\cmsis_gcc.h **** {
 441:C:/src/bakalarka_workspace/ETHCAT_FWUPDATE_SSC_APPLICATION_XMC48/Libraries/CMSIS/Include\cmsis_gcc.h ****   __ASM volatile ("cpsie f" : : : "memory");
 442:C:/src/bakalarka_workspace/ETHCAT_FWUPDATE_SSC_APPLICATION_XMC48/Libraries/CMSIS/Include\cmsis_gcc.h **** }
 443:C:/src/bakalarka_workspace/ETHCAT_FWUPDATE_SSC_APPLICATION_XMC48/Libraries/CMSIS/Include\cmsis_gcc.h **** 
 444:C:/src/bakalarka_workspace/ETHCAT_FWUPDATE_SSC_APPLICATION_XMC48/Libraries/CMSIS/Include\cmsis_gcc.h **** 
 445:C:/src/bakalarka_workspace/ETHCAT_FWUPDATE_SSC_APPLICATION_XMC48/Libraries/CMSIS/Include\cmsis_gcc.h **** /**
 446:C:/src/bakalarka_workspace/ETHCAT_FWUPDATE_SSC_APPLICATION_XMC48/Libraries/CMSIS/Include\cmsis_gcc.h ****   \brief   Disable FIQ
 447:C:/src/bakalarka_workspace/ETHCAT_FWUPDATE_SSC_APPLICATION_XMC48/Libraries/CMSIS/Include\cmsis_gcc.h ****   \details Disables FIQ interrupts by setting the F-bit in the CPSR.
 448:C:/src/bakalarka_workspace/ETHCAT_FWUPDATE_SSC_APPLICATION_XMC48/Libraries/CMSIS/Include\cmsis_gcc.h ****            Can only be executed in Privileged modes.
 449:C:/src/bakalarka_workspace/ETHCAT_FWUPDATE_SSC_APPLICATION_XMC48/Libraries/CMSIS/Include\cmsis_gcc.h ****  */
 450:C:/src/bakalarka_workspace/ETHCAT_FWUPDATE_SSC_APPLICATION_XMC48/Libraries/CMSIS/Include\cmsis_gcc.h **** __STATIC_FORCEINLINE void __disable_fault_irq(void)
 451:C:/src/bakalarka_workspace/ETHCAT_FWUPDATE_SSC_APPLICATION_XMC48/Libraries/CMSIS/Include\cmsis_gcc.h **** {
 452:C:/src/bakalarka_workspace/ETHCAT_FWUPDATE_SSC_APPLICATION_XMC48/Libraries/CMSIS/Include\cmsis_gcc.h ****   __ASM volatile ("cpsid f" : : : "memory");
 453:C:/src/bakalarka_workspace/ETHCAT_FWUPDATE_SSC_APPLICATION_XMC48/Libraries/CMSIS/Include\cmsis_gcc.h **** }
 454:C:/src/bakalarka_workspace/ETHCAT_FWUPDATE_SSC_APPLICATION_XMC48/Libraries/CMSIS/Include\cmsis_gcc.h **** 
 455:C:/src/bakalarka_workspace/ETHCAT_FWUPDATE_SSC_APPLICATION_XMC48/Libraries/CMSIS/Include\cmsis_gcc.h **** 
 456:C:/src/bakalarka_workspace/ETHCAT_FWUPDATE_SSC_APPLICATION_XMC48/Libraries/CMSIS/Include\cmsis_gcc.h **** /**
 457:C:/src/bakalarka_workspace/ETHCAT_FWUPDATE_SSC_APPLICATION_XMC48/Libraries/CMSIS/Include\cmsis_gcc.h ****   \brief   Get Base Priority
 458:C:/src/bakalarka_workspace/ETHCAT_FWUPDATE_SSC_APPLICATION_XMC48/Libraries/CMSIS/Include\cmsis_gcc.h ****   \details Returns the current value of the Base Priority register.
 459:C:/src/bakalarka_workspace/ETHCAT_FWUPDATE_SSC_APPLICATION_XMC48/Libraries/CMSIS/Include\cmsis_gcc.h ****   \return               Base Priority register value
 460:C:/src/bakalarka_workspace/ETHCAT_FWUPDATE_SSC_APPLICATION_XMC48/Libraries/CMSIS/Include\cmsis_gcc.h ****  */
 461:C:/src/bakalarka_workspace/ETHCAT_FWUPDATE_SSC_APPLICATION_XMC48/Libraries/CMSIS/Include\cmsis_gcc.h **** __STATIC_FORCEINLINE uint32_t __get_BASEPRI(void)
 462:C:/src/bakalarka_workspace/ETHCAT_FWUPDATE_SSC_APPLICATION_XMC48/Libraries/CMSIS/Include\cmsis_gcc.h **** {
 463:C:/src/bakalarka_workspace/ETHCAT_FWUPDATE_SSC_APPLICATION_XMC48/Libraries/CMSIS/Include\cmsis_gcc.h ****   uint32_t result;
 464:C:/src/bakalarka_workspace/ETHCAT_FWUPDATE_SSC_APPLICATION_XMC48/Libraries/CMSIS/Include\cmsis_gcc.h **** 
 465:C:/src/bakalarka_workspace/ETHCAT_FWUPDATE_SSC_APPLICATION_XMC48/Libraries/CMSIS/Include\cmsis_gcc.h ****   __ASM volatile ("MRS %0, basepri" : "=r" (result) );
 466:C:/src/bakalarka_workspace/ETHCAT_FWUPDATE_SSC_APPLICATION_XMC48/Libraries/CMSIS/Include\cmsis_gcc.h ****   return(result);
 467:C:/src/bakalarka_workspace/ETHCAT_FWUPDATE_SSC_APPLICATION_XMC48/Libraries/CMSIS/Include\cmsis_gcc.h **** }
 468:C:/src/bakalarka_workspace/ETHCAT_FWUPDATE_SSC_APPLICATION_XMC48/Libraries/CMSIS/Include\cmsis_gcc.h **** 
 469:C:/src/bakalarka_workspace/ETHCAT_FWUPDATE_SSC_APPLICATION_XMC48/Libraries/CMSIS/Include\cmsis_gcc.h **** 
 470:C:/src/bakalarka_workspace/ETHCAT_FWUPDATE_SSC_APPLICATION_XMC48/Libraries/CMSIS/Include\cmsis_gcc.h **** #if (defined (__ARM_FEATURE_CMSE ) && (__ARM_FEATURE_CMSE == 3))
 471:C:/src/bakalarka_workspace/ETHCAT_FWUPDATE_SSC_APPLICATION_XMC48/Libraries/CMSIS/Include\cmsis_gcc.h **** /**
 472:C:/src/bakalarka_workspace/ETHCAT_FWUPDATE_SSC_APPLICATION_XMC48/Libraries/CMSIS/Include\cmsis_gcc.h ****   \brief   Get Base Priority (non-secure)
 473:C:/src/bakalarka_workspace/ETHCAT_FWUPDATE_SSC_APPLICATION_XMC48/Libraries/CMSIS/Include\cmsis_gcc.h ****   \details Returns the current value of the non-secure Base Priority register when in secure state.
 474:C:/src/bakalarka_workspace/ETHCAT_FWUPDATE_SSC_APPLICATION_XMC48/Libraries/CMSIS/Include\cmsis_gcc.h ****   \return               Base Priority register value
 475:C:/src/bakalarka_workspace/ETHCAT_FWUPDATE_SSC_APPLICATION_XMC48/Libraries/CMSIS/Include\cmsis_gcc.h ****  */
 476:C:/src/bakalarka_workspace/ETHCAT_FWUPDATE_SSC_APPLICATION_XMC48/Libraries/CMSIS/Include\cmsis_gcc.h **** __STATIC_FORCEINLINE uint32_t __TZ_get_BASEPRI_NS(void)
 477:C:/src/bakalarka_workspace/ETHCAT_FWUPDATE_SSC_APPLICATION_XMC48/Libraries/CMSIS/Include\cmsis_gcc.h **** {
 478:C:/src/bakalarka_workspace/ETHCAT_FWUPDATE_SSC_APPLICATION_XMC48/Libraries/CMSIS/Include\cmsis_gcc.h ****   uint32_t result;
 479:C:/src/bakalarka_workspace/ETHCAT_FWUPDATE_SSC_APPLICATION_XMC48/Libraries/CMSIS/Include\cmsis_gcc.h **** 
 480:C:/src/bakalarka_workspace/ETHCAT_FWUPDATE_SSC_APPLICATION_XMC48/Libraries/CMSIS/Include\cmsis_gcc.h ****   __ASM volatile ("MRS %0, basepri_ns" : "=r" (result) );
 481:C:/src/bakalarka_workspace/ETHCAT_FWUPDATE_SSC_APPLICATION_XMC48/Libraries/CMSIS/Include\cmsis_gcc.h ****   return(result);
 482:C:/src/bakalarka_workspace/ETHCAT_FWUPDATE_SSC_APPLICATION_XMC48/Libraries/CMSIS/Include\cmsis_gcc.h **** }
 483:C:/src/bakalarka_workspace/ETHCAT_FWUPDATE_SSC_APPLICATION_XMC48/Libraries/CMSIS/Include\cmsis_gcc.h **** #endif
 484:C:/src/bakalarka_workspace/ETHCAT_FWUPDATE_SSC_APPLICATION_XMC48/Libraries/CMSIS/Include\cmsis_gcc.h **** 
 485:C:/src/bakalarka_workspace/ETHCAT_FWUPDATE_SSC_APPLICATION_XMC48/Libraries/CMSIS/Include\cmsis_gcc.h **** 
 486:C:/src/bakalarka_workspace/ETHCAT_FWUPDATE_SSC_APPLICATION_XMC48/Libraries/CMSIS/Include\cmsis_gcc.h **** /**
 487:C:/src/bakalarka_workspace/ETHCAT_FWUPDATE_SSC_APPLICATION_XMC48/Libraries/CMSIS/Include\cmsis_gcc.h ****   \brief   Set Base Priority
 488:C:/src/bakalarka_workspace/ETHCAT_FWUPDATE_SSC_APPLICATION_XMC48/Libraries/CMSIS/Include\cmsis_gcc.h ****   \details Assigns the given value to the Base Priority register.
 489:C:/src/bakalarka_workspace/ETHCAT_FWUPDATE_SSC_APPLICATION_XMC48/Libraries/CMSIS/Include\cmsis_gcc.h ****   \param [in]    basePri  Base Priority value to set
 490:C:/src/bakalarka_workspace/ETHCAT_FWUPDATE_SSC_APPLICATION_XMC48/Libraries/CMSIS/Include\cmsis_gcc.h ****  */
 491:C:/src/bakalarka_workspace/ETHCAT_FWUPDATE_SSC_APPLICATION_XMC48/Libraries/CMSIS/Include\cmsis_gcc.h **** __STATIC_FORCEINLINE void __set_BASEPRI(uint32_t basePri)
 492:C:/src/bakalarka_workspace/ETHCAT_FWUPDATE_SSC_APPLICATION_XMC48/Libraries/CMSIS/Include\cmsis_gcc.h **** {
 493:C:/src/bakalarka_workspace/ETHCAT_FWUPDATE_SSC_APPLICATION_XMC48/Libraries/CMSIS/Include\cmsis_gcc.h ****   __ASM volatile ("MSR basepri, %0" : : "r" (basePri) : "memory");
 494:C:/src/bakalarka_workspace/ETHCAT_FWUPDATE_SSC_APPLICATION_XMC48/Libraries/CMSIS/Include\cmsis_gcc.h **** }
 495:C:/src/bakalarka_workspace/ETHCAT_FWUPDATE_SSC_APPLICATION_XMC48/Libraries/CMSIS/Include\cmsis_gcc.h **** 
 496:C:/src/bakalarka_workspace/ETHCAT_FWUPDATE_SSC_APPLICATION_XMC48/Libraries/CMSIS/Include\cmsis_gcc.h **** 
 497:C:/src/bakalarka_workspace/ETHCAT_FWUPDATE_SSC_APPLICATION_XMC48/Libraries/CMSIS/Include\cmsis_gcc.h **** #if (defined (__ARM_FEATURE_CMSE ) && (__ARM_FEATURE_CMSE == 3))
 498:C:/src/bakalarka_workspace/ETHCAT_FWUPDATE_SSC_APPLICATION_XMC48/Libraries/CMSIS/Include\cmsis_gcc.h **** /**
 499:C:/src/bakalarka_workspace/ETHCAT_FWUPDATE_SSC_APPLICATION_XMC48/Libraries/CMSIS/Include\cmsis_gcc.h ****   \brief   Set Base Priority (non-secure)
 500:C:/src/bakalarka_workspace/ETHCAT_FWUPDATE_SSC_APPLICATION_XMC48/Libraries/CMSIS/Include\cmsis_gcc.h ****   \details Assigns the given value to the non-secure Base Priority register when in secure state.
 501:C:/src/bakalarka_workspace/ETHCAT_FWUPDATE_SSC_APPLICATION_XMC48/Libraries/CMSIS/Include\cmsis_gcc.h ****   \param [in]    basePri  Base Priority value to set
 502:C:/src/bakalarka_workspace/ETHCAT_FWUPDATE_SSC_APPLICATION_XMC48/Libraries/CMSIS/Include\cmsis_gcc.h ****  */
 503:C:/src/bakalarka_workspace/ETHCAT_FWUPDATE_SSC_APPLICATION_XMC48/Libraries/CMSIS/Include\cmsis_gcc.h **** __STATIC_FORCEINLINE void __TZ_set_BASEPRI_NS(uint32_t basePri)
 504:C:/src/bakalarka_workspace/ETHCAT_FWUPDATE_SSC_APPLICATION_XMC48/Libraries/CMSIS/Include\cmsis_gcc.h **** {
 505:C:/src/bakalarka_workspace/ETHCAT_FWUPDATE_SSC_APPLICATION_XMC48/Libraries/CMSIS/Include\cmsis_gcc.h ****   __ASM volatile ("MSR basepri_ns, %0" : : "r" (basePri) : "memory");
 506:C:/src/bakalarka_workspace/ETHCAT_FWUPDATE_SSC_APPLICATION_XMC48/Libraries/CMSIS/Include\cmsis_gcc.h **** }
 507:C:/src/bakalarka_workspace/ETHCAT_FWUPDATE_SSC_APPLICATION_XMC48/Libraries/CMSIS/Include\cmsis_gcc.h **** #endif
 508:C:/src/bakalarka_workspace/ETHCAT_FWUPDATE_SSC_APPLICATION_XMC48/Libraries/CMSIS/Include\cmsis_gcc.h **** 
 509:C:/src/bakalarka_workspace/ETHCAT_FWUPDATE_SSC_APPLICATION_XMC48/Libraries/CMSIS/Include\cmsis_gcc.h **** 
 510:C:/src/bakalarka_workspace/ETHCAT_FWUPDATE_SSC_APPLICATION_XMC48/Libraries/CMSIS/Include\cmsis_gcc.h **** /**
 511:C:/src/bakalarka_workspace/ETHCAT_FWUPDATE_SSC_APPLICATION_XMC48/Libraries/CMSIS/Include\cmsis_gcc.h ****   \brief   Set Base Priority with condition
 512:C:/src/bakalarka_workspace/ETHCAT_FWUPDATE_SSC_APPLICATION_XMC48/Libraries/CMSIS/Include\cmsis_gcc.h ****   \details Assigns the given value to the Base Priority register only if BASEPRI masking is disable
 513:C:/src/bakalarka_workspace/ETHCAT_FWUPDATE_SSC_APPLICATION_XMC48/Libraries/CMSIS/Include\cmsis_gcc.h ****            or the new value increases the BASEPRI priority level.
 514:C:/src/bakalarka_workspace/ETHCAT_FWUPDATE_SSC_APPLICATION_XMC48/Libraries/CMSIS/Include\cmsis_gcc.h ****   \param [in]    basePri  Base Priority value to set
 515:C:/src/bakalarka_workspace/ETHCAT_FWUPDATE_SSC_APPLICATION_XMC48/Libraries/CMSIS/Include\cmsis_gcc.h ****  */
 516:C:/src/bakalarka_workspace/ETHCAT_FWUPDATE_SSC_APPLICATION_XMC48/Libraries/CMSIS/Include\cmsis_gcc.h **** __STATIC_FORCEINLINE void __set_BASEPRI_MAX(uint32_t basePri)
 517:C:/src/bakalarka_workspace/ETHCAT_FWUPDATE_SSC_APPLICATION_XMC48/Libraries/CMSIS/Include\cmsis_gcc.h **** {
 518:C:/src/bakalarka_workspace/ETHCAT_FWUPDATE_SSC_APPLICATION_XMC48/Libraries/CMSIS/Include\cmsis_gcc.h ****   __ASM volatile ("MSR basepri_max, %0" : : "r" (basePri) : "memory");
 519:C:/src/bakalarka_workspace/ETHCAT_FWUPDATE_SSC_APPLICATION_XMC48/Libraries/CMSIS/Include\cmsis_gcc.h **** }
 520:C:/src/bakalarka_workspace/ETHCAT_FWUPDATE_SSC_APPLICATION_XMC48/Libraries/CMSIS/Include\cmsis_gcc.h **** 
 521:C:/src/bakalarka_workspace/ETHCAT_FWUPDATE_SSC_APPLICATION_XMC48/Libraries/CMSIS/Include\cmsis_gcc.h **** 
 522:C:/src/bakalarka_workspace/ETHCAT_FWUPDATE_SSC_APPLICATION_XMC48/Libraries/CMSIS/Include\cmsis_gcc.h **** /**
 523:C:/src/bakalarka_workspace/ETHCAT_FWUPDATE_SSC_APPLICATION_XMC48/Libraries/CMSIS/Include\cmsis_gcc.h ****   \brief   Get Fault Mask
 524:C:/src/bakalarka_workspace/ETHCAT_FWUPDATE_SSC_APPLICATION_XMC48/Libraries/CMSIS/Include\cmsis_gcc.h ****   \details Returns the current value of the Fault Mask register.
 525:C:/src/bakalarka_workspace/ETHCAT_FWUPDATE_SSC_APPLICATION_XMC48/Libraries/CMSIS/Include\cmsis_gcc.h ****   \return               Fault Mask register value
 526:C:/src/bakalarka_workspace/ETHCAT_FWUPDATE_SSC_APPLICATION_XMC48/Libraries/CMSIS/Include\cmsis_gcc.h ****  */
 527:C:/src/bakalarka_workspace/ETHCAT_FWUPDATE_SSC_APPLICATION_XMC48/Libraries/CMSIS/Include\cmsis_gcc.h **** __STATIC_FORCEINLINE uint32_t __get_FAULTMASK(void)
 528:C:/src/bakalarka_workspace/ETHCAT_FWUPDATE_SSC_APPLICATION_XMC48/Libraries/CMSIS/Include\cmsis_gcc.h **** {
 529:C:/src/bakalarka_workspace/ETHCAT_FWUPDATE_SSC_APPLICATION_XMC48/Libraries/CMSIS/Include\cmsis_gcc.h ****   uint32_t result;
 530:C:/src/bakalarka_workspace/ETHCAT_FWUPDATE_SSC_APPLICATION_XMC48/Libraries/CMSIS/Include\cmsis_gcc.h **** 
 531:C:/src/bakalarka_workspace/ETHCAT_FWUPDATE_SSC_APPLICATION_XMC48/Libraries/CMSIS/Include\cmsis_gcc.h ****   __ASM volatile ("MRS %0, faultmask" : "=r" (result) );
 532:C:/src/bakalarka_workspace/ETHCAT_FWUPDATE_SSC_APPLICATION_XMC48/Libraries/CMSIS/Include\cmsis_gcc.h ****   return(result);
 533:C:/src/bakalarka_workspace/ETHCAT_FWUPDATE_SSC_APPLICATION_XMC48/Libraries/CMSIS/Include\cmsis_gcc.h **** }
 534:C:/src/bakalarka_workspace/ETHCAT_FWUPDATE_SSC_APPLICATION_XMC48/Libraries/CMSIS/Include\cmsis_gcc.h **** 
 535:C:/src/bakalarka_workspace/ETHCAT_FWUPDATE_SSC_APPLICATION_XMC48/Libraries/CMSIS/Include\cmsis_gcc.h **** 
 536:C:/src/bakalarka_workspace/ETHCAT_FWUPDATE_SSC_APPLICATION_XMC48/Libraries/CMSIS/Include\cmsis_gcc.h **** #if (defined (__ARM_FEATURE_CMSE ) && (__ARM_FEATURE_CMSE == 3))
 537:C:/src/bakalarka_workspace/ETHCAT_FWUPDATE_SSC_APPLICATION_XMC48/Libraries/CMSIS/Include\cmsis_gcc.h **** /**
 538:C:/src/bakalarka_workspace/ETHCAT_FWUPDATE_SSC_APPLICATION_XMC48/Libraries/CMSIS/Include\cmsis_gcc.h ****   \brief   Get Fault Mask (non-secure)
 539:C:/src/bakalarka_workspace/ETHCAT_FWUPDATE_SSC_APPLICATION_XMC48/Libraries/CMSIS/Include\cmsis_gcc.h ****   \details Returns the current value of the non-secure Fault Mask register when in secure state.
 540:C:/src/bakalarka_workspace/ETHCAT_FWUPDATE_SSC_APPLICATION_XMC48/Libraries/CMSIS/Include\cmsis_gcc.h ****   \return               Fault Mask register value
 541:C:/src/bakalarka_workspace/ETHCAT_FWUPDATE_SSC_APPLICATION_XMC48/Libraries/CMSIS/Include\cmsis_gcc.h ****  */
 542:C:/src/bakalarka_workspace/ETHCAT_FWUPDATE_SSC_APPLICATION_XMC48/Libraries/CMSIS/Include\cmsis_gcc.h **** __STATIC_FORCEINLINE uint32_t __TZ_get_FAULTMASK_NS(void)
 543:C:/src/bakalarka_workspace/ETHCAT_FWUPDATE_SSC_APPLICATION_XMC48/Libraries/CMSIS/Include\cmsis_gcc.h **** {
 544:C:/src/bakalarka_workspace/ETHCAT_FWUPDATE_SSC_APPLICATION_XMC48/Libraries/CMSIS/Include\cmsis_gcc.h ****   uint32_t result;
 545:C:/src/bakalarka_workspace/ETHCAT_FWUPDATE_SSC_APPLICATION_XMC48/Libraries/CMSIS/Include\cmsis_gcc.h **** 
 546:C:/src/bakalarka_workspace/ETHCAT_FWUPDATE_SSC_APPLICATION_XMC48/Libraries/CMSIS/Include\cmsis_gcc.h ****   __ASM volatile ("MRS %0, faultmask_ns" : "=r" (result) );
 547:C:/src/bakalarka_workspace/ETHCAT_FWUPDATE_SSC_APPLICATION_XMC48/Libraries/CMSIS/Include\cmsis_gcc.h ****   return(result);
 548:C:/src/bakalarka_workspace/ETHCAT_FWUPDATE_SSC_APPLICATION_XMC48/Libraries/CMSIS/Include\cmsis_gcc.h **** }
 549:C:/src/bakalarka_workspace/ETHCAT_FWUPDATE_SSC_APPLICATION_XMC48/Libraries/CMSIS/Include\cmsis_gcc.h **** #endif
 550:C:/src/bakalarka_workspace/ETHCAT_FWUPDATE_SSC_APPLICATION_XMC48/Libraries/CMSIS/Include\cmsis_gcc.h **** 
 551:C:/src/bakalarka_workspace/ETHCAT_FWUPDATE_SSC_APPLICATION_XMC48/Libraries/CMSIS/Include\cmsis_gcc.h **** 
 552:C:/src/bakalarka_workspace/ETHCAT_FWUPDATE_SSC_APPLICATION_XMC48/Libraries/CMSIS/Include\cmsis_gcc.h **** /**
 553:C:/src/bakalarka_workspace/ETHCAT_FWUPDATE_SSC_APPLICATION_XMC48/Libraries/CMSIS/Include\cmsis_gcc.h ****   \brief   Set Fault Mask
 554:C:/src/bakalarka_workspace/ETHCAT_FWUPDATE_SSC_APPLICATION_XMC48/Libraries/CMSIS/Include\cmsis_gcc.h ****   \details Assigns the given value to the Fault Mask register.
 555:C:/src/bakalarka_workspace/ETHCAT_FWUPDATE_SSC_APPLICATION_XMC48/Libraries/CMSIS/Include\cmsis_gcc.h ****   \param [in]    faultMask  Fault Mask value to set
 556:C:/src/bakalarka_workspace/ETHCAT_FWUPDATE_SSC_APPLICATION_XMC48/Libraries/CMSIS/Include\cmsis_gcc.h ****  */
 557:C:/src/bakalarka_workspace/ETHCAT_FWUPDATE_SSC_APPLICATION_XMC48/Libraries/CMSIS/Include\cmsis_gcc.h **** __STATIC_FORCEINLINE void __set_FAULTMASK(uint32_t faultMask)
 558:C:/src/bakalarka_workspace/ETHCAT_FWUPDATE_SSC_APPLICATION_XMC48/Libraries/CMSIS/Include\cmsis_gcc.h **** {
 559:C:/src/bakalarka_workspace/ETHCAT_FWUPDATE_SSC_APPLICATION_XMC48/Libraries/CMSIS/Include\cmsis_gcc.h ****   __ASM volatile ("MSR faultmask, %0" : : "r" (faultMask) : "memory");
 560:C:/src/bakalarka_workspace/ETHCAT_FWUPDATE_SSC_APPLICATION_XMC48/Libraries/CMSIS/Include\cmsis_gcc.h **** }
 561:C:/src/bakalarka_workspace/ETHCAT_FWUPDATE_SSC_APPLICATION_XMC48/Libraries/CMSIS/Include\cmsis_gcc.h **** 
 562:C:/src/bakalarka_workspace/ETHCAT_FWUPDATE_SSC_APPLICATION_XMC48/Libraries/CMSIS/Include\cmsis_gcc.h **** 
 563:C:/src/bakalarka_workspace/ETHCAT_FWUPDATE_SSC_APPLICATION_XMC48/Libraries/CMSIS/Include\cmsis_gcc.h **** #if (defined (__ARM_FEATURE_CMSE ) && (__ARM_FEATURE_CMSE == 3))
 564:C:/src/bakalarka_workspace/ETHCAT_FWUPDATE_SSC_APPLICATION_XMC48/Libraries/CMSIS/Include\cmsis_gcc.h **** /**
 565:C:/src/bakalarka_workspace/ETHCAT_FWUPDATE_SSC_APPLICATION_XMC48/Libraries/CMSIS/Include\cmsis_gcc.h ****   \brief   Set Fault Mask (non-secure)
 566:C:/src/bakalarka_workspace/ETHCAT_FWUPDATE_SSC_APPLICATION_XMC48/Libraries/CMSIS/Include\cmsis_gcc.h ****   \details Assigns the given value to the non-secure Fault Mask register when in secure state.
 567:C:/src/bakalarka_workspace/ETHCAT_FWUPDATE_SSC_APPLICATION_XMC48/Libraries/CMSIS/Include\cmsis_gcc.h ****   \param [in]    faultMask  Fault Mask value to set
 568:C:/src/bakalarka_workspace/ETHCAT_FWUPDATE_SSC_APPLICATION_XMC48/Libraries/CMSIS/Include\cmsis_gcc.h ****  */
 569:C:/src/bakalarka_workspace/ETHCAT_FWUPDATE_SSC_APPLICATION_XMC48/Libraries/CMSIS/Include\cmsis_gcc.h **** __STATIC_FORCEINLINE void __TZ_set_FAULTMASK_NS(uint32_t faultMask)
 570:C:/src/bakalarka_workspace/ETHCAT_FWUPDATE_SSC_APPLICATION_XMC48/Libraries/CMSIS/Include\cmsis_gcc.h **** {
 571:C:/src/bakalarka_workspace/ETHCAT_FWUPDATE_SSC_APPLICATION_XMC48/Libraries/CMSIS/Include\cmsis_gcc.h ****   __ASM volatile ("MSR faultmask_ns, %0" : : "r" (faultMask) : "memory");
 572:C:/src/bakalarka_workspace/ETHCAT_FWUPDATE_SSC_APPLICATION_XMC48/Libraries/CMSIS/Include\cmsis_gcc.h **** }
 573:C:/src/bakalarka_workspace/ETHCAT_FWUPDATE_SSC_APPLICATION_XMC48/Libraries/CMSIS/Include\cmsis_gcc.h **** #endif
 574:C:/src/bakalarka_workspace/ETHCAT_FWUPDATE_SSC_APPLICATION_XMC48/Libraries/CMSIS/Include\cmsis_gcc.h **** 
 575:C:/src/bakalarka_workspace/ETHCAT_FWUPDATE_SSC_APPLICATION_XMC48/Libraries/CMSIS/Include\cmsis_gcc.h **** #endif /* ((defined (__ARM_ARCH_7M__      ) && (__ARM_ARCH_7M__      == 1)) || \
 576:C:/src/bakalarka_workspace/ETHCAT_FWUPDATE_SSC_APPLICATION_XMC48/Libraries/CMSIS/Include\cmsis_gcc.h ****            (defined (__ARM_ARCH_7EM__     ) && (__ARM_ARCH_7EM__     == 1)) || \
 577:C:/src/bakalarka_workspace/ETHCAT_FWUPDATE_SSC_APPLICATION_XMC48/Libraries/CMSIS/Include\cmsis_gcc.h ****            (defined (__ARM_ARCH_8M_MAIN__ ) && (__ARM_ARCH_8M_MAIN__ == 1))    ) */
 578:C:/src/bakalarka_workspace/ETHCAT_FWUPDATE_SSC_APPLICATION_XMC48/Libraries/CMSIS/Include\cmsis_gcc.h **** 
 579:C:/src/bakalarka_workspace/ETHCAT_FWUPDATE_SSC_APPLICATION_XMC48/Libraries/CMSIS/Include\cmsis_gcc.h **** 
 580:C:/src/bakalarka_workspace/ETHCAT_FWUPDATE_SSC_APPLICATION_XMC48/Libraries/CMSIS/Include\cmsis_gcc.h **** #if ((defined (__ARM_ARCH_8M_MAIN__ ) && (__ARM_ARCH_8M_MAIN__ == 1)) || \
 581:C:/src/bakalarka_workspace/ETHCAT_FWUPDATE_SSC_APPLICATION_XMC48/Libraries/CMSIS/Include\cmsis_gcc.h ****      (defined (__ARM_ARCH_8M_BASE__ ) && (__ARM_ARCH_8M_BASE__ == 1))    )
 582:C:/src/bakalarka_workspace/ETHCAT_FWUPDATE_SSC_APPLICATION_XMC48/Libraries/CMSIS/Include\cmsis_gcc.h **** 
 583:C:/src/bakalarka_workspace/ETHCAT_FWUPDATE_SSC_APPLICATION_XMC48/Libraries/CMSIS/Include\cmsis_gcc.h **** /**
 584:C:/src/bakalarka_workspace/ETHCAT_FWUPDATE_SSC_APPLICATION_XMC48/Libraries/CMSIS/Include\cmsis_gcc.h ****   \brief   Get Process Stack Pointer Limit
 585:C:/src/bakalarka_workspace/ETHCAT_FWUPDATE_SSC_APPLICATION_XMC48/Libraries/CMSIS/Include\cmsis_gcc.h ****   \details Returns the current value of the Process Stack Pointer Limit (PSPLIM).
 586:C:/src/bakalarka_workspace/ETHCAT_FWUPDATE_SSC_APPLICATION_XMC48/Libraries/CMSIS/Include\cmsis_gcc.h ****   \return               PSPLIM Register value
 587:C:/src/bakalarka_workspace/ETHCAT_FWUPDATE_SSC_APPLICATION_XMC48/Libraries/CMSIS/Include\cmsis_gcc.h ****  */
 588:C:/src/bakalarka_workspace/ETHCAT_FWUPDATE_SSC_APPLICATION_XMC48/Libraries/CMSIS/Include\cmsis_gcc.h **** __STATIC_FORCEINLINE uint32_t __get_PSPLIM(void)
 589:C:/src/bakalarka_workspace/ETHCAT_FWUPDATE_SSC_APPLICATION_XMC48/Libraries/CMSIS/Include\cmsis_gcc.h **** {
 590:C:/src/bakalarka_workspace/ETHCAT_FWUPDATE_SSC_APPLICATION_XMC48/Libraries/CMSIS/Include\cmsis_gcc.h ****   register uint32_t result;
 591:C:/src/bakalarka_workspace/ETHCAT_FWUPDATE_SSC_APPLICATION_XMC48/Libraries/CMSIS/Include\cmsis_gcc.h **** 
 592:C:/src/bakalarka_workspace/ETHCAT_FWUPDATE_SSC_APPLICATION_XMC48/Libraries/CMSIS/Include\cmsis_gcc.h ****   __ASM volatile ("MRS %0, psplim"  : "=r" (result) );
 593:C:/src/bakalarka_workspace/ETHCAT_FWUPDATE_SSC_APPLICATION_XMC48/Libraries/CMSIS/Include\cmsis_gcc.h ****   return(result);
 594:C:/src/bakalarka_workspace/ETHCAT_FWUPDATE_SSC_APPLICATION_XMC48/Libraries/CMSIS/Include\cmsis_gcc.h **** }
 595:C:/src/bakalarka_workspace/ETHCAT_FWUPDATE_SSC_APPLICATION_XMC48/Libraries/CMSIS/Include\cmsis_gcc.h **** 
 596:C:/src/bakalarka_workspace/ETHCAT_FWUPDATE_SSC_APPLICATION_XMC48/Libraries/CMSIS/Include\cmsis_gcc.h **** 
 597:C:/src/bakalarka_workspace/ETHCAT_FWUPDATE_SSC_APPLICATION_XMC48/Libraries/CMSIS/Include\cmsis_gcc.h **** #if ((defined (__ARM_FEATURE_CMSE  ) && (__ARM_FEATURE_CMSE   == 3)) && \
 598:C:/src/bakalarka_workspace/ETHCAT_FWUPDATE_SSC_APPLICATION_XMC48/Libraries/CMSIS/Include\cmsis_gcc.h ****      (defined (__ARM_ARCH_8M_MAIN__) && (__ARM_ARCH_8M_MAIN__ == 1))    )
 599:C:/src/bakalarka_workspace/ETHCAT_FWUPDATE_SSC_APPLICATION_XMC48/Libraries/CMSIS/Include\cmsis_gcc.h **** /**
 600:C:/src/bakalarka_workspace/ETHCAT_FWUPDATE_SSC_APPLICATION_XMC48/Libraries/CMSIS/Include\cmsis_gcc.h ****   \brief   Get Process Stack Pointer Limit (non-secure)
 601:C:/src/bakalarka_workspace/ETHCAT_FWUPDATE_SSC_APPLICATION_XMC48/Libraries/CMSIS/Include\cmsis_gcc.h ****   \details Returns the current value of the non-secure Process Stack Pointer Limit (PSPLIM) when in
 602:C:/src/bakalarka_workspace/ETHCAT_FWUPDATE_SSC_APPLICATION_XMC48/Libraries/CMSIS/Include\cmsis_gcc.h ****   \return               PSPLIM Register value
 603:C:/src/bakalarka_workspace/ETHCAT_FWUPDATE_SSC_APPLICATION_XMC48/Libraries/CMSIS/Include\cmsis_gcc.h ****  */
 604:C:/src/bakalarka_workspace/ETHCAT_FWUPDATE_SSC_APPLICATION_XMC48/Libraries/CMSIS/Include\cmsis_gcc.h **** __STATIC_FORCEINLINE uint32_t __TZ_get_PSPLIM_NS(void)
 605:C:/src/bakalarka_workspace/ETHCAT_FWUPDATE_SSC_APPLICATION_XMC48/Libraries/CMSIS/Include\cmsis_gcc.h **** {
 606:C:/src/bakalarka_workspace/ETHCAT_FWUPDATE_SSC_APPLICATION_XMC48/Libraries/CMSIS/Include\cmsis_gcc.h ****   register uint32_t result;
 607:C:/src/bakalarka_workspace/ETHCAT_FWUPDATE_SSC_APPLICATION_XMC48/Libraries/CMSIS/Include\cmsis_gcc.h **** 
 608:C:/src/bakalarka_workspace/ETHCAT_FWUPDATE_SSC_APPLICATION_XMC48/Libraries/CMSIS/Include\cmsis_gcc.h ****   __ASM volatile ("MRS %0, psplim_ns"  : "=r" (result) );
 609:C:/src/bakalarka_workspace/ETHCAT_FWUPDATE_SSC_APPLICATION_XMC48/Libraries/CMSIS/Include\cmsis_gcc.h ****   return(result);
 610:C:/src/bakalarka_workspace/ETHCAT_FWUPDATE_SSC_APPLICATION_XMC48/Libraries/CMSIS/Include\cmsis_gcc.h **** }
 611:C:/src/bakalarka_workspace/ETHCAT_FWUPDATE_SSC_APPLICATION_XMC48/Libraries/CMSIS/Include\cmsis_gcc.h **** #endif
 612:C:/src/bakalarka_workspace/ETHCAT_FWUPDATE_SSC_APPLICATION_XMC48/Libraries/CMSIS/Include\cmsis_gcc.h **** 
 613:C:/src/bakalarka_workspace/ETHCAT_FWUPDATE_SSC_APPLICATION_XMC48/Libraries/CMSIS/Include\cmsis_gcc.h **** 
 614:C:/src/bakalarka_workspace/ETHCAT_FWUPDATE_SSC_APPLICATION_XMC48/Libraries/CMSIS/Include\cmsis_gcc.h **** /**
 615:C:/src/bakalarka_workspace/ETHCAT_FWUPDATE_SSC_APPLICATION_XMC48/Libraries/CMSIS/Include\cmsis_gcc.h ****   \brief   Set Process Stack Pointer Limit
 616:C:/src/bakalarka_workspace/ETHCAT_FWUPDATE_SSC_APPLICATION_XMC48/Libraries/CMSIS/Include\cmsis_gcc.h ****   \details Assigns the given value to the Process Stack Pointer Limit (PSPLIM).
 617:C:/src/bakalarka_workspace/ETHCAT_FWUPDATE_SSC_APPLICATION_XMC48/Libraries/CMSIS/Include\cmsis_gcc.h ****   \param [in]    ProcStackPtrLimit  Process Stack Pointer Limit value to set
 618:C:/src/bakalarka_workspace/ETHCAT_FWUPDATE_SSC_APPLICATION_XMC48/Libraries/CMSIS/Include\cmsis_gcc.h ****  */
 619:C:/src/bakalarka_workspace/ETHCAT_FWUPDATE_SSC_APPLICATION_XMC48/Libraries/CMSIS/Include\cmsis_gcc.h **** __STATIC_FORCEINLINE void __set_PSPLIM(uint32_t ProcStackPtrLimit)
 620:C:/src/bakalarka_workspace/ETHCAT_FWUPDATE_SSC_APPLICATION_XMC48/Libraries/CMSIS/Include\cmsis_gcc.h **** {
 621:C:/src/bakalarka_workspace/ETHCAT_FWUPDATE_SSC_APPLICATION_XMC48/Libraries/CMSIS/Include\cmsis_gcc.h ****   __ASM volatile ("MSR psplim, %0" : : "r" (ProcStackPtrLimit));
 622:C:/src/bakalarka_workspace/ETHCAT_FWUPDATE_SSC_APPLICATION_XMC48/Libraries/CMSIS/Include\cmsis_gcc.h **** }
 623:C:/src/bakalarka_workspace/ETHCAT_FWUPDATE_SSC_APPLICATION_XMC48/Libraries/CMSIS/Include\cmsis_gcc.h **** 
 624:C:/src/bakalarka_workspace/ETHCAT_FWUPDATE_SSC_APPLICATION_XMC48/Libraries/CMSIS/Include\cmsis_gcc.h **** 
 625:C:/src/bakalarka_workspace/ETHCAT_FWUPDATE_SSC_APPLICATION_XMC48/Libraries/CMSIS/Include\cmsis_gcc.h **** #if ((defined (__ARM_FEATURE_CMSE  ) && (__ARM_FEATURE_CMSE   == 3)) && \
 626:C:/src/bakalarka_workspace/ETHCAT_FWUPDATE_SSC_APPLICATION_XMC48/Libraries/CMSIS/Include\cmsis_gcc.h ****      (defined (__ARM_ARCH_8M_MAIN__) && (__ARM_ARCH_8M_MAIN__ == 1))    )
 627:C:/src/bakalarka_workspace/ETHCAT_FWUPDATE_SSC_APPLICATION_XMC48/Libraries/CMSIS/Include\cmsis_gcc.h **** /**
 628:C:/src/bakalarka_workspace/ETHCAT_FWUPDATE_SSC_APPLICATION_XMC48/Libraries/CMSIS/Include\cmsis_gcc.h ****   \brief   Set Process Stack Pointer (non-secure)
 629:C:/src/bakalarka_workspace/ETHCAT_FWUPDATE_SSC_APPLICATION_XMC48/Libraries/CMSIS/Include\cmsis_gcc.h ****   \details Assigns the given value to the non-secure Process Stack Pointer Limit (PSPLIM) when in s
 630:C:/src/bakalarka_workspace/ETHCAT_FWUPDATE_SSC_APPLICATION_XMC48/Libraries/CMSIS/Include\cmsis_gcc.h ****   \param [in]    ProcStackPtrLimit  Process Stack Pointer Limit value to set
 631:C:/src/bakalarka_workspace/ETHCAT_FWUPDATE_SSC_APPLICATION_XMC48/Libraries/CMSIS/Include\cmsis_gcc.h ****  */
 632:C:/src/bakalarka_workspace/ETHCAT_FWUPDATE_SSC_APPLICATION_XMC48/Libraries/CMSIS/Include\cmsis_gcc.h **** __STATIC_FORCEINLINE void __TZ_set_PSPLIM_NS(uint32_t ProcStackPtrLimit)
 633:C:/src/bakalarka_workspace/ETHCAT_FWUPDATE_SSC_APPLICATION_XMC48/Libraries/CMSIS/Include\cmsis_gcc.h **** {
 634:C:/src/bakalarka_workspace/ETHCAT_FWUPDATE_SSC_APPLICATION_XMC48/Libraries/CMSIS/Include\cmsis_gcc.h ****   __ASM volatile ("MSR psplim_ns, %0\n" : : "r" (ProcStackPtrLimit));
 635:C:/src/bakalarka_workspace/ETHCAT_FWUPDATE_SSC_APPLICATION_XMC48/Libraries/CMSIS/Include\cmsis_gcc.h **** }
 636:C:/src/bakalarka_workspace/ETHCAT_FWUPDATE_SSC_APPLICATION_XMC48/Libraries/CMSIS/Include\cmsis_gcc.h **** #endif
 637:C:/src/bakalarka_workspace/ETHCAT_FWUPDATE_SSC_APPLICATION_XMC48/Libraries/CMSIS/Include\cmsis_gcc.h **** 
 638:C:/src/bakalarka_workspace/ETHCAT_FWUPDATE_SSC_APPLICATION_XMC48/Libraries/CMSIS/Include\cmsis_gcc.h **** 
 639:C:/src/bakalarka_workspace/ETHCAT_FWUPDATE_SSC_APPLICATION_XMC48/Libraries/CMSIS/Include\cmsis_gcc.h **** /**
 640:C:/src/bakalarka_workspace/ETHCAT_FWUPDATE_SSC_APPLICATION_XMC48/Libraries/CMSIS/Include\cmsis_gcc.h ****   \brief   Get Main Stack Pointer Limit
 641:C:/src/bakalarka_workspace/ETHCAT_FWUPDATE_SSC_APPLICATION_XMC48/Libraries/CMSIS/Include\cmsis_gcc.h ****   \details Returns the current value of the Main Stack Pointer Limit (MSPLIM).
 642:C:/src/bakalarka_workspace/ETHCAT_FWUPDATE_SSC_APPLICATION_XMC48/Libraries/CMSIS/Include\cmsis_gcc.h ****   \return               MSPLIM Register value
 643:C:/src/bakalarka_workspace/ETHCAT_FWUPDATE_SSC_APPLICATION_XMC48/Libraries/CMSIS/Include\cmsis_gcc.h ****  */
 644:C:/src/bakalarka_workspace/ETHCAT_FWUPDATE_SSC_APPLICATION_XMC48/Libraries/CMSIS/Include\cmsis_gcc.h **** __STATIC_FORCEINLINE uint32_t __get_MSPLIM(void)
 645:C:/src/bakalarka_workspace/ETHCAT_FWUPDATE_SSC_APPLICATION_XMC48/Libraries/CMSIS/Include\cmsis_gcc.h **** {
 646:C:/src/bakalarka_workspace/ETHCAT_FWUPDATE_SSC_APPLICATION_XMC48/Libraries/CMSIS/Include\cmsis_gcc.h ****   register uint32_t result;
 647:C:/src/bakalarka_workspace/ETHCAT_FWUPDATE_SSC_APPLICATION_XMC48/Libraries/CMSIS/Include\cmsis_gcc.h **** 
 648:C:/src/bakalarka_workspace/ETHCAT_FWUPDATE_SSC_APPLICATION_XMC48/Libraries/CMSIS/Include\cmsis_gcc.h ****   __ASM volatile ("MRS %0, msplim" : "=r" (result) );
 649:C:/src/bakalarka_workspace/ETHCAT_FWUPDATE_SSC_APPLICATION_XMC48/Libraries/CMSIS/Include\cmsis_gcc.h **** 
 650:C:/src/bakalarka_workspace/ETHCAT_FWUPDATE_SSC_APPLICATION_XMC48/Libraries/CMSIS/Include\cmsis_gcc.h ****   return(result);
 651:C:/src/bakalarka_workspace/ETHCAT_FWUPDATE_SSC_APPLICATION_XMC48/Libraries/CMSIS/Include\cmsis_gcc.h **** }
 652:C:/src/bakalarka_workspace/ETHCAT_FWUPDATE_SSC_APPLICATION_XMC48/Libraries/CMSIS/Include\cmsis_gcc.h **** 
 653:C:/src/bakalarka_workspace/ETHCAT_FWUPDATE_SSC_APPLICATION_XMC48/Libraries/CMSIS/Include\cmsis_gcc.h **** 
 654:C:/src/bakalarka_workspace/ETHCAT_FWUPDATE_SSC_APPLICATION_XMC48/Libraries/CMSIS/Include\cmsis_gcc.h **** #if ((defined (__ARM_FEATURE_CMSE  ) && (__ARM_FEATURE_CMSE   == 3)) && \
 655:C:/src/bakalarka_workspace/ETHCAT_FWUPDATE_SSC_APPLICATION_XMC48/Libraries/CMSIS/Include\cmsis_gcc.h ****      (defined (__ARM_ARCH_8M_MAIN__) && (__ARM_ARCH_8M_MAIN__ == 1))    )
 656:C:/src/bakalarka_workspace/ETHCAT_FWUPDATE_SSC_APPLICATION_XMC48/Libraries/CMSIS/Include\cmsis_gcc.h **** /**
 657:C:/src/bakalarka_workspace/ETHCAT_FWUPDATE_SSC_APPLICATION_XMC48/Libraries/CMSIS/Include\cmsis_gcc.h ****   \brief   Get Main Stack Pointer Limit (non-secure)
 658:C:/src/bakalarka_workspace/ETHCAT_FWUPDATE_SSC_APPLICATION_XMC48/Libraries/CMSIS/Include\cmsis_gcc.h ****   \details Returns the current value of the non-secure Main Stack Pointer Limit(MSPLIM) when in sec
 659:C:/src/bakalarka_workspace/ETHCAT_FWUPDATE_SSC_APPLICATION_XMC48/Libraries/CMSIS/Include\cmsis_gcc.h ****   \return               MSPLIM Register value
 660:C:/src/bakalarka_workspace/ETHCAT_FWUPDATE_SSC_APPLICATION_XMC48/Libraries/CMSIS/Include\cmsis_gcc.h ****  */
 661:C:/src/bakalarka_workspace/ETHCAT_FWUPDATE_SSC_APPLICATION_XMC48/Libraries/CMSIS/Include\cmsis_gcc.h **** __STATIC_FORCEINLINE uint32_t __TZ_get_MSPLIM_NS(void)
 662:C:/src/bakalarka_workspace/ETHCAT_FWUPDATE_SSC_APPLICATION_XMC48/Libraries/CMSIS/Include\cmsis_gcc.h **** {
 663:C:/src/bakalarka_workspace/ETHCAT_FWUPDATE_SSC_APPLICATION_XMC48/Libraries/CMSIS/Include\cmsis_gcc.h ****   register uint32_t result;
 664:C:/src/bakalarka_workspace/ETHCAT_FWUPDATE_SSC_APPLICATION_XMC48/Libraries/CMSIS/Include\cmsis_gcc.h **** 
 665:C:/src/bakalarka_workspace/ETHCAT_FWUPDATE_SSC_APPLICATION_XMC48/Libraries/CMSIS/Include\cmsis_gcc.h ****   __ASM volatile ("MRS %0, msplim_ns" : "=r" (result) );
 666:C:/src/bakalarka_workspace/ETHCAT_FWUPDATE_SSC_APPLICATION_XMC48/Libraries/CMSIS/Include\cmsis_gcc.h ****   return(result);
 667:C:/src/bakalarka_workspace/ETHCAT_FWUPDATE_SSC_APPLICATION_XMC48/Libraries/CMSIS/Include\cmsis_gcc.h **** }
 668:C:/src/bakalarka_workspace/ETHCAT_FWUPDATE_SSC_APPLICATION_XMC48/Libraries/CMSIS/Include\cmsis_gcc.h **** #endif
 669:C:/src/bakalarka_workspace/ETHCAT_FWUPDATE_SSC_APPLICATION_XMC48/Libraries/CMSIS/Include\cmsis_gcc.h **** 
 670:C:/src/bakalarka_workspace/ETHCAT_FWUPDATE_SSC_APPLICATION_XMC48/Libraries/CMSIS/Include\cmsis_gcc.h **** 
 671:C:/src/bakalarka_workspace/ETHCAT_FWUPDATE_SSC_APPLICATION_XMC48/Libraries/CMSIS/Include\cmsis_gcc.h **** /**
 672:C:/src/bakalarka_workspace/ETHCAT_FWUPDATE_SSC_APPLICATION_XMC48/Libraries/CMSIS/Include\cmsis_gcc.h ****   \brief   Set Main Stack Pointer Limit
 673:C:/src/bakalarka_workspace/ETHCAT_FWUPDATE_SSC_APPLICATION_XMC48/Libraries/CMSIS/Include\cmsis_gcc.h ****   \details Assigns the given value to the Main Stack Pointer Limit (MSPLIM).
 674:C:/src/bakalarka_workspace/ETHCAT_FWUPDATE_SSC_APPLICATION_XMC48/Libraries/CMSIS/Include\cmsis_gcc.h ****   \param [in]    MainStackPtrLimit  Main Stack Pointer Limit value to set
 675:C:/src/bakalarka_workspace/ETHCAT_FWUPDATE_SSC_APPLICATION_XMC48/Libraries/CMSIS/Include\cmsis_gcc.h ****  */
 676:C:/src/bakalarka_workspace/ETHCAT_FWUPDATE_SSC_APPLICATION_XMC48/Libraries/CMSIS/Include\cmsis_gcc.h **** __STATIC_FORCEINLINE void __set_MSPLIM(uint32_t MainStackPtrLimit)
 677:C:/src/bakalarka_workspace/ETHCAT_FWUPDATE_SSC_APPLICATION_XMC48/Libraries/CMSIS/Include\cmsis_gcc.h **** {
 678:C:/src/bakalarka_workspace/ETHCAT_FWUPDATE_SSC_APPLICATION_XMC48/Libraries/CMSIS/Include\cmsis_gcc.h ****   __ASM volatile ("MSR msplim, %0" : : "r" (MainStackPtrLimit));
 679:C:/src/bakalarka_workspace/ETHCAT_FWUPDATE_SSC_APPLICATION_XMC48/Libraries/CMSIS/Include\cmsis_gcc.h **** }
 680:C:/src/bakalarka_workspace/ETHCAT_FWUPDATE_SSC_APPLICATION_XMC48/Libraries/CMSIS/Include\cmsis_gcc.h **** 
 681:C:/src/bakalarka_workspace/ETHCAT_FWUPDATE_SSC_APPLICATION_XMC48/Libraries/CMSIS/Include\cmsis_gcc.h **** 
 682:C:/src/bakalarka_workspace/ETHCAT_FWUPDATE_SSC_APPLICATION_XMC48/Libraries/CMSIS/Include\cmsis_gcc.h **** #if ((defined (__ARM_FEATURE_CMSE  ) && (__ARM_FEATURE_CMSE   == 3)) && \
 683:C:/src/bakalarka_workspace/ETHCAT_FWUPDATE_SSC_APPLICATION_XMC48/Libraries/CMSIS/Include\cmsis_gcc.h ****      (defined (__ARM_ARCH_8M_MAIN__) && (__ARM_ARCH_8M_MAIN__ == 1))    )
 684:C:/src/bakalarka_workspace/ETHCAT_FWUPDATE_SSC_APPLICATION_XMC48/Libraries/CMSIS/Include\cmsis_gcc.h **** /**
 685:C:/src/bakalarka_workspace/ETHCAT_FWUPDATE_SSC_APPLICATION_XMC48/Libraries/CMSIS/Include\cmsis_gcc.h ****   \brief   Set Main Stack Pointer Limit (non-secure)
 686:C:/src/bakalarka_workspace/ETHCAT_FWUPDATE_SSC_APPLICATION_XMC48/Libraries/CMSIS/Include\cmsis_gcc.h ****   \details Assigns the given value to the non-secure Main Stack Pointer Limit (MSPLIM) when in secu
 687:C:/src/bakalarka_workspace/ETHCAT_FWUPDATE_SSC_APPLICATION_XMC48/Libraries/CMSIS/Include\cmsis_gcc.h ****   \param [in]    MainStackPtrLimit  Main Stack Pointer value to set
 688:C:/src/bakalarka_workspace/ETHCAT_FWUPDATE_SSC_APPLICATION_XMC48/Libraries/CMSIS/Include\cmsis_gcc.h ****  */
 689:C:/src/bakalarka_workspace/ETHCAT_FWUPDATE_SSC_APPLICATION_XMC48/Libraries/CMSIS/Include\cmsis_gcc.h **** __STATIC_FORCEINLINE void __TZ_set_MSPLIM_NS(uint32_t MainStackPtrLimit)
 690:C:/src/bakalarka_workspace/ETHCAT_FWUPDATE_SSC_APPLICATION_XMC48/Libraries/CMSIS/Include\cmsis_gcc.h **** {
 691:C:/src/bakalarka_workspace/ETHCAT_FWUPDATE_SSC_APPLICATION_XMC48/Libraries/CMSIS/Include\cmsis_gcc.h ****   __ASM volatile ("MSR msplim_ns, %0" : : "r" (MainStackPtrLimit));
 692:C:/src/bakalarka_workspace/ETHCAT_FWUPDATE_SSC_APPLICATION_XMC48/Libraries/CMSIS/Include\cmsis_gcc.h **** }
 693:C:/src/bakalarka_workspace/ETHCAT_FWUPDATE_SSC_APPLICATION_XMC48/Libraries/CMSIS/Include\cmsis_gcc.h **** #endif
 694:C:/src/bakalarka_workspace/ETHCAT_FWUPDATE_SSC_APPLICATION_XMC48/Libraries/CMSIS/Include\cmsis_gcc.h **** 
 695:C:/src/bakalarka_workspace/ETHCAT_FWUPDATE_SSC_APPLICATION_XMC48/Libraries/CMSIS/Include\cmsis_gcc.h **** #endif /* ((defined (__ARM_ARCH_8M_MAIN__ ) && (__ARM_ARCH_8M_MAIN__ == 1)) || \
 696:C:/src/bakalarka_workspace/ETHCAT_FWUPDATE_SSC_APPLICATION_XMC48/Libraries/CMSIS/Include\cmsis_gcc.h ****            (defined (__ARM_ARCH_8M_BASE__ ) && (__ARM_ARCH_8M_BASE__ == 1))    ) */
 697:C:/src/bakalarka_workspace/ETHCAT_FWUPDATE_SSC_APPLICATION_XMC48/Libraries/CMSIS/Include\cmsis_gcc.h **** 
 698:C:/src/bakalarka_workspace/ETHCAT_FWUPDATE_SSC_APPLICATION_XMC48/Libraries/CMSIS/Include\cmsis_gcc.h **** 
 699:C:/src/bakalarka_workspace/ETHCAT_FWUPDATE_SSC_APPLICATION_XMC48/Libraries/CMSIS/Include\cmsis_gcc.h **** #if ((defined (__ARM_ARCH_7EM__     ) && (__ARM_ARCH_7EM__     == 1)) || \
 700:C:/src/bakalarka_workspace/ETHCAT_FWUPDATE_SSC_APPLICATION_XMC48/Libraries/CMSIS/Include\cmsis_gcc.h ****      (defined (__ARM_ARCH_8M_MAIN__ ) && (__ARM_ARCH_8M_MAIN__ == 1))    )
 701:C:/src/bakalarka_workspace/ETHCAT_FWUPDATE_SSC_APPLICATION_XMC48/Libraries/CMSIS/Include\cmsis_gcc.h **** 
 702:C:/src/bakalarka_workspace/ETHCAT_FWUPDATE_SSC_APPLICATION_XMC48/Libraries/CMSIS/Include\cmsis_gcc.h **** /**
 703:C:/src/bakalarka_workspace/ETHCAT_FWUPDATE_SSC_APPLICATION_XMC48/Libraries/CMSIS/Include\cmsis_gcc.h ****   \brief   Get FPSCR
 704:C:/src/bakalarka_workspace/ETHCAT_FWUPDATE_SSC_APPLICATION_XMC48/Libraries/CMSIS/Include\cmsis_gcc.h ****   \details Returns the current value of the Floating Point Status/Control register.
 705:C:/src/bakalarka_workspace/ETHCAT_FWUPDATE_SSC_APPLICATION_XMC48/Libraries/CMSIS/Include\cmsis_gcc.h ****   \return               Floating Point Status/Control register value
 706:C:/src/bakalarka_workspace/ETHCAT_FWUPDATE_SSC_APPLICATION_XMC48/Libraries/CMSIS/Include\cmsis_gcc.h ****  */
 707:C:/src/bakalarka_workspace/ETHCAT_FWUPDATE_SSC_APPLICATION_XMC48/Libraries/CMSIS/Include\cmsis_gcc.h **** __STATIC_FORCEINLINE uint32_t __get_FPSCR(void)
 708:C:/src/bakalarka_workspace/ETHCAT_FWUPDATE_SSC_APPLICATION_XMC48/Libraries/CMSIS/Include\cmsis_gcc.h **** {
 709:C:/src/bakalarka_workspace/ETHCAT_FWUPDATE_SSC_APPLICATION_XMC48/Libraries/CMSIS/Include\cmsis_gcc.h **** #if ((defined (__FPU_PRESENT) && (__FPU_PRESENT == 1U)) && \
 710:C:/src/bakalarka_workspace/ETHCAT_FWUPDATE_SSC_APPLICATION_XMC48/Libraries/CMSIS/Include\cmsis_gcc.h ****      (defined (__FPU_USED   ) && (__FPU_USED    == 1U))     )
 711:C:/src/bakalarka_workspace/ETHCAT_FWUPDATE_SSC_APPLICATION_XMC48/Libraries/CMSIS/Include\cmsis_gcc.h **** #if __has_builtin(__builtin_arm_get_fpscr) || (__GNUC__ > 7) || (__GNUC__ == 7 && __GNUC_MINOR__ >=
 712:C:/src/bakalarka_workspace/ETHCAT_FWUPDATE_SSC_APPLICATION_XMC48/Libraries/CMSIS/Include\cmsis_gcc.h ****   /* see https://gcc.gnu.org/ml/gcc-patches/2017-04/msg00443.html */
 713:C:/src/bakalarka_workspace/ETHCAT_FWUPDATE_SSC_APPLICATION_XMC48/Libraries/CMSIS/Include\cmsis_gcc.h ****   return __builtin_arm_get_fpscr();
 714:C:/src/bakalarka_workspace/ETHCAT_FWUPDATE_SSC_APPLICATION_XMC48/Libraries/CMSIS/Include\cmsis_gcc.h **** #else
 715:C:/src/bakalarka_workspace/ETHCAT_FWUPDATE_SSC_APPLICATION_XMC48/Libraries/CMSIS/Include\cmsis_gcc.h ****   uint32_t result;
 716:C:/src/bakalarka_workspace/ETHCAT_FWUPDATE_SSC_APPLICATION_XMC48/Libraries/CMSIS/Include\cmsis_gcc.h **** 
 717:C:/src/bakalarka_workspace/ETHCAT_FWUPDATE_SSC_APPLICATION_XMC48/Libraries/CMSIS/Include\cmsis_gcc.h ****   __ASM volatile ("VMRS %0, fpscr" : "=r" (result) );
 718:C:/src/bakalarka_workspace/ETHCAT_FWUPDATE_SSC_APPLICATION_XMC48/Libraries/CMSIS/Include\cmsis_gcc.h ****   return(result);
 719:C:/src/bakalarka_workspace/ETHCAT_FWUPDATE_SSC_APPLICATION_XMC48/Libraries/CMSIS/Include\cmsis_gcc.h **** #endif
 720:C:/src/bakalarka_workspace/ETHCAT_FWUPDATE_SSC_APPLICATION_XMC48/Libraries/CMSIS/Include\cmsis_gcc.h **** #else
 721:C:/src/bakalarka_workspace/ETHCAT_FWUPDATE_SSC_APPLICATION_XMC48/Libraries/CMSIS/Include\cmsis_gcc.h ****   return(0U);
 722:C:/src/bakalarka_workspace/ETHCAT_FWUPDATE_SSC_APPLICATION_XMC48/Libraries/CMSIS/Include\cmsis_gcc.h **** #endif
 723:C:/src/bakalarka_workspace/ETHCAT_FWUPDATE_SSC_APPLICATION_XMC48/Libraries/CMSIS/Include\cmsis_gcc.h **** }
 724:C:/src/bakalarka_workspace/ETHCAT_FWUPDATE_SSC_APPLICATION_XMC48/Libraries/CMSIS/Include\cmsis_gcc.h **** 
 725:C:/src/bakalarka_workspace/ETHCAT_FWUPDATE_SSC_APPLICATION_XMC48/Libraries/CMSIS/Include\cmsis_gcc.h **** 
 726:C:/src/bakalarka_workspace/ETHCAT_FWUPDATE_SSC_APPLICATION_XMC48/Libraries/CMSIS/Include\cmsis_gcc.h **** /**
 727:C:/src/bakalarka_workspace/ETHCAT_FWUPDATE_SSC_APPLICATION_XMC48/Libraries/CMSIS/Include\cmsis_gcc.h ****   \brief   Set FPSCR
 728:C:/src/bakalarka_workspace/ETHCAT_FWUPDATE_SSC_APPLICATION_XMC48/Libraries/CMSIS/Include\cmsis_gcc.h ****   \details Assigns the given value to the Floating Point Status/Control register.
 729:C:/src/bakalarka_workspace/ETHCAT_FWUPDATE_SSC_APPLICATION_XMC48/Libraries/CMSIS/Include\cmsis_gcc.h ****   \param [in]    fpscr  Floating Point Status/Control value to set
 730:C:/src/bakalarka_workspace/ETHCAT_FWUPDATE_SSC_APPLICATION_XMC48/Libraries/CMSIS/Include\cmsis_gcc.h ****  */
 731:C:/src/bakalarka_workspace/ETHCAT_FWUPDATE_SSC_APPLICATION_XMC48/Libraries/CMSIS/Include\cmsis_gcc.h **** __STATIC_FORCEINLINE void __set_FPSCR(uint32_t fpscr)
 732:C:/src/bakalarka_workspace/ETHCAT_FWUPDATE_SSC_APPLICATION_XMC48/Libraries/CMSIS/Include\cmsis_gcc.h **** {
 733:C:/src/bakalarka_workspace/ETHCAT_FWUPDATE_SSC_APPLICATION_XMC48/Libraries/CMSIS/Include\cmsis_gcc.h **** #if ((defined (__FPU_PRESENT) && (__FPU_PRESENT == 1U)) && \
 734:C:/src/bakalarka_workspace/ETHCAT_FWUPDATE_SSC_APPLICATION_XMC48/Libraries/CMSIS/Include\cmsis_gcc.h ****      (defined (__FPU_USED   ) && (__FPU_USED    == 1U))     )
 735:C:/src/bakalarka_workspace/ETHCAT_FWUPDATE_SSC_APPLICATION_XMC48/Libraries/CMSIS/Include\cmsis_gcc.h **** #if __has_builtin(__builtin_arm_set_fpscr) || (__GNUC__ > 7) || (__GNUC__ == 7 && __GNUC_MINOR__ >=
 736:C:/src/bakalarka_workspace/ETHCAT_FWUPDATE_SSC_APPLICATION_XMC48/Libraries/CMSIS/Include\cmsis_gcc.h ****   /* see https://gcc.gnu.org/ml/gcc-patches/2017-04/msg00443.html */
 737:C:/src/bakalarka_workspace/ETHCAT_FWUPDATE_SSC_APPLICATION_XMC48/Libraries/CMSIS/Include\cmsis_gcc.h ****   __builtin_arm_set_fpscr(fpscr);
 738:C:/src/bakalarka_workspace/ETHCAT_FWUPDATE_SSC_APPLICATION_XMC48/Libraries/CMSIS/Include\cmsis_gcc.h **** #else
 739:C:/src/bakalarka_workspace/ETHCAT_FWUPDATE_SSC_APPLICATION_XMC48/Libraries/CMSIS/Include\cmsis_gcc.h ****   __ASM volatile ("VMSR fpscr, %0" : : "r" (fpscr) : "vfpcc", "memory");
 740:C:/src/bakalarka_workspace/ETHCAT_FWUPDATE_SSC_APPLICATION_XMC48/Libraries/CMSIS/Include\cmsis_gcc.h **** #endif
 741:C:/src/bakalarka_workspace/ETHCAT_FWUPDATE_SSC_APPLICATION_XMC48/Libraries/CMSIS/Include\cmsis_gcc.h **** #else
 742:C:/src/bakalarka_workspace/ETHCAT_FWUPDATE_SSC_APPLICATION_XMC48/Libraries/CMSIS/Include\cmsis_gcc.h ****   (void)fpscr;
 743:C:/src/bakalarka_workspace/ETHCAT_FWUPDATE_SSC_APPLICATION_XMC48/Libraries/CMSIS/Include\cmsis_gcc.h **** #endif
 744:C:/src/bakalarka_workspace/ETHCAT_FWUPDATE_SSC_APPLICATION_XMC48/Libraries/CMSIS/Include\cmsis_gcc.h **** }
 745:C:/src/bakalarka_workspace/ETHCAT_FWUPDATE_SSC_APPLICATION_XMC48/Libraries/CMSIS/Include\cmsis_gcc.h **** 
 746:C:/src/bakalarka_workspace/ETHCAT_FWUPDATE_SSC_APPLICATION_XMC48/Libraries/CMSIS/Include\cmsis_gcc.h **** #endif /* ((defined (__ARM_ARCH_7EM__     ) && (__ARM_ARCH_7EM__     == 1)) || \
 747:C:/src/bakalarka_workspace/ETHCAT_FWUPDATE_SSC_APPLICATION_XMC48/Libraries/CMSIS/Include\cmsis_gcc.h ****            (defined (__ARM_ARCH_8M_MAIN__ ) && (__ARM_ARCH_8M_MAIN__ == 1))    ) */
 748:C:/src/bakalarka_workspace/ETHCAT_FWUPDATE_SSC_APPLICATION_XMC48/Libraries/CMSIS/Include\cmsis_gcc.h **** 
 749:C:/src/bakalarka_workspace/ETHCAT_FWUPDATE_SSC_APPLICATION_XMC48/Libraries/CMSIS/Include\cmsis_gcc.h **** 
 750:C:/src/bakalarka_workspace/ETHCAT_FWUPDATE_SSC_APPLICATION_XMC48/Libraries/CMSIS/Include\cmsis_gcc.h **** 
 751:C:/src/bakalarka_workspace/ETHCAT_FWUPDATE_SSC_APPLICATION_XMC48/Libraries/CMSIS/Include\cmsis_gcc.h **** /*@} end of CMSIS_Core_RegAccFunctions */
 752:C:/src/bakalarka_workspace/ETHCAT_FWUPDATE_SSC_APPLICATION_XMC48/Libraries/CMSIS/Include\cmsis_gcc.h **** 
 753:C:/src/bakalarka_workspace/ETHCAT_FWUPDATE_SSC_APPLICATION_XMC48/Libraries/CMSIS/Include\cmsis_gcc.h **** 
 754:C:/src/bakalarka_workspace/ETHCAT_FWUPDATE_SSC_APPLICATION_XMC48/Libraries/CMSIS/Include\cmsis_gcc.h **** /* ##########################  Core Instruction Access  ######################### */
 755:C:/src/bakalarka_workspace/ETHCAT_FWUPDATE_SSC_APPLICATION_XMC48/Libraries/CMSIS/Include\cmsis_gcc.h **** /** \defgroup CMSIS_Core_InstructionInterface CMSIS Core Instruction Interface
 756:C:/src/bakalarka_workspace/ETHCAT_FWUPDATE_SSC_APPLICATION_XMC48/Libraries/CMSIS/Include\cmsis_gcc.h ****   Access to dedicated instructions
 757:C:/src/bakalarka_workspace/ETHCAT_FWUPDATE_SSC_APPLICATION_XMC48/Libraries/CMSIS/Include\cmsis_gcc.h ****   @{
 758:C:/src/bakalarka_workspace/ETHCAT_FWUPDATE_SSC_APPLICATION_XMC48/Libraries/CMSIS/Include\cmsis_gcc.h **** */
 759:C:/src/bakalarka_workspace/ETHCAT_FWUPDATE_SSC_APPLICATION_XMC48/Libraries/CMSIS/Include\cmsis_gcc.h **** 
 760:C:/src/bakalarka_workspace/ETHCAT_FWUPDATE_SSC_APPLICATION_XMC48/Libraries/CMSIS/Include\cmsis_gcc.h **** /* Define macros for porting to both thumb1 and thumb2.
 761:C:/src/bakalarka_workspace/ETHCAT_FWUPDATE_SSC_APPLICATION_XMC48/Libraries/CMSIS/Include\cmsis_gcc.h ****  * For thumb1, use low register (r0-r7), specified by constraint "l"
 762:C:/src/bakalarka_workspace/ETHCAT_FWUPDATE_SSC_APPLICATION_XMC48/Libraries/CMSIS/Include\cmsis_gcc.h ****  * Otherwise, use general registers, specified by constraint "r" */
 763:C:/src/bakalarka_workspace/ETHCAT_FWUPDATE_SSC_APPLICATION_XMC48/Libraries/CMSIS/Include\cmsis_gcc.h **** #if defined (__thumb__) && !defined (__thumb2__)
 764:C:/src/bakalarka_workspace/ETHCAT_FWUPDATE_SSC_APPLICATION_XMC48/Libraries/CMSIS/Include\cmsis_gcc.h **** #define __CMSIS_GCC_OUT_REG(r) "=l" (r)
 765:C:/src/bakalarka_workspace/ETHCAT_FWUPDATE_SSC_APPLICATION_XMC48/Libraries/CMSIS/Include\cmsis_gcc.h **** #define __CMSIS_GCC_RW_REG(r) "+l" (r)
 766:C:/src/bakalarka_workspace/ETHCAT_FWUPDATE_SSC_APPLICATION_XMC48/Libraries/CMSIS/Include\cmsis_gcc.h **** #define __CMSIS_GCC_USE_REG(r) "l" (r)
 767:C:/src/bakalarka_workspace/ETHCAT_FWUPDATE_SSC_APPLICATION_XMC48/Libraries/CMSIS/Include\cmsis_gcc.h **** #else
 768:C:/src/bakalarka_workspace/ETHCAT_FWUPDATE_SSC_APPLICATION_XMC48/Libraries/CMSIS/Include\cmsis_gcc.h **** #define __CMSIS_GCC_OUT_REG(r) "=r" (r)
 769:C:/src/bakalarka_workspace/ETHCAT_FWUPDATE_SSC_APPLICATION_XMC48/Libraries/CMSIS/Include\cmsis_gcc.h **** #define __CMSIS_GCC_RW_REG(r) "+r" (r)
 770:C:/src/bakalarka_workspace/ETHCAT_FWUPDATE_SSC_APPLICATION_XMC48/Libraries/CMSIS/Include\cmsis_gcc.h **** #define __CMSIS_GCC_USE_REG(r) "r" (r)
 771:C:/src/bakalarka_workspace/ETHCAT_FWUPDATE_SSC_APPLICATION_XMC48/Libraries/CMSIS/Include\cmsis_gcc.h **** #endif
 772:C:/src/bakalarka_workspace/ETHCAT_FWUPDATE_SSC_APPLICATION_XMC48/Libraries/CMSIS/Include\cmsis_gcc.h **** 
 773:C:/src/bakalarka_workspace/ETHCAT_FWUPDATE_SSC_APPLICATION_XMC48/Libraries/CMSIS/Include\cmsis_gcc.h **** /**
 774:C:/src/bakalarka_workspace/ETHCAT_FWUPDATE_SSC_APPLICATION_XMC48/Libraries/CMSIS/Include\cmsis_gcc.h ****   \brief   No Operation
 775:C:/src/bakalarka_workspace/ETHCAT_FWUPDATE_SSC_APPLICATION_XMC48/Libraries/CMSIS/Include\cmsis_gcc.h ****   \details No Operation does nothing. This instruction can be used for code alignment purposes.
 776:C:/src/bakalarka_workspace/ETHCAT_FWUPDATE_SSC_APPLICATION_XMC48/Libraries/CMSIS/Include\cmsis_gcc.h ****  */
 777:C:/src/bakalarka_workspace/ETHCAT_FWUPDATE_SSC_APPLICATION_XMC48/Libraries/CMSIS/Include\cmsis_gcc.h **** #define __NOP()                             __ASM volatile ("nop")
 778:C:/src/bakalarka_workspace/ETHCAT_FWUPDATE_SSC_APPLICATION_XMC48/Libraries/CMSIS/Include\cmsis_gcc.h **** 
 779:C:/src/bakalarka_workspace/ETHCAT_FWUPDATE_SSC_APPLICATION_XMC48/Libraries/CMSIS/Include\cmsis_gcc.h **** /**
 780:C:/src/bakalarka_workspace/ETHCAT_FWUPDATE_SSC_APPLICATION_XMC48/Libraries/CMSIS/Include\cmsis_gcc.h ****   \brief   Wait For Interrupt
 781:C:/src/bakalarka_workspace/ETHCAT_FWUPDATE_SSC_APPLICATION_XMC48/Libraries/CMSIS/Include\cmsis_gcc.h ****   \details Wait For Interrupt is a hint instruction that suspends execution until one of a number o
 782:C:/src/bakalarka_workspace/ETHCAT_FWUPDATE_SSC_APPLICATION_XMC48/Libraries/CMSIS/Include\cmsis_gcc.h ****  */
 783:C:/src/bakalarka_workspace/ETHCAT_FWUPDATE_SSC_APPLICATION_XMC48/Libraries/CMSIS/Include\cmsis_gcc.h **** #define __WFI()                             __ASM volatile ("wfi")
 784:C:/src/bakalarka_workspace/ETHCAT_FWUPDATE_SSC_APPLICATION_XMC48/Libraries/CMSIS/Include\cmsis_gcc.h **** 
 785:C:/src/bakalarka_workspace/ETHCAT_FWUPDATE_SSC_APPLICATION_XMC48/Libraries/CMSIS/Include\cmsis_gcc.h **** 
 786:C:/src/bakalarka_workspace/ETHCAT_FWUPDATE_SSC_APPLICATION_XMC48/Libraries/CMSIS/Include\cmsis_gcc.h **** /**
 787:C:/src/bakalarka_workspace/ETHCAT_FWUPDATE_SSC_APPLICATION_XMC48/Libraries/CMSIS/Include\cmsis_gcc.h ****   \brief   Wait For Event
 788:C:/src/bakalarka_workspace/ETHCAT_FWUPDATE_SSC_APPLICATION_XMC48/Libraries/CMSIS/Include\cmsis_gcc.h ****   \details Wait For Event is a hint instruction that permits the processor to enter
 789:C:/src/bakalarka_workspace/ETHCAT_FWUPDATE_SSC_APPLICATION_XMC48/Libraries/CMSIS/Include\cmsis_gcc.h ****            a low-power state until one of a number of events occurs.
 790:C:/src/bakalarka_workspace/ETHCAT_FWUPDATE_SSC_APPLICATION_XMC48/Libraries/CMSIS/Include\cmsis_gcc.h ****  */
 791:C:/src/bakalarka_workspace/ETHCAT_FWUPDATE_SSC_APPLICATION_XMC48/Libraries/CMSIS/Include\cmsis_gcc.h **** #define __WFE()                             __ASM volatile ("wfe")
 792:C:/src/bakalarka_workspace/ETHCAT_FWUPDATE_SSC_APPLICATION_XMC48/Libraries/CMSIS/Include\cmsis_gcc.h **** 
 793:C:/src/bakalarka_workspace/ETHCAT_FWUPDATE_SSC_APPLICATION_XMC48/Libraries/CMSIS/Include\cmsis_gcc.h **** 
 794:C:/src/bakalarka_workspace/ETHCAT_FWUPDATE_SSC_APPLICATION_XMC48/Libraries/CMSIS/Include\cmsis_gcc.h **** /**
 795:C:/src/bakalarka_workspace/ETHCAT_FWUPDATE_SSC_APPLICATION_XMC48/Libraries/CMSIS/Include\cmsis_gcc.h ****   \brief   Send Event
 796:C:/src/bakalarka_workspace/ETHCAT_FWUPDATE_SSC_APPLICATION_XMC48/Libraries/CMSIS/Include\cmsis_gcc.h ****   \details Send Event is a hint instruction. It causes an event to be signaled to the CPU.
 797:C:/src/bakalarka_workspace/ETHCAT_FWUPDATE_SSC_APPLICATION_XMC48/Libraries/CMSIS/Include\cmsis_gcc.h ****  */
 798:C:/src/bakalarka_workspace/ETHCAT_FWUPDATE_SSC_APPLICATION_XMC48/Libraries/CMSIS/Include\cmsis_gcc.h **** #define __SEV()                             __ASM volatile ("sev")
 799:C:/src/bakalarka_workspace/ETHCAT_FWUPDATE_SSC_APPLICATION_XMC48/Libraries/CMSIS/Include\cmsis_gcc.h **** 
 800:C:/src/bakalarka_workspace/ETHCAT_FWUPDATE_SSC_APPLICATION_XMC48/Libraries/CMSIS/Include\cmsis_gcc.h **** 
 801:C:/src/bakalarka_workspace/ETHCAT_FWUPDATE_SSC_APPLICATION_XMC48/Libraries/CMSIS/Include\cmsis_gcc.h **** /**
 802:C:/src/bakalarka_workspace/ETHCAT_FWUPDATE_SSC_APPLICATION_XMC48/Libraries/CMSIS/Include\cmsis_gcc.h ****   \brief   Instruction Synchronization Barrier
 803:C:/src/bakalarka_workspace/ETHCAT_FWUPDATE_SSC_APPLICATION_XMC48/Libraries/CMSIS/Include\cmsis_gcc.h ****   \details Instruction Synchronization Barrier flushes the pipeline in the processor,
 804:C:/src/bakalarka_workspace/ETHCAT_FWUPDATE_SSC_APPLICATION_XMC48/Libraries/CMSIS/Include\cmsis_gcc.h ****            so that all instructions following the ISB are fetched from cache or memory,
 805:C:/src/bakalarka_workspace/ETHCAT_FWUPDATE_SSC_APPLICATION_XMC48/Libraries/CMSIS/Include\cmsis_gcc.h ****            after the instruction has been completed.
 806:C:/src/bakalarka_workspace/ETHCAT_FWUPDATE_SSC_APPLICATION_XMC48/Libraries/CMSIS/Include\cmsis_gcc.h ****  */
 807:C:/src/bakalarka_workspace/ETHCAT_FWUPDATE_SSC_APPLICATION_XMC48/Libraries/CMSIS/Include\cmsis_gcc.h **** __STATIC_FORCEINLINE void __ISB(void)
 808:C:/src/bakalarka_workspace/ETHCAT_FWUPDATE_SSC_APPLICATION_XMC48/Libraries/CMSIS/Include\cmsis_gcc.h **** {
 809:C:/src/bakalarka_workspace/ETHCAT_FWUPDATE_SSC_APPLICATION_XMC48/Libraries/CMSIS/Include\cmsis_gcc.h ****   __ASM volatile ("isb 0xF":::"memory");
 810:C:/src/bakalarka_workspace/ETHCAT_FWUPDATE_SSC_APPLICATION_XMC48/Libraries/CMSIS/Include\cmsis_gcc.h **** }
 811:C:/src/bakalarka_workspace/ETHCAT_FWUPDATE_SSC_APPLICATION_XMC48/Libraries/CMSIS/Include\cmsis_gcc.h **** 
 812:C:/src/bakalarka_workspace/ETHCAT_FWUPDATE_SSC_APPLICATION_XMC48/Libraries/CMSIS/Include\cmsis_gcc.h **** 
 813:C:/src/bakalarka_workspace/ETHCAT_FWUPDATE_SSC_APPLICATION_XMC48/Libraries/CMSIS/Include\cmsis_gcc.h **** /**
 814:C:/src/bakalarka_workspace/ETHCAT_FWUPDATE_SSC_APPLICATION_XMC48/Libraries/CMSIS/Include\cmsis_gcc.h ****   \brief   Data Synchronization Barrier
 815:C:/src/bakalarka_workspace/ETHCAT_FWUPDATE_SSC_APPLICATION_XMC48/Libraries/CMSIS/Include\cmsis_gcc.h ****   \details Acts as a special kind of Data Memory Barrier.
 816:C:/src/bakalarka_workspace/ETHCAT_FWUPDATE_SSC_APPLICATION_XMC48/Libraries/CMSIS/Include\cmsis_gcc.h ****            It completes when all explicit memory accesses before this instruction complete.
 817:C:/src/bakalarka_workspace/ETHCAT_FWUPDATE_SSC_APPLICATION_XMC48/Libraries/CMSIS/Include\cmsis_gcc.h ****  */
 818:C:/src/bakalarka_workspace/ETHCAT_FWUPDATE_SSC_APPLICATION_XMC48/Libraries/CMSIS/Include\cmsis_gcc.h **** __STATIC_FORCEINLINE void __DSB(void)
 819:C:/src/bakalarka_workspace/ETHCAT_FWUPDATE_SSC_APPLICATION_XMC48/Libraries/CMSIS/Include\cmsis_gcc.h **** {
 820:C:/src/bakalarka_workspace/ETHCAT_FWUPDATE_SSC_APPLICATION_XMC48/Libraries/CMSIS/Include\cmsis_gcc.h ****   __ASM volatile ("dsb 0xF":::"memory");
 172              	 .loc 2 820 0
 173              	
 174 000e BFF34F8F 	 dsb 0xF
 175              	
 176              	 .thumb
 177              	.LBE11:
 178              	.LBE10:
 179              	.LBB12:
 180              	.LBB13:
 131:C:/src/bakalarka_workspace/ETHCAT_FWUPDATE_SSC_APPLICATION_XMC48/Libraries/CMSIS/Include\cmsis_gcc.h **** }
 181              	 .loc 2 131 0
 182              	
 183 0012 62B6     	 cpsie i
 184              	
 185              	 .thumb
 186              	.LBE13:
 187              	.LBE12:
 418:../Startup/system_XMC4800.c ****   __DSB();
 419:../Startup/system_XMC4800.c ****   __enable_irq();
 420:../Startup/system_XMC4800.c **** 
 421:../Startup/system_XMC4800.c ****   /* __FPU_PRESENT = 1 defined in device header file */
 422:../Startup/system_XMC4800.c ****   /* __FPU_USED value depends on compiler/linker options. */
 423:../Startup/system_XMC4800.c ****   /* __FPU_USED = 0 if -mfloat-abi=soft is selected */
 424:../Startup/system_XMC4800.c ****   /* __FPU_USED = 1 if -mfloat-abi=softfp or mfloat-abi=hard */
 425:../Startup/system_XMC4800.c **** 
 426:../Startup/system_XMC4800.c **** #if ((__FPU_PRESENT == 1) && (__FPU_USED == 1))
 427:../Startup/system_XMC4800.c ****   SCB->CPACR |= ((3UL << 10*2) |                 /* set CP10 Full Access */
 188              	 .loc 1 427 0
 189 0014 134A     	 ldr r2,.L8
 190 0016 134B     	 ldr r3,.L8
 191 0018 D3F88830 	 ldr r3,[r3,#136]
 192 001c 43F47003 	 orr r3,r3,#15728640
 193 0020 C2F88830 	 str r3,[r2,#136]
 428:../Startup/system_XMC4800.c ****                  (3UL << 11*2)  );               /* set CP11 Full Access */
 429:../Startup/system_XMC4800.c **** #else
 430:../Startup/system_XMC4800.c ****   SCB->CPACR = 0;
 431:../Startup/system_XMC4800.c **** #endif
 432:../Startup/system_XMC4800.c **** 
 433:../Startup/system_XMC4800.c ****   /* Enable unaligned memory access - SCB_CCR.UNALIGN_TRP = 0 */
 434:../Startup/system_XMC4800.c ****   SCB->CCR &= ~(SCB_CCR_UNALIGN_TRP_Msk);
 194              	 .loc 1 434 0
 195 0024 0F4A     	 ldr r2,.L8
 196 0026 0F4B     	 ldr r3,.L8
 197 0028 5B69     	 ldr r3,[r3,#20]
 198 002a 23F00803 	 bic r3,r3,#8
 199 002e 5361     	 str r3,[r2,#20]
 435:../Startup/system_XMC4800.c **** 
 436:../Startup/system_XMC4800.c ****   temp = FLASH0->FCON;
 200              	 .loc 1 436 0
 201 0030 0E4B     	 ldr r3,.L8+8
 202 0032 03F58053 	 add r3,r3,#4096
 203 0036 1433     	 adds r3,r3,#20
 204 0038 1B68     	 ldr r3,[r3]
 205 003a 7B60     	 str r3,[r7,#4]
 437:../Startup/system_XMC4800.c ****   temp &= ~FLASH_FCON_WSPFLASH_Msk;
 206              	 .loc 1 437 0
 207 003c 7B68     	 ldr r3,[r7,#4]
 208 003e 23F00F03 	 bic r3,r3,#15
 209 0042 7B60     	 str r3,[r7,#4]
 438:../Startup/system_XMC4800.c ****   temp |= PMU_FLASH_WS;
 210              	 .loc 1 438 0
 211 0044 7B68     	 ldr r3,[r7,#4]
 212 0046 43F00403 	 orr r3,r3,#4
 213 004a 7B60     	 str r3,[r7,#4]
 439:../Startup/system_XMC4800.c ****   FLASH0->FCON = temp;
 214              	 .loc 1 439 0
 215 004c 074B     	 ldr r3,.L8+8
 216 004e 03F58053 	 add r3,r3,#4096
 217 0052 1433     	 adds r3,r3,#20
 218 0054 7A68     	 ldr r2,[r7,#4]
 219 0056 1A60     	 str r2,[r3]
 440:../Startup/system_XMC4800.c **** }
 220              	 .loc 1 440 0
 221 0058 0C37     	 adds r7,r7,#12
 222              	.LCFI11:
 223              	 .cfi_def_cfa_offset 4
 224 005a BD46     	 mov sp,r7
 225              	.LCFI12:
 226              	 .cfi_def_cfa_register 13
 227              	 
 228 005c 5DF8047B 	 ldr r7,[sp],#4
 229              	.LCFI13:
 230              	 .cfi_restore 7
 231              	 .cfi_def_cfa_offset 0
 232 0060 7047     	 bx lr
 233              	.L9:
 234 0062 00BF     	 .align 2
 235              	.L8:
 236 0064 00ED00E0 	 .word -536810240
 237 0068 00000000 	 .word __Vectors
 238 006c 00100058 	 .word 1476399104
 239              	 .cfi_endproc
 240              	.LFE132:
 242              	 .section .text.SystemCoreClockSetup,"ax",%progbits
 243              	 .align 2
 244              	 .weak SystemCoreClockSetup
 245              	 .thumb
 246              	 .thumb_func
 248              	SystemCoreClockSetup:
 249              	.LFB133:
 441:../Startup/system_XMC4800.c **** 
 442:../Startup/system_XMC4800.c **** __WEAK void SystemCoreClockSetup(void)
 443:../Startup/system_XMC4800.c **** {
 250              	 .loc 1 443 0
 251              	 .cfi_startproc
 252              	 
 253              	 
 254 0000 80B5     	 push {r7,lr}
 255              	.LCFI14:
 256              	 .cfi_def_cfa_offset 8
 257              	 .cfi_offset 7,-8
 258              	 .cfi_offset 14,-4
 259 0002 00AF     	 add r7,sp,#0
 260              	.LCFI15:
 261              	 .cfi_def_cfa_register 7
 444:../Startup/system_XMC4800.c **** #if FOFI_CALIBRATION_MODE == FOFI_CALIBRATION_MODE_FACTORY
 445:../Startup/system_XMC4800.c ****   /* Enable factory calibration */
 446:../Startup/system_XMC4800.c ****   SCU_PLL->PLLCON0 |= SCU_PLL_PLLCON0_FOTR_Msk;
 447:../Startup/system_XMC4800.c **** #else
 448:../Startup/system_XMC4800.c ****   /* Automatic calibration uses the fSTDBY */
 449:../Startup/system_XMC4800.c **** 
 450:../Startup/system_XMC4800.c ****   /* Enable HIB domain */
 451:../Startup/system_XMC4800.c ****   /* Power up HIB domain if and only if it is currently powered down */
 452:../Startup/system_XMC4800.c ****   if((SCU_POWER->PWRSTAT & SCU_POWER_PWRSTAT_HIBEN_Msk) == 0)
 262              	 .loc 1 452 0
 263 0004 A44B     	 ldr r3,.L22
 264 0006 1B68     	 ldr r3,[r3]
 265 0008 03F00103 	 and r3,r3,#1
 266 000c 002B     	 cmp r3,#0
 267 000e 0CD1     	 bne .L11
 453:../Startup/system_XMC4800.c ****   {
 454:../Startup/system_XMC4800.c ****     SCU_POWER->PWRSET |= SCU_POWER_PWRSET_HIB_Msk;
 268              	 .loc 1 454 0
 269 0010 A14A     	 ldr r2,.L22
 270 0012 A14B     	 ldr r3,.L22
 271 0014 5B68     	 ldr r3,[r3,#4]
 272 0016 43F00103 	 orr r3,r3,#1
 273 001a 5360     	 str r3,[r2,#4]
 455:../Startup/system_XMC4800.c **** 
 456:../Startup/system_XMC4800.c ****     while((SCU_POWER->PWRSTAT & SCU_POWER_PWRSTAT_HIBEN_Msk) == 0)
 274              	 .loc 1 456 0
 275 001c 00BF     	 nop
 276              	.L12:
 277              	 .loc 1 456 0 is_stmt 0 discriminator 1
 278 001e 9E4B     	 ldr r3,.L22
 279 0020 1B68     	 ldr r3,[r3]
 280 0022 03F00103 	 and r3,r3,#1
 281 0026 002B     	 cmp r3,#0
 282 0028 F9D0     	 beq .L12
 283              	.L11:
 457:../Startup/system_XMC4800.c ****     {
 458:../Startup/system_XMC4800.c ****       /* wait until HIB domain is enabled */
 459:../Startup/system_XMC4800.c ****     }
 460:../Startup/system_XMC4800.c ****   }
 461:../Startup/system_XMC4800.c **** 
 462:../Startup/system_XMC4800.c ****   /* Remove the reset only if HIB domain were in a state of reset */
 463:../Startup/system_XMC4800.c ****   if((SCU_RESET->RSTSTAT) & SCU_RESET_RSTSTAT_HIBRS_Msk)
 284              	 .loc 1 463 0 is_stmt 1
 285 002a 9C4B     	 ldr r3,.L22+4
 286 002c 1B68     	 ldr r3,[r3]
 287 002e 03F40073 	 and r3,r3,#512
 288 0032 002B     	 cmp r3,#0
 289 0034 09D0     	 beq .L13
 464:../Startup/system_XMC4800.c ****   {
 465:../Startup/system_XMC4800.c ****     SCU_RESET->RSTCLR |= SCU_RESET_RSTCLR_HIBRS_Msk;
 290              	 .loc 1 465 0
 291 0036 994A     	 ldr r2,.L22+4
 292 0038 984B     	 ldr r3,.L22+4
 293 003a 9B68     	 ldr r3,[r3,#8]
 294 003c 43F40073 	 orr r3,r3,#512
 295 0040 9360     	 str r3,[r2,#8]
 466:../Startup/system_XMC4800.c ****     delay(DELAY_CNT_150US_50MHZ);
 296              	 .loc 1 466 0
 297 0042 41F64C50 	 movw r0,#7500
 298 0046 FFF7FEFF 	 bl delay
 299              	.L13:
 467:../Startup/system_XMC4800.c ****   }
 468:../Startup/system_XMC4800.c **** 
 469:../Startup/system_XMC4800.c **** #if STDBY_CLOCK_SRC == STDBY_CLOCK_SRC_OSCULP
 470:../Startup/system_XMC4800.c ****   /* Enable OSC_ULP */
 471:../Startup/system_XMC4800.c ****   if ((SCU_HIBERNATE->OSCULCTRL & SCU_HIBERNATE_OSCULCTRL_MODE_Msk) != 0UL)
 472:../Startup/system_XMC4800.c ****   {
 473:../Startup/system_XMC4800.c ****     /*enable OSC_ULP*/
 474:../Startup/system_XMC4800.c ****     while (SCU_GENERAL->MIRRSTS & SCU_GENERAL_MIRRSTS_OSCULCTRL_Msk)
 475:../Startup/system_XMC4800.c ****     {
 476:../Startup/system_XMC4800.c ****       /* check SCU_MIRRSTS to ensure that no transfer over serial interface is pending */
 477:../Startup/system_XMC4800.c ****     }
 478:../Startup/system_XMC4800.c ****     SCU_HIBERNATE->OSCULCTRL &= ~SCU_HIBERNATE_OSCULCTRL_MODE_Msk;
 479:../Startup/system_XMC4800.c **** 
 480:../Startup/system_XMC4800.c ****     /* Check if the clock is OK using OSCULP Oscillator Watchdog*/
 481:../Startup/system_XMC4800.c ****     while (SCU_GENERAL->MIRRSTS & SCU_GENERAL_MIRRSTS_HDCR_Msk)
 482:../Startup/system_XMC4800.c ****     {
 483:../Startup/system_XMC4800.c ****       /* check SCU_MIRRSTS to ensure that no transfer over serial interface is pending */
 484:../Startup/system_XMC4800.c ****     }
 485:../Startup/system_XMC4800.c ****     SCU_HIBERNATE->HDCR |= SCU_HIBERNATE_HDCR_ULPWDGEN_Msk;
 486:../Startup/system_XMC4800.c **** 
 487:../Startup/system_XMC4800.c ****     /* wait till clock is stable */
 488:../Startup/system_XMC4800.c ****     do
 489:../Startup/system_XMC4800.c ****     {
 490:../Startup/system_XMC4800.c ****       while (SCU_GENERAL->MIRRSTS & SCU_GENERAL_MIRRSTS_HDCLR_Msk)
 491:../Startup/system_XMC4800.c ****       {
 492:../Startup/system_XMC4800.c ****         /* check SCU_MIRRSTS to ensure that no transfer over serial interface is pending */
 493:../Startup/system_XMC4800.c ****       }
 494:../Startup/system_XMC4800.c ****       SCU_HIBERNATE->HDCLR |= SCU_HIBERNATE_HDCLR_ULPWDG_Msk;
 495:../Startup/system_XMC4800.c **** 
 496:../Startup/system_XMC4800.c ****       delay(DELAY_CNT_50US_50MHZ);
 497:../Startup/system_XMC4800.c **** 
 498:../Startup/system_XMC4800.c ****     } while ((SCU_HIBERNATE->HDSTAT & SCU_HIBERNATE_HDSTAT_ULPWDG_Msk) != 0UL);
 499:../Startup/system_XMC4800.c **** 
 500:../Startup/system_XMC4800.c ****   }
 501:../Startup/system_XMC4800.c **** 
 502:../Startup/system_XMC4800.c ****   /* now OSC_ULP is running and can be used*/
 503:../Startup/system_XMC4800.c ****   /* Select OSC_ULP as the clock source for RTC and STDBY*/
 504:../Startup/system_XMC4800.c ****   while (SCU_GENERAL->MIRRSTS & SCU_GENERAL_MIRRSTS_HDCR_Msk)
 505:../Startup/system_XMC4800.c ****   {
 506:../Startup/system_XMC4800.c ****     /* check SCU_MIRRSTS to ensure that no transfer over serial interface is pending */
 507:../Startup/system_XMC4800.c ****   }
 508:../Startup/system_XMC4800.c ****   SCU_HIBERNATE->HDCR |= SCU_HIBERNATE_HDCR_RCS_Msk | SCU_HIBERNATE_HDCR_STDBYSEL_Msk;
 509:../Startup/system_XMC4800.c **** #endif /* STDBY_CLOCK_SRC == STDBY_CLOCK_SRC_OSCULP */
 510:../Startup/system_XMC4800.c **** 
 511:../Startup/system_XMC4800.c ****   /* Enable automatic calibration of internal fast oscillator */
 512:../Startup/system_XMC4800.c ****   SCU_PLL->PLLCON0 |= SCU_PLL_PLLCON0_AOTREN_Msk;
 300              	 .loc 1 512 0
 301 004a 954A     	 ldr r2,.L22+8
 302 004c 944B     	 ldr r3,.L22+8
 303 004e 5B68     	 ldr r3,[r3,#4]
 304 0050 43F40023 	 orr r3,r3,#524288
 305 0054 5360     	 str r3,[r2,#4]
 513:../Startup/system_XMC4800.c **** #endif /* FOFI_CALIBRATION_MODE == FOFI_CALIBRATION_MODE_AUTOMATIC */
 514:../Startup/system_XMC4800.c **** 
 515:../Startup/system_XMC4800.c ****   delay(DELAY_CNT_50US_50MHZ);
 306              	 .loc 1 515 0
 307 0056 40F6C410 	 movw r0,#2500
 308 005a FFF7FEFF 	 bl delay
 516:../Startup/system_XMC4800.c **** 
 517:../Startup/system_XMC4800.c **** #if ENABLE_PLL
 518:../Startup/system_XMC4800.c **** 
 519:../Startup/system_XMC4800.c ****   /* enable PLL */
 520:../Startup/system_XMC4800.c ****   SCU_PLL->PLLCON0 &= ~(SCU_PLL_PLLCON0_VCOPWD_Msk | SCU_PLL_PLLCON0_PLLPWD_Msk);
 309              	 .loc 1 520 0
 310 005e 904A     	 ldr r2,.L22+8
 311 0060 8F4B     	 ldr r3,.L22+8
 312 0062 5B68     	 ldr r3,[r3,#4]
 313 0064 23F48033 	 bic r3,r3,#65536
 314 0068 23F00203 	 bic r3,r3,#2
 315 006c 5360     	 str r3,[r2,#4]
 521:../Startup/system_XMC4800.c **** 
 522:../Startup/system_XMC4800.c **** #if PLL_CLOCK_SRC != PLL_CLOCK_SRC_OFI
 523:../Startup/system_XMC4800.c ****   /* enable OSC_HP */
 524:../Startup/system_XMC4800.c ****   if ((SCU_OSC->OSCHPCTRL & SCU_OSC_OSCHPCTRL_MODE_Msk) != 0U)
 316              	 .loc 1 524 0
 317 006e 8D4B     	 ldr r3,.L22+12
 318 0070 5B68     	 ldr r3,[r3,#4]
 319 0072 03F03003 	 and r3,r3,#48
 320 0076 002B     	 cmp r3,#0
 321 0078 29D0     	 beq .L14
 525:../Startup/system_XMC4800.c ****   {
 526:../Startup/system_XMC4800.c ****     SCU_OSC->OSCHPCTRL &= ~(SCU_OSC_OSCHPCTRL_MODE_Msk | SCU_OSC_OSCHPCTRL_OSCVAL_Msk);
 322              	 .loc 1 526 0
 323 007a 8A4A     	 ldr r2,.L22+12
 324 007c 894B     	 ldr r3,.L22+12
 325 007e 5B68     	 ldr r3,[r3,#4]
 326 0080 23F47023 	 bic r3,r3,#983040
 327 0084 23F03003 	 bic r3,r3,#48
 328 0088 5360     	 str r3,[r2,#4]
 527:../Startup/system_XMC4800.c ****     SCU_OSC->OSCHPCTRL |= ((OSCHP_GetFrequency() / FOSCREF) - 1UL) << SCU_OSC_OSCHPCTRL_OSCVAL_Pos;
 329              	 .loc 1 527 0
 330 008a FFF7FEFF 	 bl OSCHP_GetFrequency
 331 008e 0246     	 mov r2,r0
 332 0090 854B     	 ldr r3,.L22+16
 333 0092 A3FB0223 	 umull r2,r3,r3,r2
 334 0096 1B0D     	 lsrs r3,r3,#20
 335 0098 013B     	 subs r3,r3,#1
 336 009a 1B04     	 lsls r3,r3,#16
 337 009c 8149     	 ldr r1,.L22+12
 338 009e 814A     	 ldr r2,.L22+12
 339 00a0 5268     	 ldr r2,[r2,#4]
 340 00a2 1343     	 orrs r3,r3,r2
 341 00a4 4B60     	 str r3,[r1,#4]
 528:../Startup/system_XMC4800.c **** 
 529:../Startup/system_XMC4800.c ****     /* select OSC_HP clock as PLL input */
 530:../Startup/system_XMC4800.c ****     SCU_PLL->PLLCON2 &= ~SCU_PLL_PLLCON2_PINSEL_Msk;
 342              	 .loc 1 530 0
 343 00a6 7E4A     	 ldr r2,.L22+8
 344 00a8 7D4B     	 ldr r3,.L22+8
 345 00aa DB68     	 ldr r3,[r3,#12]
 346 00ac 23F00103 	 bic r3,r3,#1
 347 00b0 D360     	 str r3,[r2,#12]
 531:../Startup/system_XMC4800.c **** 
 532:../Startup/system_XMC4800.c ****     /* restart OSC Watchdog */
 533:../Startup/system_XMC4800.c ****     SCU_PLL->PLLCON0 &= ~SCU_PLL_PLLCON0_OSCRES_Msk;
 348              	 .loc 1 533 0
 349 00b2 7B4A     	 ldr r2,.L22+8
 350 00b4 7A4B     	 ldr r3,.L22+8
 351 00b6 5B68     	 ldr r3,[r3,#4]
 352 00b8 23F40033 	 bic r3,r3,#131072
 353 00bc 5360     	 str r3,[r2,#4]
 534:../Startup/system_XMC4800.c **** 
 535:../Startup/system_XMC4800.c ****     while ((SCU_PLL->PLLSTAT & SCU_PLL_PLLSTAT_OSC_USABLE) != SCU_PLL_PLLSTAT_OSC_USABLE)
 354              	 .loc 1 535 0
 355 00be 00BF     	 nop
 356              	.L15:
 357              	 .loc 1 535 0 is_stmt 0 discriminator 1
 358 00c0 774B     	 ldr r3,.L22+8
 359 00c2 1B68     	 ldr r3,[r3]
 360 00c4 03F46073 	 and r3,r3,#896
 361 00c8 B3F5607F 	 cmp r3,#896
 362 00cc F8D1     	 bne .L15
 363              	.L14:
 536:../Startup/system_XMC4800.c ****     {
 537:../Startup/system_XMC4800.c ****       /* wait till OSC_HP output frequency is usable */
 538:../Startup/system_XMC4800.c ****     }
 539:../Startup/system_XMC4800.c ****   }
 540:../Startup/system_XMC4800.c **** #else /* PLL_CLOCK_SRC != PLL_CLOCK_SRC_OFI */
 541:../Startup/system_XMC4800.c **** 
 542:../Startup/system_XMC4800.c ****   /* select backup clock as PLL input */
 543:../Startup/system_XMC4800.c ****   SCU_PLL->PLLCON2 |= SCU_PLL_PLLCON2_PINSEL_Msk;
 544:../Startup/system_XMC4800.c **** #endif
 545:../Startup/system_XMC4800.c **** 
 546:../Startup/system_XMC4800.c ****   /* Go to bypass the Main PLL */
 547:../Startup/system_XMC4800.c ****   SCU_PLL->PLLCON0 |= SCU_PLL_PLLCON0_VCOBYP_Msk;
 364              	 .loc 1 547 0 is_stmt 1
 365 00ce 744A     	 ldr r2,.L22+8
 366 00d0 734B     	 ldr r3,.L22+8
 367 00d2 5B68     	 ldr r3,[r3,#4]
 368 00d4 43F00103 	 orr r3,r3,#1
 369 00d8 5360     	 str r3,[r2,#4]
 548:../Startup/system_XMC4800.c **** 
 549:../Startup/system_XMC4800.c ****   /* disconnect Oscillator from PLL */
 550:../Startup/system_XMC4800.c ****   SCU_PLL->PLLCON0 |= SCU_PLL_PLLCON0_FINDIS_Msk;
 370              	 .loc 1 550 0
 371 00da 714A     	 ldr r2,.L22+8
 372 00dc 704B     	 ldr r3,.L22+8
 373 00de 5B68     	 ldr r3,[r3,#4]
 374 00e0 43F01003 	 orr r3,r3,#16
 375 00e4 5360     	 str r3,[r2,#4]
 551:../Startup/system_XMC4800.c **** 
 552:../Startup/system_XMC4800.c ****   /* Setup divider settings for main PLL */
 553:../Startup/system_XMC4800.c ****   SCU_PLL->PLLCON1 = ((PLL_NDIV << SCU_PLL_PLLCON1_NDIV_Pos) |
 376              	 .loc 1 553 0
 377 00e6 6E4B     	 ldr r3,.L22+8
 378 00e8 704A     	 ldr r2,.L22+20
 379 00ea 9A60     	 str r2,[r3,#8]
 554:../Startup/system_XMC4800.c ****                       (PLL_K2DIV_24MHZ << SCU_PLL_PLLCON1_K2DIV_Pos) |
 555:../Startup/system_XMC4800.c ****                       (PLL_PDIV << SCU_PLL_PLLCON1_PDIV_Pos));
 556:../Startup/system_XMC4800.c **** 
 557:../Startup/system_XMC4800.c ****   /* Set OSCDISCDIS */
 558:../Startup/system_XMC4800.c ****   SCU_PLL->PLLCON0 |= SCU_PLL_PLLCON0_OSCDISCDIS_Msk;
 380              	 .loc 1 558 0
 381 00ec 6C4A     	 ldr r2,.L22+8
 382 00ee 6C4B     	 ldr r3,.L22+8
 383 00f0 5B68     	 ldr r3,[r3,#4]
 384 00f2 43F04003 	 orr r3,r3,#64
 385 00f6 5360     	 str r3,[r2,#4]
 559:../Startup/system_XMC4800.c **** 
 560:../Startup/system_XMC4800.c ****   /* connect Oscillator to PLL */
 561:../Startup/system_XMC4800.c ****   SCU_PLL->PLLCON0 &= ~SCU_PLL_PLLCON0_FINDIS_Msk;
 386              	 .loc 1 561 0
 387 00f8 694A     	 ldr r2,.L22+8
 388 00fa 694B     	 ldr r3,.L22+8
 389 00fc 5B68     	 ldr r3,[r3,#4]
 390 00fe 23F01003 	 bic r3,r3,#16
 391 0102 5360     	 str r3,[r2,#4]
 562:../Startup/system_XMC4800.c **** 
 563:../Startup/system_XMC4800.c ****   /* restart PLL Lock detection */
 564:../Startup/system_XMC4800.c ****   SCU_PLL->PLLCON0 |= SCU_PLL_PLLCON0_RESLD_Msk;
 392              	 .loc 1 564 0
 393 0104 664A     	 ldr r2,.L22+8
 394 0106 664B     	 ldr r3,.L22+8
 395 0108 5B68     	 ldr r3,[r3,#4]
 396 010a 43F48023 	 orr r3,r3,#262144
 397 010e 5360     	 str r3,[r2,#4]
 565:../Startup/system_XMC4800.c **** 
 566:../Startup/system_XMC4800.c ****   while ((SCU_PLL->PLLSTAT & SCU_PLL_PLLSTAT_VCOLOCK_Msk) == 0U)
 398              	 .loc 1 566 0
 399 0110 00BF     	 nop
 400              	.L16:
 401              	 .loc 1 566 0 is_stmt 0 discriminator 1
 402 0112 634B     	 ldr r3,.L22+8
 403 0114 1B68     	 ldr r3,[r3]
 404 0116 03F00403 	 and r3,r3,#4
 405 011a 002B     	 cmp r3,#0
 406 011c F9D0     	 beq .L16
 567:../Startup/system_XMC4800.c ****   {
 568:../Startup/system_XMC4800.c ****     /* wait for PLL Lock at 24MHz*/
 569:../Startup/system_XMC4800.c ****   }
 570:../Startup/system_XMC4800.c **** 
 571:../Startup/system_XMC4800.c ****   /* Disable bypass- put PLL clock back */
 572:../Startup/system_XMC4800.c ****   SCU_PLL->PLLCON0 &= ~SCU_PLL_PLLCON0_VCOBYP_Msk;
 407              	 .loc 1 572 0 is_stmt 1
 408 011e 604A     	 ldr r2,.L22+8
 409 0120 5F4B     	 ldr r3,.L22+8
 410 0122 5B68     	 ldr r3,[r3,#4]
 411 0124 23F00103 	 bic r3,r3,#1
 412 0128 5360     	 str r3,[r2,#4]
 573:../Startup/system_XMC4800.c ****   while ((SCU_PLL->PLLSTAT & SCU_PLL_PLLSTAT_VCOBYST_Msk) != 0U)
 413              	 .loc 1 573 0
 414 012a 00BF     	 nop
 415              	.L17:
 416              	 .loc 1 573 0 is_stmt 0 discriminator 1
 417 012c 5C4B     	 ldr r3,.L22+8
 418 012e 1B68     	 ldr r3,[r3]
 419 0130 03F00103 	 and r3,r3,#1
 420 0134 002B     	 cmp r3,#0
 421 0136 F9D1     	 bne .L17
 574:../Startup/system_XMC4800.c ****   {
 575:../Startup/system_XMC4800.c ****     /* wait for normal mode */
 576:../Startup/system_XMC4800.c ****   }
 577:../Startup/system_XMC4800.c **** 
 578:../Startup/system_XMC4800.c **** #endif /* ENABLE_PLL */
 579:../Startup/system_XMC4800.c **** 
 580:../Startup/system_XMC4800.c ****   /* Before scaling to final frequency we need to setup the clock dividers */
 581:../Startup/system_XMC4800.c ****   SCU_CLK->SYSCLKCR = __SYSCLKCR;
 422              	 .loc 1 581 0 is_stmt 1
 423 0138 5D4B     	 ldr r3,.L22+24
 424 013a 4FF00112 	 mov r2,#65537
 425 013e DA60     	 str r2,[r3,#12]
 582:../Startup/system_XMC4800.c ****   SCU_CLK->PBCLKCR = __PBCLKCR;
 426              	 .loc 1 582 0
 427 0140 5B4B     	 ldr r3,.L22+24
 428 0142 0022     	 movs r2,#0
 429 0144 5A61     	 str r2,[r3,#20]
 583:../Startup/system_XMC4800.c ****   SCU_CLK->CPUCLKCR = __CPUCLKCR;
 430              	 .loc 1 583 0
 431 0146 5A4B     	 ldr r3,.L22+24
 432 0148 0022     	 movs r2,#0
 433 014a 1A61     	 str r2,[r3,#16]
 584:../Startup/system_XMC4800.c ****   SCU_CLK->CCUCLKCR = __CCUCLKCR;
 434              	 .loc 1 584 0
 435 014c 584B     	 ldr r3,.L22+24
 436 014e 0022     	 movs r2,#0
 437 0150 1A62     	 str r2,[r3,#32]
 585:../Startup/system_XMC4800.c ****   SCU_CLK->WDTCLKCR = __WDTCLKCR;
 438              	 .loc 1 585 0
 439 0152 574B     	 ldr r3,.L22+24
 440 0154 0022     	 movs r2,#0
 441 0156 5A62     	 str r2,[r3,#36]
 586:../Startup/system_XMC4800.c ****   SCU_CLK->EBUCLKCR = __EBUCLKCR;
 442              	 .loc 1 586 0
 443 0158 554B     	 ldr r3,.L22+24
 444 015a 0322     	 movs r2,#3
 445 015c DA61     	 str r2,[r3,#28]
 587:../Startup/system_XMC4800.c ****   SCU_CLK->USBCLKCR = __USBCLKCR;
 446              	 .loc 1 587 0
 447 015e 544B     	 ldr r3,.L22+24
 448 0160 544A     	 ldr r2,.L22+28
 449 0162 9A61     	 str r2,[r3,#24]
 588:../Startup/system_XMC4800.c ****   SCU_CLK->ECATCLKCR = __ECATCLKCR;
 450              	 .loc 1 588 0
 451 0164 524B     	 ldr r3,.L22+24
 452 0166 0122     	 movs r2,#1
 453 0168 9A63     	 str r2,[r3,#56]
 589:../Startup/system_XMC4800.c ****   SCU_CLK->EXTCLKCR = __EXTCLKCR;
 454              	 .loc 1 589 0
 455 016a 514B     	 ldr r3,.L22+24
 456 016c 524A     	 ldr r2,.L22+32
 457 016e 9A62     	 str r2,[r3,#40]
 590:../Startup/system_XMC4800.c **** 
 591:../Startup/system_XMC4800.c **** #if ENABLE_PLL
 592:../Startup/system_XMC4800.c ****   /* PLL frequency stepping...*/
 593:../Startup/system_XMC4800.c ****   /* Reset OSCDISCDIS */
 594:../Startup/system_XMC4800.c ****   SCU_PLL->PLLCON0 &= ~SCU_PLL_PLLCON0_OSCDISCDIS_Msk;
 458              	 .loc 1 594 0
 459 0170 4B4A     	 ldr r2,.L22+8
 460 0172 4B4B     	 ldr r3,.L22+8
 461 0174 5B68     	 ldr r3,[r3,#4]
 462 0176 23F04003 	 bic r3,r3,#64
 463 017a 5360     	 str r3,[r2,#4]
 595:../Startup/system_XMC4800.c **** 
 596:../Startup/system_XMC4800.c ****   SCU_PLL->PLLCON1 = ((PLL_NDIV << SCU_PLL_PLLCON1_NDIV_Pos) |
 464              	 .loc 1 596 0
 465 017c 484B     	 ldr r3,.L22+8
 466 017e 4F4A     	 ldr r2,.L22+36
 467 0180 9A60     	 str r2,[r3,#8]
 597:../Startup/system_XMC4800.c **** 	                  (PLL_K2DIV_48MHZ << SCU_PLL_PLLCON1_K2DIV_Pos) |
 598:../Startup/system_XMC4800.c **** 	                  (PLL_PDIV << SCU_PLL_PLLCON1_PDIV_Pos));
 599:../Startup/system_XMC4800.c **** 
 600:../Startup/system_XMC4800.c ****   delay(DELAY_CNT_50US_48MHZ);
 468              	 .loc 1 600 0
 469 0182 4FF41660 	 mov r0,#2400
 470 0186 FFF7FEFF 	 bl delay
 601:../Startup/system_XMC4800.c **** 
 602:../Startup/system_XMC4800.c ****   SCU_PLL->PLLCON1 = ((PLL_NDIV << SCU_PLL_PLLCON1_NDIV_Pos) |
 471              	 .loc 1 602 0
 472 018a 454B     	 ldr r3,.L22+8
 473 018c 4C4A     	 ldr r2,.L22+40
 474 018e 9A60     	 str r2,[r3,#8]
 603:../Startup/system_XMC4800.c **** 	                  (PLL_K2DIV_72MHZ << SCU_PLL_PLLCON1_K2DIV_Pos) |
 604:../Startup/system_XMC4800.c **** 	                  (PLL_PDIV << SCU_PLL_PLLCON1_PDIV_Pos));
 605:../Startup/system_XMC4800.c **** 
 606:../Startup/system_XMC4800.c ****   delay(DELAY_CNT_50US_72MHZ);
 475              	 .loc 1 606 0
 476 0190 4FF46160 	 mov r0,#3600
 477 0194 FFF7FEFF 	 bl delay
 607:../Startup/system_XMC4800.c **** 
 608:../Startup/system_XMC4800.c ****   SCU_PLL->PLLCON1 = ((PLL_NDIV << SCU_PLL_PLLCON1_NDIV_Pos) |
 478              	 .loc 1 608 0
 479 0198 414B     	 ldr r3,.L22+8
 480 019a 4A4A     	 ldr r2,.L22+44
 481 019c 9A60     	 str r2,[r3,#8]
 609:../Startup/system_XMC4800.c **** 	                  (PLL_K2DIV_96MHZ << SCU_PLL_PLLCON1_K2DIV_Pos) |
 610:../Startup/system_XMC4800.c **** 	                  (PLL_PDIV << SCU_PLL_PLLCON1_PDIV_Pos));
 611:../Startup/system_XMC4800.c **** 
 612:../Startup/system_XMC4800.c ****   delay(DELAY_CNT_50US_96MHZ);
 482              	 .loc 1 612 0
 483 019e 4FF49650 	 mov r0,#4800
 484 01a2 FFF7FEFF 	 bl delay
 613:../Startup/system_XMC4800.c **** 
 614:../Startup/system_XMC4800.c ****   SCU_PLL->PLLCON1 = ((PLL_NDIV << SCU_PLL_PLLCON1_NDIV_Pos) |
 485              	 .loc 1 614 0
 486 01a6 3E4B     	 ldr r3,.L22+8
 487 01a8 474A     	 ldr r2,.L22+48
 488 01aa 9A60     	 str r2,[r3,#8]
 615:../Startup/system_XMC4800.c **** 	                  (PLL_K2DIV_120MHZ << SCU_PLL_PLLCON1_K2DIV_Pos) |
 616:../Startup/system_XMC4800.c **** 	                  (PLL_PDIV << SCU_PLL_PLLCON1_PDIV_Pos));
 617:../Startup/system_XMC4800.c **** 
 618:../Startup/system_XMC4800.c ****   delay(DELAY_CNT_50US_120MHZ);
 489              	 .loc 1 618 0
 490 01ac 41F27070 	 movw r0,#6000
 491 01b0 FFF7FEFF 	 bl delay
 619:../Startup/system_XMC4800.c **** 
 620:../Startup/system_XMC4800.c ****   SCU_PLL->PLLCON1 = ((PLL_NDIV << SCU_PLL_PLLCON1_NDIV_Pos) |
 492              	 .loc 1 620 0
 493 01b4 3A4B     	 ldr r3,.L22+8
 494 01b6 454A     	 ldr r2,.L22+52
 495 01b8 9A60     	 str r2,[r3,#8]
 621:../Startup/system_XMC4800.c **** 	                  (PLL_K2DIV << SCU_PLL_PLLCON1_K2DIV_Pos) |
 622:../Startup/system_XMC4800.c **** 	                  (PLL_PDIV << SCU_PLL_PLLCON1_PDIV_Pos));
 623:../Startup/system_XMC4800.c **** 
 624:../Startup/system_XMC4800.c ****   delay(DELAY_CNT_50US_144MHZ);
 496              	 .loc 1 624 0
 497 01ba 4FF4E150 	 mov r0,#7200
 498 01be FFF7FEFF 	 bl delay
 625:../Startup/system_XMC4800.c **** 
 626:../Startup/system_XMC4800.c **** #endif /* ENABLE_PLL */
 627:../Startup/system_XMC4800.c **** 
 628:../Startup/system_XMC4800.c **** #if ENABLE_USBPLL
 629:../Startup/system_XMC4800.c ****   /* enable USB PLL first */
 630:../Startup/system_XMC4800.c ****   SCU_PLL->USBPLLCON &= ~(SCU_PLL_USBPLLCON_VCOPWD_Msk | SCU_PLL_USBPLLCON_PLLPWD_Msk);
 499              	 .loc 1 630 0
 500 01c2 374A     	 ldr r2,.L22+8
 501 01c4 364B     	 ldr r3,.L22+8
 502 01c6 5B69     	 ldr r3,[r3,#20]
 503 01c8 23F48033 	 bic r3,r3,#65536
 504 01cc 23F00203 	 bic r3,r3,#2
 505 01d0 5361     	 str r3,[r2,#20]
 631:../Startup/system_XMC4800.c **** 
 632:../Startup/system_XMC4800.c ****   /* USB PLL uses as clock input the OSC_HP */
 633:../Startup/system_XMC4800.c ****   /* check and if not already running enable OSC_HP */
 634:../Startup/system_XMC4800.c ****   if ((SCU_OSC->OSCHPCTRL & SCU_OSC_OSCHPCTRL_MODE_Msk) != 0U)
 506              	 .loc 1 634 0
 507 01d2 344B     	 ldr r3,.L22+12
 508 01d4 5B68     	 ldr r3,[r3,#4]
 509 01d6 03F03003 	 and r3,r3,#48
 510 01da 002B     	 cmp r3,#0
 511 01dc 31D0     	 beq .L18
 635:../Startup/system_XMC4800.c ****   {
 636:../Startup/system_XMC4800.c ****     /* check if Main PLL is switched on for OSC WDG*/
 637:../Startup/system_XMC4800.c ****     if ((SCU_PLL->PLLCON0 &(SCU_PLL_PLLCON0_VCOPWD_Msk | SCU_PLL_PLLCON0_PLLPWD_Msk)) != 0UL)
 512              	 .loc 1 637 0
 513 01de 304B     	 ldr r3,.L22+8
 514 01e0 5A68     	 ldr r2,[r3,#4]
 515 01e2 3B4B     	 ldr r3,.L22+56
 516 01e4 1340     	 ands r3,r3,r2
 517 01e6 002B     	 cmp r3,#0
 518 01e8 07D0     	 beq .L19
 638:../Startup/system_XMC4800.c ****     {
 639:../Startup/system_XMC4800.c ****       /* enable PLL first */
 640:../Startup/system_XMC4800.c ****       SCU_PLL->PLLCON0 &= ~(SCU_PLL_PLLCON0_VCOPWD_Msk | SCU_PLL_PLLCON0_PLLPWD_Msk);
 519              	 .loc 1 640 0
 520 01ea 2D4A     	 ldr r2,.L22+8
 521 01ec 2C4B     	 ldr r3,.L22+8
 522 01ee 5B68     	 ldr r3,[r3,#4]
 523 01f0 23F48033 	 bic r3,r3,#65536
 524 01f4 23F00203 	 bic r3,r3,#2
 525 01f8 5360     	 str r3,[r2,#4]
 526              	.L19:
 641:../Startup/system_XMC4800.c ****     }
 642:../Startup/system_XMC4800.c **** 
 643:../Startup/system_XMC4800.c ****     SCU_OSC->OSCHPCTRL &= ~(SCU_OSC_OSCHPCTRL_MODE_Msk | SCU_OSC_OSCHPCTRL_OSCVAL_Msk);
 527              	 .loc 1 643 0
 528 01fa 2A4A     	 ldr r2,.L22+12
 529 01fc 294B     	 ldr r3,.L22+12
 530 01fe 5B68     	 ldr r3,[r3,#4]
 531 0200 23F47023 	 bic r3,r3,#983040
 532 0204 23F03003 	 bic r3,r3,#48
 533 0208 5360     	 str r3,[r2,#4]
 644:../Startup/system_XMC4800.c ****     SCU_OSC->OSCHPCTRL |= ((OSCHP_GetFrequency() / FOSCREF) - 1UL) << SCU_OSC_OSCHPCTRL_OSCVAL_Pos;
 534              	 .loc 1 644 0
 535 020a FFF7FEFF 	 bl OSCHP_GetFrequency
 536 020e 0246     	 mov r2,r0
 537 0210 254B     	 ldr r3,.L22+16
 538 0212 A3FB0223 	 umull r2,r3,r3,r2
 539 0216 1B0D     	 lsrs r3,r3,#20
 540 0218 013B     	 subs r3,r3,#1
 541 021a 1B04     	 lsls r3,r3,#16
 542 021c 2149     	 ldr r1,.L22+12
 543 021e 214A     	 ldr r2,.L22+12
 544 0220 5268     	 ldr r2,[r2,#4]
 545 0222 1343     	 orrs r3,r3,r2
 546 0224 4B60     	 str r3,[r1,#4]
 645:../Startup/system_XMC4800.c **** 
 646:../Startup/system_XMC4800.c ****     /* restart OSC Watchdog */
 647:../Startup/system_XMC4800.c ****     SCU_PLL->PLLCON0 &= ~SCU_PLL_PLLCON0_OSCRES_Msk;
 547              	 .loc 1 647 0
 548 0226 1E4A     	 ldr r2,.L22+8
 549 0228 1D4B     	 ldr r3,.L22+8
 550 022a 5B68     	 ldr r3,[r3,#4]
 551 022c 23F40033 	 bic r3,r3,#131072
 552 0230 5360     	 str r3,[r2,#4]
 648:../Startup/system_XMC4800.c **** 
 649:../Startup/system_XMC4800.c ****     while ((SCU_PLL->PLLSTAT & SCU_PLL_PLLSTAT_OSC_USABLE) != SCU_PLL_PLLSTAT_OSC_USABLE)
 553              	 .loc 1 649 0
 554 0232 00BF     	 nop
 555              	.L20:
 556              	 .loc 1 649 0 is_stmt 0 discriminator 1
 557 0234 1A4B     	 ldr r3,.L22+8
 558 0236 1B68     	 ldr r3,[r3]
 559 0238 03F46073 	 and r3,r3,#896
 560 023c B3F5607F 	 cmp r3,#896
 561 0240 F8D1     	 bne .L20
 562              	.L18:
 650:../Startup/system_XMC4800.c ****     {
 651:../Startup/system_XMC4800.c ****       /* wait till OSC_HP output frequency is usable */
 652:../Startup/system_XMC4800.c ****     }
 653:../Startup/system_XMC4800.c ****   }
 654:../Startup/system_XMC4800.c **** 
 655:../Startup/system_XMC4800.c ****   /* Setup USB PLL */
 656:../Startup/system_XMC4800.c ****   /* Go to bypass the USB PLL */
 657:../Startup/system_XMC4800.c ****   SCU_PLL->USBPLLCON |= SCU_PLL_USBPLLCON_VCOBYP_Msk;
 563              	 .loc 1 657 0 is_stmt 1
 564 0242 174A     	 ldr r2,.L22+8
 565 0244 164B     	 ldr r3,.L22+8
 566 0246 5B69     	 ldr r3,[r3,#20]
 567 0248 43F00103 	 orr r3,r3,#1
 568 024c 5361     	 str r3,[r2,#20]
 658:../Startup/system_XMC4800.c **** 
 659:../Startup/system_XMC4800.c ****   /* disconnect Oscillator from USB PLL */
 660:../Startup/system_XMC4800.c ****   SCU_PLL->USBPLLCON |= SCU_PLL_USBPLLCON_FINDIS_Msk;
 569              	 .loc 1 660 0
 570 024e 144A     	 ldr r2,.L22+8
 571 0250 134B     	 ldr r3,.L22+8
 572 0252 5B69     	 ldr r3,[r3,#20]
 573 0254 43F01003 	 orr r3,r3,#16
 574 0258 5361     	 str r3,[r2,#20]
 661:../Startup/system_XMC4800.c **** 
 662:../Startup/system_XMC4800.c ****   /* Setup Divider settings for USB PLL */
 663:../Startup/system_XMC4800.c ****   SCU_PLL->USBPLLCON = ((USB_NDIV << SCU_PLL_USBPLLCON_NDIV_Pos) |
 575              	 .loc 1 663 0
 576 025a 114B     	 ldr r3,.L22+8
 577 025c 1D4A     	 ldr r2,.L22+60
 578 025e 5A61     	 str r2,[r3,#20]
 664:../Startup/system_XMC4800.c ****                         (USB_PDIV << SCU_PLL_USBPLLCON_PDIV_Pos));
 665:../Startup/system_XMC4800.c **** 
 666:../Startup/system_XMC4800.c ****   /* Set OSCDISCDIS */
 667:../Startup/system_XMC4800.c ****   SCU_PLL->USBPLLCON |= SCU_PLL_USBPLLCON_OSCDISCDIS_Msk;
 579              	 .loc 1 667 0
 580 0260 0F4A     	 ldr r2,.L22+8
 581 0262 0F4B     	 ldr r3,.L22+8
 582 0264 5B69     	 ldr r3,[r3,#20]
 583 0266 43F04003 	 orr r3,r3,#64
 584 026a 5361     	 str r3,[r2,#20]
 668:../Startup/system_XMC4800.c **** 
 669:../Startup/system_XMC4800.c ****   /* connect Oscillator to USB PLL */
 670:../Startup/system_XMC4800.c ****   SCU_PLL->USBPLLCON &= ~SCU_PLL_USBPLLCON_FINDIS_Msk;
 585              	 .loc 1 670 0
 586 026c 0C4A     	 ldr r2,.L22+8
 587 026e 0C4B     	 ldr r3,.L22+8
 588 0270 5B69     	 ldr r3,[r3,#20]
 589 0272 23F01003 	 bic r3,r3,#16
 590 0276 5361     	 str r3,[r2,#20]
 671:../Startup/system_XMC4800.c **** 
 672:../Startup/system_XMC4800.c ****   /* restart PLL Lock detection */
 673:../Startup/system_XMC4800.c ****   SCU_PLL->USBPLLCON |= SCU_PLL_USBPLLCON_RESLD_Msk;
 591              	 .loc 1 673 0
 592 0278 094A     	 ldr r2,.L22+8
 593 027a 094B     	 ldr r3,.L22+8
 594 027c 5B69     	 ldr r3,[r3,#20]
 595 027e 43F48023 	 orr r3,r3,#262144
 596 0282 5361     	 str r3,[r2,#20]
 674:../Startup/system_XMC4800.c **** 
 675:../Startup/system_XMC4800.c ****   while ((SCU_PLL->USBPLLSTAT & SCU_PLL_USBPLLSTAT_VCOLOCK_Msk) == 0U)
 597              	 .loc 1 675 0
 598 0284 00BF     	 nop
 599              	.L21:
 600              	 .loc 1 675 0 is_stmt 0 discriminator 1
 601 0286 064B     	 ldr r3,.L22+8
 602 0288 1B69     	 ldr r3,[r3,#16]
 603 028a 03F00403 	 and r3,r3,#4
 604 028e 002B     	 cmp r3,#0
 605 0290 F9D0     	 beq .L21
 676:../Startup/system_XMC4800.c ****   {
 677:../Startup/system_XMC4800.c ****     /* wait for PLL Lock */
 678:../Startup/system_XMC4800.c ****   }
 679:../Startup/system_XMC4800.c **** #endif
 680:../Startup/system_XMC4800.c **** 
 681:../Startup/system_XMC4800.c ****   /* Enable selected clocks */
 682:../Startup/system_XMC4800.c ****   SCU_CLK->CLKSET = __CLKSET;
 606              	 .loc 1 682 0 is_stmt 1
 607 0292 074B     	 ldr r3,.L22+24
 608 0294 0022     	 movs r2,#0
 609 0296 1FE0     	 b .L23
 610              	.L24:
 611              	 .align 2
 612              	.L22:
 613 0298 00420050 	 .word 1342194176
 614 029c 00440050 	 .word 1342194688
 615 02a0 10470050 	 .word 1342195472
 616 02a4 00470050 	 .word 1342195456
 617 02a8 6BCA5F6B 	 .word 1801439851
 618 02ac 002F0B01 	 .word 17510144
 619 02b0 00460050 	 .word 1342195200
 620 02b4 05000100 	 .word 65541
 621 02b8 03002001 	 .word 18874371
 622 02bc 002F0501 	 .word 17116928
 623 02c0 002F0301 	 .word 16985856
 624 02c4 002F0201 	 .word 16920320
 625 02c8 002F0101 	 .word 16854784
 626 02cc 002F0001 	 .word 16789248
 627 02d0 02000100 	 .word 65538
 628 02d4 00630002 	 .word 33579776
 629              	.L23:
 630 02d8 5A60     	 str r2,[r3,#4]
 683:../Startup/system_XMC4800.c **** 
 684:../Startup/system_XMC4800.c **** #if __EXTCLKPIN != 0
 685:../Startup/system_XMC4800.c **** #if __EXTCLKPIN == EXTCLK_PIN_P1_15
 686:../Startup/system_XMC4800.c ****   /* P1.15 */
 687:../Startup/system_XMC4800.c ****   PORT1->PDR1 &= ~PORT1_PDR1_PD15_Msk;
 688:../Startup/system_XMC4800.c ****   PORT1->IOCR12 = (PORT1->IOCR12 & ~PORT0_IOCR12_PC15_Msk) | (0x11U << PORT0_IOCR12_PC15_Pos);
 689:../Startup/system_XMC4800.c **** #else
 690:../Startup/system_XMC4800.c ****   /* P0.8 */
 691:../Startup/system_XMC4800.c ****   PORT0->HWSEL &= ~PORT0_HWSEL_HW8_Msk;
 692:../Startup/system_XMC4800.c ****   PORT0->PDR1 &= ~PORT0_PDR1_PD8_Msk;
 693:../Startup/system_XMC4800.c ****   PORT0->IOCR8 = (PORT0->IOCR8 & ~PORT0_IOCR8_PC8_Msk) | (0x11U << PORT0_IOCR8_PC8_Pos);
 694:../Startup/system_XMC4800.c **** #endif
 695:../Startup/system_XMC4800.c **** #endif  /* ENABLE_EXTCLK == 1  */
 696:../Startup/system_XMC4800.c **** 
 697:../Startup/system_XMC4800.c ****   SystemCoreClockUpdate();
 631              	 .loc 1 697 0
 632 02da FFF7FEFF 	 bl SystemCoreClockUpdate
 698:../Startup/system_XMC4800.c **** }
 633              	 .loc 1 698 0
 634 02de 80BD     	 pop {r7,pc}
 635              	 .cfi_endproc
 636              	.LFE133:
 638              	 .section .text.SystemCoreClockUpdate,"ax",%progbits
 639              	 .align 2
 640              	 .weak SystemCoreClockUpdate
 641              	 .thumb
 642              	 .thumb_func
 644              	SystemCoreClockUpdate:
 645              	.LFB134:
 699:../Startup/system_XMC4800.c **** 
 700:../Startup/system_XMC4800.c **** __WEAK void SystemCoreClockUpdate(void)
 701:../Startup/system_XMC4800.c **** {
 646              	 .loc 1 701 0
 647              	 .cfi_startproc
 648              	 
 649              	 
 650 0000 80B5     	 push {r7,lr}
 651              	.LCFI16:
 652              	 .cfi_def_cfa_offset 8
 653              	 .cfi_offset 7,-8
 654              	 .cfi_offset 14,-4
 655 0002 84B0     	 sub sp,sp,#16
 656              	.LCFI17:
 657              	 .cfi_def_cfa_offset 24
 658 0004 00AF     	 add r7,sp,#0
 659              	.LCFI18:
 660              	 .cfi_def_cfa_register 7
 702:../Startup/system_XMC4800.c ****   uint32_t pdiv;
 703:../Startup/system_XMC4800.c ****   uint32_t ndiv;
 704:../Startup/system_XMC4800.c ****   uint32_t kdiv;
 705:../Startup/system_XMC4800.c ****   uint32_t temp;
 706:../Startup/system_XMC4800.c **** 
 707:../Startup/system_XMC4800.c ****   if (SCU_CLK->SYSCLKCR & SCU_CLK_SYSCLKCR_SYSSEL_Msk)
 661              	 .loc 1 707 0
 662 0006 2F4B     	 ldr r3,.L32
 663 0008 DB68     	 ldr r3,[r3,#12]
 664 000a 03F48033 	 and r3,r3,#65536
 665 000e 002B     	 cmp r3,#0
 666 0010 3ED0     	 beq .L26
 708:../Startup/system_XMC4800.c ****   {
 709:../Startup/system_XMC4800.c ****     /* fPLL is clock source for fSYS */
 710:../Startup/system_XMC4800.c ****     if(SCU_PLL->PLLCON2 & SCU_PLL_PLLCON2_PINSEL_Msk)
 667              	 .loc 1 710 0
 668 0012 2D4B     	 ldr r3,.L32+4
 669 0014 DB68     	 ldr r3,[r3,#12]
 670 0016 03F00103 	 and r3,r3,#1
 671 001a 002B     	 cmp r3,#0
 672 001c 02D0     	 beq .L27
 711:../Startup/system_XMC4800.c ****     {
 712:../Startup/system_XMC4800.c ****       /* PLL input clock is the backup clock (fOFI) */
 713:../Startup/system_XMC4800.c ****       temp = OFI_FREQUENCY;
 673              	 .loc 1 713 0
 674 001e 2B4B     	 ldr r3,.L32+8
 675 0020 FB60     	 str r3,[r7,#12]
 676 0022 02E0     	 b .L28
 677              	.L27:
 714:../Startup/system_XMC4800.c ****     }
 715:../Startup/system_XMC4800.c ****     else
 716:../Startup/system_XMC4800.c ****     {
 717:../Startup/system_XMC4800.c ****       /* PLL input clock is the high performance osicllator (fOSCHP) */
 718:../Startup/system_XMC4800.c ****       temp = OSCHP_GetFrequency();
 678              	 .loc 1 718 0
 679 0024 FFF7FEFF 	 bl OSCHP_GetFrequency
 680 0028 F860     	 str r0,[r7,#12]
 681              	.L28:
 719:../Startup/system_XMC4800.c ****     }
 720:../Startup/system_XMC4800.c **** 
 721:../Startup/system_XMC4800.c ****     /* check if PLL is locked */
 722:../Startup/system_XMC4800.c ****     if (SCU_PLL->PLLSTAT & SCU_PLL_PLLSTAT_VCOLOCK_Msk)
 682              	 .loc 1 722 0
 683 002a 274B     	 ldr r3,.L32+4
 684 002c 1B68     	 ldr r3,[r3]
 685 002e 03F00403 	 and r3,r3,#4
 686 0032 002B     	 cmp r3,#0
 687 0034 20D0     	 beq .L29
 723:../Startup/system_XMC4800.c ****     {
 724:../Startup/system_XMC4800.c ****       /* PLL normal mode */
 725:../Startup/system_XMC4800.c ****       /* read back divider settings */
 726:../Startup/system_XMC4800.c ****       pdiv = ((SCU_PLL->PLLCON1 & SCU_PLL_PLLCON1_PDIV_Msk) >> SCU_PLL_PLLCON1_PDIV_Pos) + 1;
 688              	 .loc 1 726 0
 689 0036 244B     	 ldr r3,.L32+4
 690 0038 9B68     	 ldr r3,[r3,#8]
 691 003a 03F07063 	 and r3,r3,#251658240
 692 003e 1B0E     	 lsrs r3,r3,#24
 693 0040 0133     	 adds r3,r3,#1
 694 0042 BB60     	 str r3,[r7,#8]
 727:../Startup/system_XMC4800.c ****       ndiv = ((SCU_PLL->PLLCON1 & SCU_PLL_PLLCON1_NDIV_Msk) >> SCU_PLL_PLLCON1_NDIV_Pos) + 1;
 695              	 .loc 1 727 0
 696 0044 204B     	 ldr r3,.L32+4
 697 0046 9B68     	 ldr r3,[r3,#8]
 698 0048 03F4FE43 	 and r3,r3,#32512
 699 004c 1B0A     	 lsrs r3,r3,#8
 700 004e 0133     	 adds r3,r3,#1
 701 0050 7B60     	 str r3,[r7,#4]
 728:../Startup/system_XMC4800.c ****       kdiv = ((SCU_PLL->PLLCON1 & SCU_PLL_PLLCON1_K2DIV_Msk) >> SCU_PLL_PLLCON1_K2DIV_Pos) + 1;
 702              	 .loc 1 728 0
 703 0052 1D4B     	 ldr r3,.L32+4
 704 0054 9B68     	 ldr r3,[r3,#8]
 705 0056 03F4FE03 	 and r3,r3,#8323072
 706 005a 1B0C     	 lsrs r3,r3,#16
 707 005c 0133     	 adds r3,r3,#1
 708 005e 3B60     	 str r3,[r7]
 729:../Startup/system_XMC4800.c **** 
 730:../Startup/system_XMC4800.c ****       temp = (temp / (pdiv * kdiv)) * ndiv;
 709              	 .loc 1 730 0
 710 0060 BB68     	 ldr r3,[r7,#8]
 711 0062 3A68     	 ldr r2,[r7]
 712 0064 02FB03F3 	 mul r3,r2,r3
 713 0068 FA68     	 ldr r2,[r7,#12]
 714 006a B2FBF3F3 	 udiv r3,r2,r3
 715 006e 7A68     	 ldr r2,[r7,#4]
 716 0070 02FB03F3 	 mul r3,r2,r3
 717 0074 FB60     	 str r3,[r7,#12]
 718 0076 0DE0     	 b .L31
 719              	.L29:
 731:../Startup/system_XMC4800.c ****     }
 732:../Startup/system_XMC4800.c ****     else
 733:../Startup/system_XMC4800.c ****     {
 734:../Startup/system_XMC4800.c ****       /* PLL prescalar mode */
 735:../Startup/system_XMC4800.c ****       /* read back divider settings */
 736:../Startup/system_XMC4800.c ****       kdiv  = ((SCU_PLL->PLLCON1 & SCU_PLL_PLLCON1_K1DIV_Msk) >> SCU_PLL_PLLCON1_K1DIV_Pos) + 1;
 720              	 .loc 1 736 0
 721 0078 134B     	 ldr r3,.L32+4
 722 007a 9B68     	 ldr r3,[r3,#8]
 723 007c 03F07F03 	 and r3,r3,#127
 724 0080 0133     	 adds r3,r3,#1
 725 0082 3B60     	 str r3,[r7]
 737:../Startup/system_XMC4800.c **** 
 738:../Startup/system_XMC4800.c ****       temp = (temp / kdiv);
 726              	 .loc 1 738 0
 727 0084 FA68     	 ldr r2,[r7,#12]
 728 0086 3B68     	 ldr r3,[r7]
 729 0088 B2FBF3F3 	 udiv r3,r2,r3
 730 008c FB60     	 str r3,[r7,#12]
 731 008e 01E0     	 b .L31
 732              	.L26:
 739:../Startup/system_XMC4800.c ****     }
 740:../Startup/system_XMC4800.c ****   }
 741:../Startup/system_XMC4800.c ****   else
 742:../Startup/system_XMC4800.c ****   {
 743:../Startup/system_XMC4800.c ****     /* fOFI is clock source for fSYS */
 744:../Startup/system_XMC4800.c ****     temp = OFI_FREQUENCY;
 733              	 .loc 1 744 0
 734 0090 0E4B     	 ldr r3,.L32+8
 735 0092 FB60     	 str r3,[r7,#12]
 736              	.L31:
 745:../Startup/system_XMC4800.c ****   }
 746:../Startup/system_XMC4800.c **** 
 747:../Startup/system_XMC4800.c ****   temp = temp / ((SCU_CLK->SYSCLKCR & SCU_CLK_SYSCLKCR_SYSDIV_Msk) + 1);
 737              	 .loc 1 747 0
 738 0094 0B4B     	 ldr r3,.L32
 739 0096 DB68     	 ldr r3,[r3,#12]
 740 0098 DBB2     	 uxtb r3,r3
 741 009a 0133     	 adds r3,r3,#1
 742 009c FA68     	 ldr r2,[r7,#12]
 743 009e B2FBF3F3 	 udiv r3,r2,r3
 744 00a2 FB60     	 str r3,[r7,#12]
 748:../Startup/system_XMC4800.c ****   temp = temp / ((SCU_CLK->CPUCLKCR & SCU_CLK_CPUCLKCR_CPUDIV_Msk) + 1);
 745              	 .loc 1 748 0
 746 00a4 074B     	 ldr r3,.L32
 747 00a6 1B69     	 ldr r3,[r3,#16]
 748 00a8 03F00103 	 and r3,r3,#1
 749 00ac 0133     	 adds r3,r3,#1
 750 00ae FA68     	 ldr r2,[r7,#12]
 751 00b0 B2FBF3F3 	 udiv r3,r2,r3
 752 00b4 FB60     	 str r3,[r7,#12]
 749:../Startup/system_XMC4800.c **** 
 750:../Startup/system_XMC4800.c ****   SystemCoreClock = temp;
 753              	 .loc 1 750 0
 754 00b6 064A     	 ldr r2,.L32+12
 755 00b8 FB68     	 ldr r3,[r7,#12]
 756 00ba 1360     	 str r3,[r2]
 751:../Startup/system_XMC4800.c **** }
 757              	 .loc 1 751 0
 758 00bc 1037     	 adds r7,r7,#16
 759              	.LCFI19:
 760              	 .cfi_def_cfa_offset 8
 761 00be BD46     	 mov sp,r7
 762              	.LCFI20:
 763              	 .cfi_def_cfa_register 13
 764              	 
 765 00c0 80BD     	 pop {r7,pc}
 766              	.L33:
 767 00c2 00BF     	 .align 2
 768              	.L32:
 769 00c4 00460050 	 .word 1342195200
 770 00c8 10470050 	 .word 1342195472
 771 00cc 00366E01 	 .word 24000000
 772 00d0 00000000 	 .word SystemCoreClock
 773              	 .cfi_endproc
 774              	.LFE134:
 776              	 .section .text.OSCHP_GetFrequency,"ax",%progbits
 777              	 .align 2
 778              	 .weak OSCHP_GetFrequency
 779              	 .thumb
 780              	 .thumb_func
 782              	OSCHP_GetFrequency:
 783              	.LFB135:
 752:../Startup/system_XMC4800.c **** 
 753:../Startup/system_XMC4800.c **** __WEAK uint32_t OSCHP_GetFrequency(void)
 754:../Startup/system_XMC4800.c **** {
 784              	 .loc 1 754 0
 785              	 .cfi_startproc
 786              	 
 787              	 
 788              	 
 789 0000 80B4     	 push {r7}
 790              	.LCFI21:
 791              	 .cfi_def_cfa_offset 4
 792              	 .cfi_offset 7,-4
 793 0002 00AF     	 add r7,sp,#0
 794              	.LCFI22:
 795              	 .cfi_def_cfa_register 7
 755:../Startup/system_XMC4800.c ****   return OSCHP_FREQUENCY;
 796              	 .loc 1 755 0
 797 0004 024B     	 ldr r3,.L36
 756:../Startup/system_XMC4800.c **** }
 798              	 .loc 1 756 0
 799 0006 1846     	 mov r0,r3
 800 0008 BD46     	 mov sp,r7
 801              	.LCFI23:
 802              	 .cfi_def_cfa_register 13
 803              	 
 804 000a 5DF8047B 	 ldr r7,[sp],#4
 805              	.LCFI24:
 806              	 .cfi_restore 7
 807              	 .cfi_def_cfa_offset 0
 808 000e 7047     	 bx lr
 809              	.L37:
 810              	 .align 2
 811              	.L36:
 812 0010 001BB700 	 .word 12000000
 813              	 .cfi_endproc
 814              	.LFE135:
 816              	 .text
 817              	.Letext0:
 818              	 .file 3 "c:\\program files\\dave-ide-4.4.2-64bit\\eclipse\\arm-gcc-49\\arm-none-eabi\\include\\machine\\_default_types.h"
 819              	 .file 4 "c:\\program files\\dave-ide-4.4.2-64bit\\eclipse\\arm-gcc-49\\arm-none-eabi\\include\\stdint.h"
 820              	 .file 5 "C:/src/bakalarka_workspace/ETHCAT_FWUPDATE_SSC_APPLICATION_XMC48/Libraries/CMSIS/Include/core_cm4.h"
 821              	 .file 6 "C:/src/bakalarka_workspace/ETHCAT_FWUPDATE_SSC_APPLICATION_XMC48/Libraries/CMSIS/Infineon/XMC4800_series/Include/XMC4800.h"