   1              	 .syntax unified
   2              	 .cpu cortex-m4
   3              	 .eabi_attribute 27,3
   4              	 .fpu fpv4-sp-d16
   5              	 .eabi_attribute 20,1
   6              	 .eabi_attribute 21,1
   7              	 .eabi_attribute 23,3
   8              	 .eabi_attribute 24,1
   9              	 .eabi_attribute 25,1
  10              	 .eabi_attribute 26,1
  11              	 .eabi_attribute 30,6
  12              	 .eabi_attribute 34,1
  13              	 .eabi_attribute 18,4
  14              	 .thumb
  15              	 .file "main.c"
  16              	 .text
  17              	.Ltext0:
  18              	 .cfi_sections .debug_frame
  19              	 .section .text.XMC_GPIO_SetOutputHigh,"ax",%progbits
  20              	 .align 2
  21              	 .thumb
  22              	 .thumb_func
  24              	XMC_GPIO_SetOutputHigh:
  25              	.LFB130:
  26              	 .file 1 "C:/Workspaces/SOES-SAMPLE/xmc48_ecatslave/Libraries/XMCLib/inc/xmc_gpio.h"
   1:C:/Workspaces/SOES-SAMPLE/xmc48_ecatslave/Libraries/XMCLib/inc\xmc_gpio.h **** /**
   2:C:/Workspaces/SOES-SAMPLE/xmc48_ecatslave/Libraries/XMCLib/inc\xmc_gpio.h ****  * @file xmc_gpio.h
   3:C:/Workspaces/SOES-SAMPLE/xmc48_ecatslave/Libraries/XMCLib/inc\xmc_gpio.h ****  * @date 2015-06-20
   4:C:/Workspaces/SOES-SAMPLE/xmc48_ecatslave/Libraries/XMCLib/inc\xmc_gpio.h ****  *
   5:C:/Workspaces/SOES-SAMPLE/xmc48_ecatslave/Libraries/XMCLib/inc\xmc_gpio.h ****  * @cond
   6:C:/Workspaces/SOES-SAMPLE/xmc48_ecatslave/Libraries/XMCLib/inc\xmc_gpio.h ****   *************************************************************************************************
   7:C:/Workspaces/SOES-SAMPLE/xmc48_ecatslave/Libraries/XMCLib/inc\xmc_gpio.h ****  * XMClib v2.1.8 - XMC Peripheral Driver Library 
   8:C:/Workspaces/SOES-SAMPLE/xmc48_ecatslave/Libraries/XMCLib/inc\xmc_gpio.h ****  *
   9:C:/Workspaces/SOES-SAMPLE/xmc48_ecatslave/Libraries/XMCLib/inc\xmc_gpio.h ****  * Copyright (c) 2015-2016, Infineon Technologies AG
  10:C:/Workspaces/SOES-SAMPLE/xmc48_ecatslave/Libraries/XMCLib/inc\xmc_gpio.h ****  * All rights reserved.                        
  11:C:/Workspaces/SOES-SAMPLE/xmc48_ecatslave/Libraries/XMCLib/inc\xmc_gpio.h ****  *                                             
  12:C:/Workspaces/SOES-SAMPLE/xmc48_ecatslave/Libraries/XMCLib/inc\xmc_gpio.h ****  * Redistribution and use in source and binary forms, with or without modification,are permitted pr
  13:C:/Workspaces/SOES-SAMPLE/xmc48_ecatslave/Libraries/XMCLib/inc\xmc_gpio.h ****  * following conditions are met:   
  14:C:/Workspaces/SOES-SAMPLE/xmc48_ecatslave/Libraries/XMCLib/inc\xmc_gpio.h ****  *                                                                              
  15:C:/Workspaces/SOES-SAMPLE/xmc48_ecatslave/Libraries/XMCLib/inc\xmc_gpio.h ****  * Redistributions of source code must retain the above copyright notice, this list of conditions a
  16:C:/Workspaces/SOES-SAMPLE/xmc48_ecatslave/Libraries/XMCLib/inc\xmc_gpio.h ****  * disclaimer.                        
  17:C:/Workspaces/SOES-SAMPLE/xmc48_ecatslave/Libraries/XMCLib/inc\xmc_gpio.h ****  * 
  18:C:/Workspaces/SOES-SAMPLE/xmc48_ecatslave/Libraries/XMCLib/inc\xmc_gpio.h ****  * Redistributions in binary form must reproduce the above copyright notice, this list of condition
  19:C:/Workspaces/SOES-SAMPLE/xmc48_ecatslave/Libraries/XMCLib/inc\xmc_gpio.h ****  * disclaimer in the documentation and/or other materials provided with the distribution.          
  20:C:/Workspaces/SOES-SAMPLE/xmc48_ecatslave/Libraries/XMCLib/inc\xmc_gpio.h ****  * 
  21:C:/Workspaces/SOES-SAMPLE/xmc48_ecatslave/Libraries/XMCLib/inc\xmc_gpio.h ****  * Neither the name of the copyright holders nor the names of its contributors may be used to endor
  22:C:/Workspaces/SOES-SAMPLE/xmc48_ecatslave/Libraries/XMCLib/inc\xmc_gpio.h ****  * products derived from this software without specific prior written permission.                  
  23:C:/Workspaces/SOES-SAMPLE/xmc48_ecatslave/Libraries/XMCLib/inc\xmc_gpio.h ****  *                                                                              
  24:C:/Workspaces/SOES-SAMPLE/xmc48_ecatslave/Libraries/XMCLib/inc\xmc_gpio.h ****  * THIS SOFTWARE IS PROVIDED BY THE COPYRIGHT HOLDERS AND CONTRIBUTORS "AS IS" AND ANY EXPRESS OR I
  25:C:/Workspaces/SOES-SAMPLE/xmc48_ecatslave/Libraries/XMCLib/inc\xmc_gpio.h ****  * INCLUDING, BUT NOT LIMITED TO, THE IMPLIED WARRANTIES OF MERCHANTABILITY AND FITNESS FOR A PARTI
  26:C:/Workspaces/SOES-SAMPLE/xmc48_ecatslave/Libraries/XMCLib/inc\xmc_gpio.h ****  * DISCLAIMED. IN NO EVENT SHALL THE COPYRIGHT HOLDER OR CONTRIBUTORS BE LIABLE  FOR ANY DIRECT, IN
  27:C:/Workspaces/SOES-SAMPLE/xmc48_ecatslave/Libraries/XMCLib/inc\xmc_gpio.h ****  * SPECIAL, EXEMPLARY, OR CONSEQUENTIAL DAMAGES (INCLUDING, BUT NOT LIMITED TO, PROCUREMENT OF SUBS
  28:C:/Workspaces/SOES-SAMPLE/xmc48_ecatslave/Libraries/XMCLib/inc\xmc_gpio.h ****  * SERVICES; LOSS OF USE, DATA, OR PROFITS; OR BUSINESS INTERRUPTION) HOWEVER CAUSED AND ON ANY THE
  29:C:/Workspaces/SOES-SAMPLE/xmc48_ecatslave/Libraries/XMCLib/inc\xmc_gpio.h ****  * WHETHER IN CONTRACT, STRICT LIABILITY,OR TORT (INCLUDING NEGLIGENCE OR OTHERWISE) ARISING IN ANY
  30:C:/Workspaces/SOES-SAMPLE/xmc48_ecatslave/Libraries/XMCLib/inc\xmc_gpio.h ****  * OF THIS SOFTWARE, EVEN IF ADVISED OF THE POSSIBILITY OF SUCH DAMAGE.                            
  31:C:/Workspaces/SOES-SAMPLE/xmc48_ecatslave/Libraries/XMCLib/inc\xmc_gpio.h ****  *                                                                              
  32:C:/Workspaces/SOES-SAMPLE/xmc48_ecatslave/Libraries/XMCLib/inc\xmc_gpio.h ****  * To improve the quality of the software, users are encouraged to share modifications, enhancement
  33:C:/Workspaces/SOES-SAMPLE/xmc48_ecatslave/Libraries/XMCLib/inc\xmc_gpio.h ****  * Infineon Technologies AG dave@infineon.com).                                                    
  34:C:/Workspaces/SOES-SAMPLE/xmc48_ecatslave/Libraries/XMCLib/inc\xmc_gpio.h ****  **************************************************************************************************
  35:C:/Workspaces/SOES-SAMPLE/xmc48_ecatslave/Libraries/XMCLib/inc\xmc_gpio.h ****  *
  36:C:/Workspaces/SOES-SAMPLE/xmc48_ecatslave/Libraries/XMCLib/inc\xmc_gpio.h ****  * Change History
  37:C:/Workspaces/SOES-SAMPLE/xmc48_ecatslave/Libraries/XMCLib/inc\xmc_gpio.h ****  * --------------
  38:C:/Workspaces/SOES-SAMPLE/xmc48_ecatslave/Libraries/XMCLib/inc\xmc_gpio.h ****  *
  39:C:/Workspaces/SOES-SAMPLE/xmc48_ecatslave/Libraries/XMCLib/inc\xmc_gpio.h ****  * 2015-02-20:
  40:C:/Workspaces/SOES-SAMPLE/xmc48_ecatslave/Libraries/XMCLib/inc\xmc_gpio.h ****  *     - Initial draft<br>
  41:C:/Workspaces/SOES-SAMPLE/xmc48_ecatslave/Libraries/XMCLib/inc\xmc_gpio.h ****  *     - Documentation improved <br>
  42:C:/Workspaces/SOES-SAMPLE/xmc48_ecatslave/Libraries/XMCLib/inc\xmc_gpio.h ****  *      
  43:C:/Workspaces/SOES-SAMPLE/xmc48_ecatslave/Libraries/XMCLib/inc\xmc_gpio.h ****  * 2015-06-20:
  44:C:/Workspaces/SOES-SAMPLE/xmc48_ecatslave/Libraries/XMCLib/inc\xmc_gpio.h ****  *     - Removed version macros and declaration of GetDriverVersion API
  45:C:/Workspaces/SOES-SAMPLE/xmc48_ecatslave/Libraries/XMCLib/inc\xmc_gpio.h ****  *
  46:C:/Workspaces/SOES-SAMPLE/xmc48_ecatslave/Libraries/XMCLib/inc\xmc_gpio.h ****  * @endcond
  47:C:/Workspaces/SOES-SAMPLE/xmc48_ecatslave/Libraries/XMCLib/inc\xmc_gpio.h ****  *
  48:C:/Workspaces/SOES-SAMPLE/xmc48_ecatslave/Libraries/XMCLib/inc\xmc_gpio.h ****  */
  49:C:/Workspaces/SOES-SAMPLE/xmc48_ecatslave/Libraries/XMCLib/inc\xmc_gpio.h **** 
  50:C:/Workspaces/SOES-SAMPLE/xmc48_ecatslave/Libraries/XMCLib/inc\xmc_gpio.h **** #ifndef XMC_GPIO_H
  51:C:/Workspaces/SOES-SAMPLE/xmc48_ecatslave/Libraries/XMCLib/inc\xmc_gpio.h **** #define XMC_GPIO_H
  52:C:/Workspaces/SOES-SAMPLE/xmc48_ecatslave/Libraries/XMCLib/inc\xmc_gpio.h **** 
  53:C:/Workspaces/SOES-SAMPLE/xmc48_ecatslave/Libraries/XMCLib/inc\xmc_gpio.h **** /**************************************************************************************************
  54:C:/Workspaces/SOES-SAMPLE/xmc48_ecatslave/Libraries/XMCLib/inc\xmc_gpio.h ****  * HEADER FILES
  55:C:/Workspaces/SOES-SAMPLE/xmc48_ecatslave/Libraries/XMCLib/inc\xmc_gpio.h ****  **************************************************************************************************
  56:C:/Workspaces/SOES-SAMPLE/xmc48_ecatslave/Libraries/XMCLib/inc\xmc_gpio.h **** 
  57:C:/Workspaces/SOES-SAMPLE/xmc48_ecatslave/Libraries/XMCLib/inc\xmc_gpio.h **** #include "xmc_common.h"
  58:C:/Workspaces/SOES-SAMPLE/xmc48_ecatslave/Libraries/XMCLib/inc\xmc_gpio.h **** 
  59:C:/Workspaces/SOES-SAMPLE/xmc48_ecatslave/Libraries/XMCLib/inc\xmc_gpio.h **** /**
  60:C:/Workspaces/SOES-SAMPLE/xmc48_ecatslave/Libraries/XMCLib/inc\xmc_gpio.h ****  * @addtogroup XMClib XMC Peripheral Library
  61:C:/Workspaces/SOES-SAMPLE/xmc48_ecatslave/Libraries/XMCLib/inc\xmc_gpio.h ****  * @{
  62:C:/Workspaces/SOES-SAMPLE/xmc48_ecatslave/Libraries/XMCLib/inc\xmc_gpio.h ****  */
  63:C:/Workspaces/SOES-SAMPLE/xmc48_ecatslave/Libraries/XMCLib/inc\xmc_gpio.h **** 
  64:C:/Workspaces/SOES-SAMPLE/xmc48_ecatslave/Libraries/XMCLib/inc\xmc_gpio.h **** /**
  65:C:/Workspaces/SOES-SAMPLE/xmc48_ecatslave/Libraries/XMCLib/inc\xmc_gpio.h ****  * @addtogroup GPIO
  66:C:/Workspaces/SOES-SAMPLE/xmc48_ecatslave/Libraries/XMCLib/inc\xmc_gpio.h ****  * @brief General Purpose Input Output (GPIO) driver for the XMC microcontroller family.
  67:C:/Workspaces/SOES-SAMPLE/xmc48_ecatslave/Libraries/XMCLib/inc\xmc_gpio.h ****  *
  68:C:/Workspaces/SOES-SAMPLE/xmc48_ecatslave/Libraries/XMCLib/inc\xmc_gpio.h ****  * GPIO driver provide a generic and very flexible software interface for all standard digital I/O 
  69:C:/Workspaces/SOES-SAMPLE/xmc48_ecatslave/Libraries/XMCLib/inc\xmc_gpio.h ****  * Each port slice has individual interfaces for the operation as General Purpose I/O and it furthe
  70:C:/Workspaces/SOES-SAMPLE/xmc48_ecatslave/Libraries/XMCLib/inc\xmc_gpio.h ****  * connectivity to the on-chip periphery and the control for the pad characteristics. 
  71:C:/Workspaces/SOES-SAMPLE/xmc48_ecatslave/Libraries/XMCLib/inc\xmc_gpio.h ****  *
  72:C:/Workspaces/SOES-SAMPLE/xmc48_ecatslave/Libraries/XMCLib/inc\xmc_gpio.h ****  * The driver is divided into Input and Output mode.
  73:C:/Workspaces/SOES-SAMPLE/xmc48_ecatslave/Libraries/XMCLib/inc\xmc_gpio.h ****  *
  74:C:/Workspaces/SOES-SAMPLE/xmc48_ecatslave/Libraries/XMCLib/inc\xmc_gpio.h ****  * Input mode features:
  75:C:/Workspaces/SOES-SAMPLE/xmc48_ecatslave/Libraries/XMCLib/inc\xmc_gpio.h ****  * -# Configuration structure XMC_GPIO_CONFIG_t and initialization function XMC_GPIO_Init()
  76:C:/Workspaces/SOES-SAMPLE/xmc48_ecatslave/Libraries/XMCLib/inc\xmc_gpio.h ****  * -# Allows the selection of weak pull-up or pull-down device. Configuration structure XMC_GPIO_MO
  77:C:/Workspaces/SOES-SAMPLE/xmc48_ecatslave/Libraries/XMCLib/inc\xmc_gpio.h ****  * \if XMC1
  78:C:/Workspaces/SOES-SAMPLE/xmc48_ecatslave/Libraries/XMCLib/inc\xmc_gpio.h ****  * -# Allows the selection of input hysteresis. XMC_GPIO_SetInputHysteresis()
  79:C:/Workspaces/SOES-SAMPLE/xmc48_ecatslave/Libraries/XMCLib/inc\xmc_gpio.h ****  * \endif
  80:C:/Workspaces/SOES-SAMPLE/xmc48_ecatslave/Libraries/XMCLib/inc\xmc_gpio.h ****  *
  81:C:/Workspaces/SOES-SAMPLE/xmc48_ecatslave/Libraries/XMCLib/inc\xmc_gpio.h ****  * 
  82:C:/Workspaces/SOES-SAMPLE/xmc48_ecatslave/Libraries/XMCLib/inc\xmc_gpio.h ****  * Output mode features:
  83:C:/Workspaces/SOES-SAMPLE/xmc48_ecatslave/Libraries/XMCLib/inc\xmc_gpio.h ****  * -# Allows the selection of push pull/open drain and Alternate output. Configuration structure XM
  84:C:/Workspaces/SOES-SAMPLE/xmc48_ecatslave/Libraries/XMCLib/inc\xmc_gpio.h ****  * \if XMC4
  85:C:/Workspaces/SOES-SAMPLE/xmc48_ecatslave/Libraries/XMCLib/inc\xmc_gpio.h ****  * -# Allows the selection of pad driver strength. Configuration structure XMC_GPIO_OUTPUT_STRENGTH
  86:C:/Workspaces/SOES-SAMPLE/xmc48_ecatslave/Libraries/XMCLib/inc\xmc_gpio.h ****  * \endif
  87:C:/Workspaces/SOES-SAMPLE/xmc48_ecatslave/Libraries/XMCLib/inc\xmc_gpio.h ****  *
  88:C:/Workspaces/SOES-SAMPLE/xmc48_ecatslave/Libraries/XMCLib/inc\xmc_gpio.h ****  * -# Allows the selection of initial output level. Configuration structure XMC_GPIO_OUTPUT_LEVEL_t
  89:C:/Workspaces/SOES-SAMPLE/xmc48_ecatslave/Libraries/XMCLib/inc\xmc_gpio.h ****  *
  90:C:/Workspaces/SOES-SAMPLE/xmc48_ecatslave/Libraries/XMCLib/inc\xmc_gpio.h ****  *@{
  91:C:/Workspaces/SOES-SAMPLE/xmc48_ecatslave/Libraries/XMCLib/inc\xmc_gpio.h ****  */
  92:C:/Workspaces/SOES-SAMPLE/xmc48_ecatslave/Libraries/XMCLib/inc\xmc_gpio.h ****  
  93:C:/Workspaces/SOES-SAMPLE/xmc48_ecatslave/Libraries/XMCLib/inc\xmc_gpio.h **** /**************************************************************************************************
  94:C:/Workspaces/SOES-SAMPLE/xmc48_ecatslave/Libraries/XMCLib/inc\xmc_gpio.h ****  * MACROS
  95:C:/Workspaces/SOES-SAMPLE/xmc48_ecatslave/Libraries/XMCLib/inc\xmc_gpio.h ****  **************************************************************************************************
  96:C:/Workspaces/SOES-SAMPLE/xmc48_ecatslave/Libraries/XMCLib/inc\xmc_gpio.h **** 
  97:C:/Workspaces/SOES-SAMPLE/xmc48_ecatslave/Libraries/XMCLib/inc\xmc_gpio.h **** #define PORT_IOCR_PC_Pos PORT0_IOCR0_PC0_Pos
  98:C:/Workspaces/SOES-SAMPLE/xmc48_ecatslave/Libraries/XMCLib/inc\xmc_gpio.h **** #define PORT_IOCR_PC_Msk PORT0_IOCR0_PC0_Msk
  99:C:/Workspaces/SOES-SAMPLE/xmc48_ecatslave/Libraries/XMCLib/inc\xmc_gpio.h **** 
 100:C:/Workspaces/SOES-SAMPLE/xmc48_ecatslave/Libraries/XMCLib/inc\xmc_gpio.h **** #define PORT_IOCR_PC_Size 				(8U)
 101:C:/Workspaces/SOES-SAMPLE/xmc48_ecatslave/Libraries/XMCLib/inc\xmc_gpio.h **** 											
 102:C:/Workspaces/SOES-SAMPLE/xmc48_ecatslave/Libraries/XMCLib/inc\xmc_gpio.h **** 
 103:C:/Workspaces/SOES-SAMPLE/xmc48_ecatslave/Libraries/XMCLib/inc\xmc_gpio.h **** #define XMC_GPIO_CHECK_OUTPUT_LEVEL(level) ((level == XMC_GPIO_OUTPUT_LEVEL_LOW) || \
 104:C:/Workspaces/SOES-SAMPLE/xmc48_ecatslave/Libraries/XMCLib/inc\xmc_gpio.h ****                                             (level == XMC_GPIO_OUTPUT_LEVEL_HIGH))
 105:C:/Workspaces/SOES-SAMPLE/xmc48_ecatslave/Libraries/XMCLib/inc\xmc_gpio.h ****                                             
 106:C:/Workspaces/SOES-SAMPLE/xmc48_ecatslave/Libraries/XMCLib/inc\xmc_gpio.h **** #define XMC_GPIO_CHECK_HWCTRL(hwctrl) ((hwctrl == XMC_GPIO_HWCTRL_DISABLED) || \
 107:C:/Workspaces/SOES-SAMPLE/xmc48_ecatslave/Libraries/XMCLib/inc\xmc_gpio.h ****                                        (hwctrl == XMC_GPIO_HWCTRL_PERIPHERAL1) || \
 108:C:/Workspaces/SOES-SAMPLE/xmc48_ecatslave/Libraries/XMCLib/inc\xmc_gpio.h ****                                        (hwctrl == XMC_GPIO_HWCTRL_PERIPHERAL2))                    
 109:C:/Workspaces/SOES-SAMPLE/xmc48_ecatslave/Libraries/XMCLib/inc\xmc_gpio.h ****                                             
 110:C:/Workspaces/SOES-SAMPLE/xmc48_ecatslave/Libraries/XMCLib/inc\xmc_gpio.h **** /**************************************************************************************************
 111:C:/Workspaces/SOES-SAMPLE/xmc48_ecatslave/Libraries/XMCLib/inc\xmc_gpio.h ****  * ENUMS
 112:C:/Workspaces/SOES-SAMPLE/xmc48_ecatslave/Libraries/XMCLib/inc\xmc_gpio.h ****  **************************************************************************************************
 113:C:/Workspaces/SOES-SAMPLE/xmc48_ecatslave/Libraries/XMCLib/inc\xmc_gpio.h **** 
 114:C:/Workspaces/SOES-SAMPLE/xmc48_ecatslave/Libraries/XMCLib/inc\xmc_gpio.h **** 
 115:C:/Workspaces/SOES-SAMPLE/xmc48_ecatslave/Libraries/XMCLib/inc\xmc_gpio.h **** /**
 116:C:/Workspaces/SOES-SAMPLE/xmc48_ecatslave/Libraries/XMCLib/inc\xmc_gpio.h ****  * Defines output level of a pin. Use type \a XMC_GPIO_OUTPUT_LEVEL_t for this enum.
 117:C:/Workspaces/SOES-SAMPLE/xmc48_ecatslave/Libraries/XMCLib/inc\xmc_gpio.h ****  */
 118:C:/Workspaces/SOES-SAMPLE/xmc48_ecatslave/Libraries/XMCLib/inc\xmc_gpio.h **** typedef enum XMC_GPIO_OUTPUT_LEVEL
 119:C:/Workspaces/SOES-SAMPLE/xmc48_ecatslave/Libraries/XMCLib/inc\xmc_gpio.h **** {
 120:C:/Workspaces/SOES-SAMPLE/xmc48_ecatslave/Libraries/XMCLib/inc\xmc_gpio.h ****   XMC_GPIO_OUTPUT_LEVEL_LOW  = 0x10000U, /**<  Reset bit */
 121:C:/Workspaces/SOES-SAMPLE/xmc48_ecatslave/Libraries/XMCLib/inc\xmc_gpio.h ****   XMC_GPIO_OUTPUT_LEVEL_HIGH = 0x1U, 	/**< Set bit  */
 122:C:/Workspaces/SOES-SAMPLE/xmc48_ecatslave/Libraries/XMCLib/inc\xmc_gpio.h **** } XMC_GPIO_OUTPUT_LEVEL_t;
 123:C:/Workspaces/SOES-SAMPLE/xmc48_ecatslave/Libraries/XMCLib/inc\xmc_gpio.h **** 
 124:C:/Workspaces/SOES-SAMPLE/xmc48_ecatslave/Libraries/XMCLib/inc\xmc_gpio.h **** /**
 125:C:/Workspaces/SOES-SAMPLE/xmc48_ecatslave/Libraries/XMCLib/inc\xmc_gpio.h ****  * Defines direct hardware control characteristics of the pin . Use type \a XMC_GPIO_HWCTRL_t for t
 126:C:/Workspaces/SOES-SAMPLE/xmc48_ecatslave/Libraries/XMCLib/inc\xmc_gpio.h ****  */
 127:C:/Workspaces/SOES-SAMPLE/xmc48_ecatslave/Libraries/XMCLib/inc\xmc_gpio.h **** typedef enum XMC_GPIO_HWCTRL
 128:C:/Workspaces/SOES-SAMPLE/xmc48_ecatslave/Libraries/XMCLib/inc\xmc_gpio.h **** {
 129:C:/Workspaces/SOES-SAMPLE/xmc48_ecatslave/Libraries/XMCLib/inc\xmc_gpio.h ****   XMC_GPIO_HWCTRL_DISABLED     = 0x0U, /**<  Software control only */
 130:C:/Workspaces/SOES-SAMPLE/xmc48_ecatslave/Libraries/XMCLib/inc\xmc_gpio.h ****   XMC_GPIO_HWCTRL_PERIPHERAL1  = 0x1U, /**<  HWI0/HWO0 control path can override the software confi
 131:C:/Workspaces/SOES-SAMPLE/xmc48_ecatslave/Libraries/XMCLib/inc\xmc_gpio.h ****   XMC_GPIO_HWCTRL_PERIPHERAL2  = 0x2U  /**<  HWI1/HWO1 control path can override the software confi
 132:C:/Workspaces/SOES-SAMPLE/xmc48_ecatslave/Libraries/XMCLib/inc\xmc_gpio.h **** } XMC_GPIO_HWCTRL_t;
 133:C:/Workspaces/SOES-SAMPLE/xmc48_ecatslave/Libraries/XMCLib/inc\xmc_gpio.h **** 
 134:C:/Workspaces/SOES-SAMPLE/xmc48_ecatslave/Libraries/XMCLib/inc\xmc_gpio.h **** /**************************************************************************************************
 135:C:/Workspaces/SOES-SAMPLE/xmc48_ecatslave/Libraries/XMCLib/inc\xmc_gpio.h ****  * DEVICE FAMILY EXTENSIONS
 136:C:/Workspaces/SOES-SAMPLE/xmc48_ecatslave/Libraries/XMCLib/inc\xmc_gpio.h ****  **************************************************************************************************
 137:C:/Workspaces/SOES-SAMPLE/xmc48_ecatslave/Libraries/XMCLib/inc\xmc_gpio.h **** 
 138:C:/Workspaces/SOES-SAMPLE/xmc48_ecatslave/Libraries/XMCLib/inc\xmc_gpio.h ****  #if UC_FAMILY == XMC1
 139:C:/Workspaces/SOES-SAMPLE/xmc48_ecatslave/Libraries/XMCLib/inc\xmc_gpio.h **** #include "xmc1_gpio.h"
 140:C:/Workspaces/SOES-SAMPLE/xmc48_ecatslave/Libraries/XMCLib/inc\xmc_gpio.h **** #elif UC_FAMILY == XMC4
 141:C:/Workspaces/SOES-SAMPLE/xmc48_ecatslave/Libraries/XMCLib/inc\xmc_gpio.h **** #include "xmc4_gpio.h"
 142:C:/Workspaces/SOES-SAMPLE/xmc48_ecatslave/Libraries/XMCLib/inc\xmc_gpio.h **** #else
 143:C:/Workspaces/SOES-SAMPLE/xmc48_ecatslave/Libraries/XMCLib/inc\xmc_gpio.h **** #error "xmc_gpio.h: family device not supported"
 144:C:/Workspaces/SOES-SAMPLE/xmc48_ecatslave/Libraries/XMCLib/inc\xmc_gpio.h **** #endif
 145:C:/Workspaces/SOES-SAMPLE/xmc48_ecatslave/Libraries/XMCLib/inc\xmc_gpio.h **** 
 146:C:/Workspaces/SOES-SAMPLE/xmc48_ecatslave/Libraries/XMCLib/inc\xmc_gpio.h **** /**************************************************************************************************
 147:C:/Workspaces/SOES-SAMPLE/xmc48_ecatslave/Libraries/XMCLib/inc\xmc_gpio.h ****  * API PROTOTYPES
 148:C:/Workspaces/SOES-SAMPLE/xmc48_ecatslave/Libraries/XMCLib/inc\xmc_gpio.h ****  **************************************************************************************************
 149:C:/Workspaces/SOES-SAMPLE/xmc48_ecatslave/Libraries/XMCLib/inc\xmc_gpio.h **** 
 150:C:/Workspaces/SOES-SAMPLE/xmc48_ecatslave/Libraries/XMCLib/inc\xmc_gpio.h **** #ifdef __cplusplus
 151:C:/Workspaces/SOES-SAMPLE/xmc48_ecatslave/Libraries/XMCLib/inc\xmc_gpio.h **** extern "C" {
 152:C:/Workspaces/SOES-SAMPLE/xmc48_ecatslave/Libraries/XMCLib/inc\xmc_gpio.h **** #endif
 153:C:/Workspaces/SOES-SAMPLE/xmc48_ecatslave/Libraries/XMCLib/inc\xmc_gpio.h **** 
 154:C:/Workspaces/SOES-SAMPLE/xmc48_ecatslave/Libraries/XMCLib/inc\xmc_gpio.h **** 
 155:C:/Workspaces/SOES-SAMPLE/xmc48_ecatslave/Libraries/XMCLib/inc\xmc_gpio.h **** /**
 156:C:/Workspaces/SOES-SAMPLE/xmc48_ecatslave/Libraries/XMCLib/inc\xmc_gpio.h ****  * @param  port	  Constant pointer pointing to GPIO port, to access port registers like Pn_OUT,Pn_O
 157:C:/Workspaces/SOES-SAMPLE/xmc48_ecatslave/Libraries/XMCLib/inc\xmc_gpio.h ****  * @param  pin	  Port pin number.
 158:C:/Workspaces/SOES-SAMPLE/xmc48_ecatslave/Libraries/XMCLib/inc\xmc_gpio.h ****  * @param  config GPIO configuration data structure. Refer data structure @ref XMC_GPIO_CONFIG_t fo
 159:C:/Workspaces/SOES-SAMPLE/xmc48_ecatslave/Libraries/XMCLib/inc\xmc_gpio.h ****  *
 160:C:/Workspaces/SOES-SAMPLE/xmc48_ecatslave/Libraries/XMCLib/inc\xmc_gpio.h ****  * @return None
 161:C:/Workspaces/SOES-SAMPLE/xmc48_ecatslave/Libraries/XMCLib/inc\xmc_gpio.h ****  *
 162:C:/Workspaces/SOES-SAMPLE/xmc48_ecatslave/Libraries/XMCLib/inc\xmc_gpio.h ****  * \par<b>Description:</b><br>
 163:C:/Workspaces/SOES-SAMPLE/xmc48_ecatslave/Libraries/XMCLib/inc\xmc_gpio.h ****  * \if XMC1
 164:C:/Workspaces/SOES-SAMPLE/xmc48_ecatslave/Libraries/XMCLib/inc\xmc_gpio.h ****  * Initializes input / output mode settings like, pull up / pull down devices,hysteresis, push pull
 165:C:/Workspaces/SOES-SAMPLE/xmc48_ecatslave/Libraries/XMCLib/inc\xmc_gpio.h ****  * Also configures alternate function outputs and clears hardware port control for a selected \a po
 166:C:/Workspaces/SOES-SAMPLE/xmc48_ecatslave/Libraries/XMCLib/inc\xmc_gpio.h ****  * \a config provides selected I/O settings. It configures hardware registers Pn_IOCR,Pn_OUT, Pn_OM
 167:C:/Workspaces/SOES-SAMPLE/xmc48_ecatslave/Libraries/XMCLib/inc\xmc_gpio.h ****  * \endif
 168:C:/Workspaces/SOES-SAMPLE/xmc48_ecatslave/Libraries/XMCLib/inc\xmc_gpio.h ****  * \if XMC4
 169:C:/Workspaces/SOES-SAMPLE/xmc48_ecatslave/Libraries/XMCLib/inc\xmc_gpio.h ****  * Initializes input / output mode settings like, pull up / pull down devices,push pull /open drain
 170:C:/Workspaces/SOES-SAMPLE/xmc48_ecatslave/Libraries/XMCLib/inc\xmc_gpio.h ****  * Also configures alternate function outputs and clears hardware port control for selected \a port
 171:C:/Workspaces/SOES-SAMPLE/xmc48_ecatslave/Libraries/XMCLib/inc\xmc_gpio.h ****  * It configures hardware registers Pn_IOCR,Pn_OUT,Pn_OMR,Pn_PDISC and Pn_PDR.\n
 172:C:/Workspaces/SOES-SAMPLE/xmc48_ecatslave/Libraries/XMCLib/inc\xmc_gpio.h ****  * \endif
 173:C:/Workspaces/SOES-SAMPLE/xmc48_ecatslave/Libraries/XMCLib/inc\xmc_gpio.h ****  *
 174:C:/Workspaces/SOES-SAMPLE/xmc48_ecatslave/Libraries/XMCLib/inc\xmc_gpio.h ****  * \par<b>Related APIs:</b><BR>
 175:C:/Workspaces/SOES-SAMPLE/xmc48_ecatslave/Libraries/XMCLib/inc\xmc_gpio.h ****  *  None
 176:C:/Workspaces/SOES-SAMPLE/xmc48_ecatslave/Libraries/XMCLib/inc\xmc_gpio.h ****  *
 177:C:/Workspaces/SOES-SAMPLE/xmc48_ecatslave/Libraries/XMCLib/inc\xmc_gpio.h ****  * \par<b>Note:</b><br>
 178:C:/Workspaces/SOES-SAMPLE/xmc48_ecatslave/Libraries/XMCLib/inc\xmc_gpio.h ****  * This API is called in definition of DAVE_init by code generation and therefore should not be exp
 179:C:/Workspaces/SOES-SAMPLE/xmc48_ecatslave/Libraries/XMCLib/inc\xmc_gpio.h ****  * for the normal operation. Use other APIs only after DAVE_init is called successfully (returns DA
 180:C:/Workspaces/SOES-SAMPLE/xmc48_ecatslave/Libraries/XMCLib/inc\xmc_gpio.h ****  *
 181:C:/Workspaces/SOES-SAMPLE/xmc48_ecatslave/Libraries/XMCLib/inc\xmc_gpio.h ****  *
 182:C:/Workspaces/SOES-SAMPLE/xmc48_ecatslave/Libraries/XMCLib/inc\xmc_gpio.h ****  */
 183:C:/Workspaces/SOES-SAMPLE/xmc48_ecatslave/Libraries/XMCLib/inc\xmc_gpio.h **** 
 184:C:/Workspaces/SOES-SAMPLE/xmc48_ecatslave/Libraries/XMCLib/inc\xmc_gpio.h ****  
 185:C:/Workspaces/SOES-SAMPLE/xmc48_ecatslave/Libraries/XMCLib/inc\xmc_gpio.h **** void XMC_GPIO_Init(XMC_GPIO_PORT_t *const port, const uint8_t pin, const XMC_GPIO_CONFIG_t *const c
 186:C:/Workspaces/SOES-SAMPLE/xmc48_ecatslave/Libraries/XMCLib/inc\xmc_gpio.h ****  
 187:C:/Workspaces/SOES-SAMPLE/xmc48_ecatslave/Libraries/XMCLib/inc\xmc_gpio.h **** /**
 188:C:/Workspaces/SOES-SAMPLE/xmc48_ecatslave/Libraries/XMCLib/inc\xmc_gpio.h ****  *
 189:C:/Workspaces/SOES-SAMPLE/xmc48_ecatslave/Libraries/XMCLib/inc\xmc_gpio.h ****  * @param  port	Constant pointer pointing to GPIO port, to access hardware register Pn_IOCR.
 190:C:/Workspaces/SOES-SAMPLE/xmc48_ecatslave/Libraries/XMCLib/inc\xmc_gpio.h ****  * @param  pin	Port pin number.
 191:C:/Workspaces/SOES-SAMPLE/xmc48_ecatslave/Libraries/XMCLib/inc\xmc_gpio.h ****  * @param  mode input / output functionality selection. Refer @ref XMC_GPIO_MODE_t for valid values
 192:C:/Workspaces/SOES-SAMPLE/xmc48_ecatslave/Libraries/XMCLib/inc\xmc_gpio.h ****  *
 193:C:/Workspaces/SOES-SAMPLE/xmc48_ecatslave/Libraries/XMCLib/inc\xmc_gpio.h ****  * @return None
 194:C:/Workspaces/SOES-SAMPLE/xmc48_ecatslave/Libraries/XMCLib/inc\xmc_gpio.h ****  *
 195:C:/Workspaces/SOES-SAMPLE/xmc48_ecatslave/Libraries/XMCLib/inc\xmc_gpio.h ****  * \par<b>Description:</b><br>
 196:C:/Workspaces/SOES-SAMPLE/xmc48_ecatslave/Libraries/XMCLib/inc\xmc_gpio.h ****  * Sets digital input and output driver functionality and characteristics of a GPIO port pin. It co
 197:C:/Workspaces/SOES-SAMPLE/xmc48_ecatslave/Libraries/XMCLib/inc\xmc_gpio.h ****  * registers Pn_IOCR. \a mode is initially configured during initialization in XMC_GPIO_Init(). Cal
 198:C:/Workspaces/SOES-SAMPLE/xmc48_ecatslave/Libraries/XMCLib/inc\xmc_gpio.h ****  * the port direction functionality as needed later in the program.
 199:C:/Workspaces/SOES-SAMPLE/xmc48_ecatslave/Libraries/XMCLib/inc\xmc_gpio.h ****  *
 200:C:/Workspaces/SOES-SAMPLE/xmc48_ecatslave/Libraries/XMCLib/inc\xmc_gpio.h ****  * \par<b>Related APIs:</b><BR>
 201:C:/Workspaces/SOES-SAMPLE/xmc48_ecatslave/Libraries/XMCLib/inc\xmc_gpio.h ****  *  None
 202:C:/Workspaces/SOES-SAMPLE/xmc48_ecatslave/Libraries/XMCLib/inc\xmc_gpio.h ****  *
 203:C:/Workspaces/SOES-SAMPLE/xmc48_ecatslave/Libraries/XMCLib/inc\xmc_gpio.h ****  */
 204:C:/Workspaces/SOES-SAMPLE/xmc48_ecatslave/Libraries/XMCLib/inc\xmc_gpio.h **** 
 205:C:/Workspaces/SOES-SAMPLE/xmc48_ecatslave/Libraries/XMCLib/inc\xmc_gpio.h **** void XMC_GPIO_SetMode(XMC_GPIO_PORT_t *const port, const uint8_t pin, const XMC_GPIO_MODE_t mode);
 206:C:/Workspaces/SOES-SAMPLE/xmc48_ecatslave/Libraries/XMCLib/inc\xmc_gpio.h **** 
 207:C:/Workspaces/SOES-SAMPLE/xmc48_ecatslave/Libraries/XMCLib/inc\xmc_gpio.h **** 
 208:C:/Workspaces/SOES-SAMPLE/xmc48_ecatslave/Libraries/XMCLib/inc\xmc_gpio.h **** /**
 209:C:/Workspaces/SOES-SAMPLE/xmc48_ecatslave/Libraries/XMCLib/inc\xmc_gpio.h ****  *
 210:C:/Workspaces/SOES-SAMPLE/xmc48_ecatslave/Libraries/XMCLib/inc\xmc_gpio.h ****  * @param  port	 Constant pointer pointing to GPIO port, to access hardware register Pn_OMR.
 211:C:/Workspaces/SOES-SAMPLE/xmc48_ecatslave/Libraries/XMCLib/inc\xmc_gpio.h ****  * @param  pin	 Port pin number.
 212:C:/Workspaces/SOES-SAMPLE/xmc48_ecatslave/Libraries/XMCLib/inc\xmc_gpio.h ****  * @param  level output level selection. Refer @ref XMC_GPIO_OUTPUT_LEVEL_t for valid values.
 213:C:/Workspaces/SOES-SAMPLE/xmc48_ecatslave/Libraries/XMCLib/inc\xmc_gpio.h ****  *
 214:C:/Workspaces/SOES-SAMPLE/xmc48_ecatslave/Libraries/XMCLib/inc\xmc_gpio.h ****  * @return None
 215:C:/Workspaces/SOES-SAMPLE/xmc48_ecatslave/Libraries/XMCLib/inc\xmc_gpio.h ****  *
 216:C:/Workspaces/SOES-SAMPLE/xmc48_ecatslave/Libraries/XMCLib/inc\xmc_gpio.h ****  * \par<b>Description:</b><br>
 217:C:/Workspaces/SOES-SAMPLE/xmc48_ecatslave/Libraries/XMCLib/inc\xmc_gpio.h ****  * Set port pin output level to high or low.It configures hardware registers Pn_OMR.\a level is ini
 218:C:/Workspaces/SOES-SAMPLE/xmc48_ecatslave/Libraries/XMCLib/inc\xmc_gpio.h ****  * configured during initialization in XMC_GPIO_Init(). Call this API to alter output level as need
 219:C:/Workspaces/SOES-SAMPLE/xmc48_ecatslave/Libraries/XMCLib/inc\xmc_gpio.h ****  *
 220:C:/Workspaces/SOES-SAMPLE/xmc48_ecatslave/Libraries/XMCLib/inc\xmc_gpio.h ****  * \par<b>Related APIs:</b><BR>
 221:C:/Workspaces/SOES-SAMPLE/xmc48_ecatslave/Libraries/XMCLib/inc\xmc_gpio.h ****  *  XMC_GPIO_SetOutputHigh(), XMC_GPIO_SetOutputLow().
 222:C:/Workspaces/SOES-SAMPLE/xmc48_ecatslave/Libraries/XMCLib/inc\xmc_gpio.h ****  *
 223:C:/Workspaces/SOES-SAMPLE/xmc48_ecatslave/Libraries/XMCLib/inc\xmc_gpio.h ****  * \par<b>Note:</b><br>
 224:C:/Workspaces/SOES-SAMPLE/xmc48_ecatslave/Libraries/XMCLib/inc\xmc_gpio.h ****  * Prior to this api, user has to configure port pin to output mode using XMC_GPIO_SetMode().
 225:C:/Workspaces/SOES-SAMPLE/xmc48_ecatslave/Libraries/XMCLib/inc\xmc_gpio.h ****  *
 226:C:/Workspaces/SOES-SAMPLE/xmc48_ecatslave/Libraries/XMCLib/inc\xmc_gpio.h ****  */
 227:C:/Workspaces/SOES-SAMPLE/xmc48_ecatslave/Libraries/XMCLib/inc\xmc_gpio.h **** 
 228:C:/Workspaces/SOES-SAMPLE/xmc48_ecatslave/Libraries/XMCLib/inc\xmc_gpio.h **** 
 229:C:/Workspaces/SOES-SAMPLE/xmc48_ecatslave/Libraries/XMCLib/inc\xmc_gpio.h **** __STATIC_INLINE void XMC_GPIO_SetOutputLevel(XMC_GPIO_PORT_t *const port, const uint8_t pin, const 
 230:C:/Workspaces/SOES-SAMPLE/xmc48_ecatslave/Libraries/XMCLib/inc\xmc_gpio.h **** {
 231:C:/Workspaces/SOES-SAMPLE/xmc48_ecatslave/Libraries/XMCLib/inc\xmc_gpio.h ****   XMC_ASSERT("XMC_GPIO_SetOutputLevel: Invalid port", XMC_GPIO_CHECK_OUTPUT_PORT(port));
 232:C:/Workspaces/SOES-SAMPLE/xmc48_ecatslave/Libraries/XMCLib/inc\xmc_gpio.h ****   XMC_ASSERT("XMC_GPIO_SetOutputLevel: Invalid output level", XMC_GPIO_CHECK_OUTPUT_LEVEL(level));
 233:C:/Workspaces/SOES-SAMPLE/xmc48_ecatslave/Libraries/XMCLib/inc\xmc_gpio.h ****   
 234:C:/Workspaces/SOES-SAMPLE/xmc48_ecatslave/Libraries/XMCLib/inc\xmc_gpio.h ****   port->OMR = (uint32_t)level << pin;
 235:C:/Workspaces/SOES-SAMPLE/xmc48_ecatslave/Libraries/XMCLib/inc\xmc_gpio.h **** }
 236:C:/Workspaces/SOES-SAMPLE/xmc48_ecatslave/Libraries/XMCLib/inc\xmc_gpio.h **** 
 237:C:/Workspaces/SOES-SAMPLE/xmc48_ecatslave/Libraries/XMCLib/inc\xmc_gpio.h **** 
 238:C:/Workspaces/SOES-SAMPLE/xmc48_ecatslave/Libraries/XMCLib/inc\xmc_gpio.h **** /**
 239:C:/Workspaces/SOES-SAMPLE/xmc48_ecatslave/Libraries/XMCLib/inc\xmc_gpio.h ****  * @param  port constant pointer pointing to GPIO port, to access hardware register Pn_OMR.
 240:C:/Workspaces/SOES-SAMPLE/xmc48_ecatslave/Libraries/XMCLib/inc\xmc_gpio.h ****  * @param  pin	Port pin number.
 241:C:/Workspaces/SOES-SAMPLE/xmc48_ecatslave/Libraries/XMCLib/inc\xmc_gpio.h ****  *
 242:C:/Workspaces/SOES-SAMPLE/xmc48_ecatslave/Libraries/XMCLib/inc\xmc_gpio.h ****  * @return None
 243:C:/Workspaces/SOES-SAMPLE/xmc48_ecatslave/Libraries/XMCLib/inc\xmc_gpio.h ****  *
 244:C:/Workspaces/SOES-SAMPLE/xmc48_ecatslave/Libraries/XMCLib/inc\xmc_gpio.h ****  * \par<b>Description:</b><br>
 245:C:/Workspaces/SOES-SAMPLE/xmc48_ecatslave/Libraries/XMCLib/inc\xmc_gpio.h ****  *  Sets port pin output to high. It configures hardware registers Pn_OMR.
 246:C:/Workspaces/SOES-SAMPLE/xmc48_ecatslave/Libraries/XMCLib/inc\xmc_gpio.h ****  *
 247:C:/Workspaces/SOES-SAMPLE/xmc48_ecatslave/Libraries/XMCLib/inc\xmc_gpio.h ****  *  \par<b>Related APIs:</b><BR>
 248:C:/Workspaces/SOES-SAMPLE/xmc48_ecatslave/Libraries/XMCLib/inc\xmc_gpio.h ****  *  XMC_GPIO_SetOutputLow()
 249:C:/Workspaces/SOES-SAMPLE/xmc48_ecatslave/Libraries/XMCLib/inc\xmc_gpio.h ****  *
 250:C:/Workspaces/SOES-SAMPLE/xmc48_ecatslave/Libraries/XMCLib/inc\xmc_gpio.h ****  * \par<b>Note:</b><br>
 251:C:/Workspaces/SOES-SAMPLE/xmc48_ecatslave/Libraries/XMCLib/inc\xmc_gpio.h ****  * Prior to this api, user has to configure port pin to output mode using XMC_GPIO_SetMode().\n
 252:C:/Workspaces/SOES-SAMPLE/xmc48_ecatslave/Libraries/XMCLib/inc\xmc_gpio.h ****  * Register Pn_OMR is virtual and does not contain any flip-flop. A read action delivers the value 
 253:C:/Workspaces/SOES-SAMPLE/xmc48_ecatslave/Libraries/XMCLib/inc\xmc_gpio.h ****  *
 254:C:/Workspaces/SOES-SAMPLE/xmc48_ecatslave/Libraries/XMCLib/inc\xmc_gpio.h ****  */
 255:C:/Workspaces/SOES-SAMPLE/xmc48_ecatslave/Libraries/XMCLib/inc\xmc_gpio.h **** 
 256:C:/Workspaces/SOES-SAMPLE/xmc48_ecatslave/Libraries/XMCLib/inc\xmc_gpio.h **** __STATIC_INLINE void XMC_GPIO_SetOutputHigh(XMC_GPIO_PORT_t *const port, const uint8_t pin)
 257:C:/Workspaces/SOES-SAMPLE/xmc48_ecatslave/Libraries/XMCLib/inc\xmc_gpio.h **** {
  27              	 .loc 1 257 0
  28              	 .cfi_startproc
  29              	 
  30              	 
  31              	 
  32 0000 80B4     	 push {r7}
  33              	.LCFI0:
  34              	 .cfi_def_cfa_offset 4
  35              	 .cfi_offset 7,-4
  36 0002 83B0     	 sub sp,sp,#12
  37              	.LCFI1:
  38              	 .cfi_def_cfa_offset 16
  39 0004 00AF     	 add r7,sp,#0
  40              	.LCFI2:
  41              	 .cfi_def_cfa_register 7
  42 0006 7860     	 str r0,[r7,#4]
  43 0008 0B46     	 mov r3,r1
  44 000a FB70     	 strb r3,[r7,#3]
 258:C:/Workspaces/SOES-SAMPLE/xmc48_ecatslave/Libraries/XMCLib/inc\xmc_gpio.h ****   XMC_ASSERT("XMC_GPIO_SetOutputHigh: Invalid port", XMC_GPIO_CHECK_OUTPUT_PORT(port));
 259:C:/Workspaces/SOES-SAMPLE/xmc48_ecatslave/Libraries/XMCLib/inc\xmc_gpio.h **** 
 260:C:/Workspaces/SOES-SAMPLE/xmc48_ecatslave/Libraries/XMCLib/inc\xmc_gpio.h ****   port->OMR = (uint32_t)0x1U << pin;
  45              	 .loc 1 260 0
  46 000c FB78     	 ldrb r3,[r7,#3]
  47 000e 0122     	 movs r2,#1
  48 0010 9A40     	 lsls r2,r2,r3
  49 0012 7B68     	 ldr r3,[r7,#4]
  50 0014 5A60     	 str r2,[r3,#4]
 261:C:/Workspaces/SOES-SAMPLE/xmc48_ecatslave/Libraries/XMCLib/inc\xmc_gpio.h **** }
  51              	 .loc 1 261 0
  52 0016 0C37     	 adds r7,r7,#12
  53              	.LCFI3:
  54              	 .cfi_def_cfa_offset 4
  55 0018 BD46     	 mov sp,r7
  56              	.LCFI4:
  57              	 .cfi_def_cfa_register 13
  58              	 
  59 001a 5DF8047B 	 ldr r7,[sp],#4
  60              	.LCFI5:
  61              	 .cfi_restore 7
  62              	 .cfi_def_cfa_offset 0
  63 001e 7047     	 bx lr
  64              	 .cfi_endproc
  65              	.LFE130:
  67              	 .section .text.XMC_GPIO_SetOutputLow,"ax",%progbits
  68              	 .align 2
  69              	 .thumb
  70              	 .thumb_func
  72              	XMC_GPIO_SetOutputLow:
  73              	.LFB131:
 262:C:/Workspaces/SOES-SAMPLE/xmc48_ecatslave/Libraries/XMCLib/inc\xmc_gpio.h **** 
 263:C:/Workspaces/SOES-SAMPLE/xmc48_ecatslave/Libraries/XMCLib/inc\xmc_gpio.h **** /**
 264:C:/Workspaces/SOES-SAMPLE/xmc48_ecatslave/Libraries/XMCLib/inc\xmc_gpio.h ****  *
 265:C:/Workspaces/SOES-SAMPLE/xmc48_ecatslave/Libraries/XMCLib/inc\xmc_gpio.h ****  * @param  port	constant pointer pointing to GPIO port, to access hardware register Pn_OMR.
 266:C:/Workspaces/SOES-SAMPLE/xmc48_ecatslave/Libraries/XMCLib/inc\xmc_gpio.h ****  * @param  pin	port pin number.
 267:C:/Workspaces/SOES-SAMPLE/xmc48_ecatslave/Libraries/XMCLib/inc\xmc_gpio.h ****  *
 268:C:/Workspaces/SOES-SAMPLE/xmc48_ecatslave/Libraries/XMCLib/inc\xmc_gpio.h ****  * @return  None
 269:C:/Workspaces/SOES-SAMPLE/xmc48_ecatslave/Libraries/XMCLib/inc\xmc_gpio.h ****  *
 270:C:/Workspaces/SOES-SAMPLE/xmc48_ecatslave/Libraries/XMCLib/inc\xmc_gpio.h ****  *\par<b>Description:</b><br>
 271:C:/Workspaces/SOES-SAMPLE/xmc48_ecatslave/Libraries/XMCLib/inc\xmc_gpio.h ****  * Sets port pin output to low. It configures hardware registers Pn_OMR.\n
 272:C:/Workspaces/SOES-SAMPLE/xmc48_ecatslave/Libraries/XMCLib/inc\xmc_gpio.h ****  *
 273:C:/Workspaces/SOES-SAMPLE/xmc48_ecatslave/Libraries/XMCLib/inc\xmc_gpio.h ****  * \par<b>Related APIs:</b><BR>>
 274:C:/Workspaces/SOES-SAMPLE/xmc48_ecatslave/Libraries/XMCLib/inc\xmc_gpio.h ****  * XMC_GPIO_SetOutputHigh()
 275:C:/Workspaces/SOES-SAMPLE/xmc48_ecatslave/Libraries/XMCLib/inc\xmc_gpio.h ****  *
 276:C:/Workspaces/SOES-SAMPLE/xmc48_ecatslave/Libraries/XMCLib/inc\xmc_gpio.h ****  *\par<b>Note:</b><br>
 277:C:/Workspaces/SOES-SAMPLE/xmc48_ecatslave/Libraries/XMCLib/inc\xmc_gpio.h ****  * Prior to this api, user has to configure port pin to output mode using XMC_GPIO_SetMode().
 278:C:/Workspaces/SOES-SAMPLE/xmc48_ecatslave/Libraries/XMCLib/inc\xmc_gpio.h ****  * Register Pn_OMR is virtual and does not contain any flip-flop. A read action delivers the value 
 279:C:/Workspaces/SOES-SAMPLE/xmc48_ecatslave/Libraries/XMCLib/inc\xmc_gpio.h ****  *
 280:C:/Workspaces/SOES-SAMPLE/xmc48_ecatslave/Libraries/XMCLib/inc\xmc_gpio.h ****  */
 281:C:/Workspaces/SOES-SAMPLE/xmc48_ecatslave/Libraries/XMCLib/inc\xmc_gpio.h **** 
 282:C:/Workspaces/SOES-SAMPLE/xmc48_ecatslave/Libraries/XMCLib/inc\xmc_gpio.h **** __STATIC_INLINE void XMC_GPIO_SetOutputLow(XMC_GPIO_PORT_t *const port, const uint8_t pin)
 283:C:/Workspaces/SOES-SAMPLE/xmc48_ecatslave/Libraries/XMCLib/inc\xmc_gpio.h **** {
  74              	 .loc 1 283 0
  75              	 .cfi_startproc
  76              	 
  77              	 
  78              	 
  79 0000 80B4     	 push {r7}
  80              	.LCFI6:
  81              	 .cfi_def_cfa_offset 4
  82              	 .cfi_offset 7,-4
  83 0002 83B0     	 sub sp,sp,#12
  84              	.LCFI7:
  85              	 .cfi_def_cfa_offset 16
  86 0004 00AF     	 add r7,sp,#0
  87              	.LCFI8:
  88              	 .cfi_def_cfa_register 7
  89 0006 7860     	 str r0,[r7,#4]
  90 0008 0B46     	 mov r3,r1
  91 000a FB70     	 strb r3,[r7,#3]
 284:C:/Workspaces/SOES-SAMPLE/xmc48_ecatslave/Libraries/XMCLib/inc\xmc_gpio.h ****   XMC_ASSERT("XMC_GPIO_SetOutputLow: Invalid port", XMC_GPIO_CHECK_OUTPUT_PORT(port));
 285:C:/Workspaces/SOES-SAMPLE/xmc48_ecatslave/Libraries/XMCLib/inc\xmc_gpio.h **** 
 286:C:/Workspaces/SOES-SAMPLE/xmc48_ecatslave/Libraries/XMCLib/inc\xmc_gpio.h ****   port->OMR = 0x10000U << pin;
  92              	 .loc 1 286 0
  93 000c FB78     	 ldrb r3,[r7,#3]
  94 000e 4FF48032 	 mov r2,#65536
  95 0012 9A40     	 lsls r2,r2,r3
  96 0014 7B68     	 ldr r3,[r7,#4]
  97 0016 5A60     	 str r2,[r3,#4]
 287:C:/Workspaces/SOES-SAMPLE/xmc48_ecatslave/Libraries/XMCLib/inc\xmc_gpio.h **** }
  98              	 .loc 1 287 0
  99 0018 0C37     	 adds r7,r7,#12
 100              	.LCFI9:
 101              	 .cfi_def_cfa_offset 4
 102 001a BD46     	 mov sp,r7
 103              	.LCFI10:
 104              	 .cfi_def_cfa_register 13
 105              	 
 106 001c 5DF8047B 	 ldr r7,[sp],#4
 107              	.LCFI11:
 108              	 .cfi_restore 7
 109              	 .cfi_def_cfa_offset 0
 110 0020 7047     	 bx lr
 111              	 .cfi_endproc
 112              	.LFE131:
 114 0022 00BF     	 .section .text.XMC_GPIO_GetInput,"ax",%progbits
 115              	 .align 2
 116              	 .thumb
 117              	 .thumb_func
 119              	XMC_GPIO_GetInput:
 120              	.LFB133:
 288:C:/Workspaces/SOES-SAMPLE/xmc48_ecatslave/Libraries/XMCLib/inc\xmc_gpio.h **** 
 289:C:/Workspaces/SOES-SAMPLE/xmc48_ecatslave/Libraries/XMCLib/inc\xmc_gpio.h **** /**
 290:C:/Workspaces/SOES-SAMPLE/xmc48_ecatslave/Libraries/XMCLib/inc\xmc_gpio.h ****  *
 291:C:/Workspaces/SOES-SAMPLE/xmc48_ecatslave/Libraries/XMCLib/inc\xmc_gpio.h ****  * @param port constant pointer pointing to GPIO port, to access hardware register Pn_OMR.
 292:C:/Workspaces/SOES-SAMPLE/xmc48_ecatslave/Libraries/XMCLib/inc\xmc_gpio.h ****  * @param pin  port pin number.
 293:C:/Workspaces/SOES-SAMPLE/xmc48_ecatslave/Libraries/XMCLib/inc\xmc_gpio.h ****  *
 294:C:/Workspaces/SOES-SAMPLE/xmc48_ecatslave/Libraries/XMCLib/inc\xmc_gpio.h ****  * @return None
 295:C:/Workspaces/SOES-SAMPLE/xmc48_ecatslave/Libraries/XMCLib/inc\xmc_gpio.h ****  *
 296:C:/Workspaces/SOES-SAMPLE/xmc48_ecatslave/Libraries/XMCLib/inc\xmc_gpio.h ****  * \par<b>Description:</b><br>
 297:C:/Workspaces/SOES-SAMPLE/xmc48_ecatslave/Libraries/XMCLib/inc\xmc_gpio.h ****  * Configures port pin output to Toggle. It configures hardware registers Pn_OMR.
 298:C:/Workspaces/SOES-SAMPLE/xmc48_ecatslave/Libraries/XMCLib/inc\xmc_gpio.h ****  *
 299:C:/Workspaces/SOES-SAMPLE/xmc48_ecatslave/Libraries/XMCLib/inc\xmc_gpio.h ****  * \par<b>Related APIs:</b><BR>
 300:C:/Workspaces/SOES-SAMPLE/xmc48_ecatslave/Libraries/XMCLib/inc\xmc_gpio.h ****  * XMC_GPIO_SetOutputHigh(), XMC_GPIO_SetOutputLow().
 301:C:/Workspaces/SOES-SAMPLE/xmc48_ecatslave/Libraries/XMCLib/inc\xmc_gpio.h ****  *
 302:C:/Workspaces/SOES-SAMPLE/xmc48_ecatslave/Libraries/XMCLib/inc\xmc_gpio.h ****  * \par<b>Note:</b><br>
 303:C:/Workspaces/SOES-SAMPLE/xmc48_ecatslave/Libraries/XMCLib/inc\xmc_gpio.h ****  * Prior to this api, user has to configure port pin to output mode using XMC_GPIO_SetMode(). Regis
 304:C:/Workspaces/SOES-SAMPLE/xmc48_ecatslave/Libraries/XMCLib/inc\xmc_gpio.h ****  * and does not contain any flip-flop. A read action delivers the value of 0.
 305:C:/Workspaces/SOES-SAMPLE/xmc48_ecatslave/Libraries/XMCLib/inc\xmc_gpio.h ****  *
 306:C:/Workspaces/SOES-SAMPLE/xmc48_ecatslave/Libraries/XMCLib/inc\xmc_gpio.h ****  */
 307:C:/Workspaces/SOES-SAMPLE/xmc48_ecatslave/Libraries/XMCLib/inc\xmc_gpio.h **** 
 308:C:/Workspaces/SOES-SAMPLE/xmc48_ecatslave/Libraries/XMCLib/inc\xmc_gpio.h **** __STATIC_INLINE void XMC_GPIO_ToggleOutput(XMC_GPIO_PORT_t *const port, const uint8_t pin)
 309:C:/Workspaces/SOES-SAMPLE/xmc48_ecatslave/Libraries/XMCLib/inc\xmc_gpio.h **** {
 310:C:/Workspaces/SOES-SAMPLE/xmc48_ecatslave/Libraries/XMCLib/inc\xmc_gpio.h ****   XMC_ASSERT("XMC_GPIO_ToggleOutput: Invalid port", XMC_GPIO_CHECK_OUTPUT_PORT(port));
 311:C:/Workspaces/SOES-SAMPLE/xmc48_ecatslave/Libraries/XMCLib/inc\xmc_gpio.h **** 
 312:C:/Workspaces/SOES-SAMPLE/xmc48_ecatslave/Libraries/XMCLib/inc\xmc_gpio.h ****   port->OMR = 0x10001U << pin;
 313:C:/Workspaces/SOES-SAMPLE/xmc48_ecatslave/Libraries/XMCLib/inc\xmc_gpio.h **** }
 314:C:/Workspaces/SOES-SAMPLE/xmc48_ecatslave/Libraries/XMCLib/inc\xmc_gpio.h **** 
 315:C:/Workspaces/SOES-SAMPLE/xmc48_ecatslave/Libraries/XMCLib/inc\xmc_gpio.h **** /**
 316:C:/Workspaces/SOES-SAMPLE/xmc48_ecatslave/Libraries/XMCLib/inc\xmc_gpio.h ****  *
 317:C:/Workspaces/SOES-SAMPLE/xmc48_ecatslave/Libraries/XMCLib/inc\xmc_gpio.h ****  * @param port constant pointer pointing to GPIO port, to access hardware register Pn_IN.
 318:C:/Workspaces/SOES-SAMPLE/xmc48_ecatslave/Libraries/XMCLib/inc\xmc_gpio.h ****  * @param pin  Port pin number.
 319:C:/Workspaces/SOES-SAMPLE/xmc48_ecatslave/Libraries/XMCLib/inc\xmc_gpio.h ****  *
 320:C:/Workspaces/SOES-SAMPLE/xmc48_ecatslave/Libraries/XMCLib/inc\xmc_gpio.h ****  * @return uint32_t pin logic level status.
 321:C:/Workspaces/SOES-SAMPLE/xmc48_ecatslave/Libraries/XMCLib/inc\xmc_gpio.h ****  *
 322:C:/Workspaces/SOES-SAMPLE/xmc48_ecatslave/Libraries/XMCLib/inc\xmc_gpio.h ****  *\par<b>Description:</b><br>
 323:C:/Workspaces/SOES-SAMPLE/xmc48_ecatslave/Libraries/XMCLib/inc\xmc_gpio.h ****  * Reads the Pn_IN register and returns the current logical value at the GPIO pin.
 324:C:/Workspaces/SOES-SAMPLE/xmc48_ecatslave/Libraries/XMCLib/inc\xmc_gpio.h ****  *
 325:C:/Workspaces/SOES-SAMPLE/xmc48_ecatslave/Libraries/XMCLib/inc\xmc_gpio.h ****  * \par<b>Related APIs:</b><BR>
 326:C:/Workspaces/SOES-SAMPLE/xmc48_ecatslave/Libraries/XMCLib/inc\xmc_gpio.h ****  * None
 327:C:/Workspaces/SOES-SAMPLE/xmc48_ecatslave/Libraries/XMCLib/inc\xmc_gpio.h ****  *
 328:C:/Workspaces/SOES-SAMPLE/xmc48_ecatslave/Libraries/XMCLib/inc\xmc_gpio.h ****  * \par<b>Note:</b><br>
 329:C:/Workspaces/SOES-SAMPLE/xmc48_ecatslave/Libraries/XMCLib/inc\xmc_gpio.h ****  * Prior to this api, user has to configure port pin to input mode using XMC_GPIO_SetMode().
 330:C:/Workspaces/SOES-SAMPLE/xmc48_ecatslave/Libraries/XMCLib/inc\xmc_gpio.h ****  *
 331:C:/Workspaces/SOES-SAMPLE/xmc48_ecatslave/Libraries/XMCLib/inc\xmc_gpio.h ****  */
 332:C:/Workspaces/SOES-SAMPLE/xmc48_ecatslave/Libraries/XMCLib/inc\xmc_gpio.h **** 
 333:C:/Workspaces/SOES-SAMPLE/xmc48_ecatslave/Libraries/XMCLib/inc\xmc_gpio.h **** __STATIC_INLINE uint32_t XMC_GPIO_GetInput(XMC_GPIO_PORT_t *const port, const uint8_t pin)
 334:C:/Workspaces/SOES-SAMPLE/xmc48_ecatslave/Libraries/XMCLib/inc\xmc_gpio.h **** {
 121              	 .loc 1 334 0
 122              	 .cfi_startproc
 123              	 
 124              	 
 125              	 
 126 0000 80B4     	 push {r7}
 127              	.LCFI12:
 128              	 .cfi_def_cfa_offset 4
 129              	 .cfi_offset 7,-4
 130 0002 83B0     	 sub sp,sp,#12
 131              	.LCFI13:
 132              	 .cfi_def_cfa_offset 16
 133 0004 00AF     	 add r7,sp,#0
 134              	.LCFI14:
 135              	 .cfi_def_cfa_register 7
 136 0006 7860     	 str r0,[r7,#4]
 137 0008 0B46     	 mov r3,r1
 138 000a FB70     	 strb r3,[r7,#3]
 335:C:/Workspaces/SOES-SAMPLE/xmc48_ecatslave/Libraries/XMCLib/inc\xmc_gpio.h ****   XMC_ASSERT("XMC_GPIO_GetInput: Invalid port", XMC_GPIO_CHECK_PORT(port));
 336:C:/Workspaces/SOES-SAMPLE/xmc48_ecatslave/Libraries/XMCLib/inc\xmc_gpio.h **** 
 337:C:/Workspaces/SOES-SAMPLE/xmc48_ecatslave/Libraries/XMCLib/inc\xmc_gpio.h ****   return (((port->IN) >> pin) & 0x1U);
 139              	 .loc 1 337 0
 140 000c 7B68     	 ldr r3,[r7,#4]
 141 000e 5A6A     	 ldr r2,[r3,#36]
 142 0010 FB78     	 ldrb r3,[r7,#3]
 143 0012 22FA03F3 	 lsr r3,r2,r3
 144 0016 03F00103 	 and r3,r3,#1
 338:C:/Workspaces/SOES-SAMPLE/xmc48_ecatslave/Libraries/XMCLib/inc\xmc_gpio.h **** }
 145              	 .loc 1 338 0
 146 001a 1846     	 mov r0,r3
 147 001c 0C37     	 adds r7,r7,#12
 148              	.LCFI15:
 149              	 .cfi_def_cfa_offset 4
 150 001e BD46     	 mov sp,r7
 151              	.LCFI16:
 152              	 .cfi_def_cfa_register 13
 153              	 
 154 0020 5DF8047B 	 ldr r7,[sp],#4
 155              	.LCFI17:
 156              	 .cfi_restore 7
 157              	 .cfi_def_cfa_offset 0
 158 0024 7047     	 bx lr
 159              	 .cfi_endproc
 160              	.LFE133:
 162 0026 00BF     	 .section .rodata.gpio_config_btn1,"a",%progbits
 163              	 .align 2
 166              	gpio_config_btn1:
 167 0000 30       	 .byte 48
 168 0001 000000   	 .space 3
 169 0004 00000000 	 .word 0
 170 0008 00       	 .byte 0
 171 0009 000000   	 .space 3
 172              	 .section .rodata.gpio_config_btn2,"a",%progbits
 173              	 .align 2
 176              	gpio_config_btn2:
 177 0000 30       	 .byte 48
 178 0001 000000   	 .space 3
 179 0004 00000000 	 .word 0
 180 0008 00       	 .byte 0
 181 0009 000000   	 .space 3
 182              	 .section .rodata.gpio_config_led1,"a",%progbits
 183              	 .align 2
 186              	gpio_config_led1:
 187 0000 80       	 .byte -128
 188 0001 000000   	 .space 3
 189 0004 00000100 	 .word 65536
 190 0008 02       	 .byte 2
 191 0009 000000   	 .space 3
 192              	 .section .rodata.gpio_config_led2,"a",%progbits
 193              	 .align 2
 196              	gpio_config_led2:
 197 0000 80       	 .byte -128
 198 0001 000000   	 .space 3
 199 0004 00000100 	 .word 65536
 200 0008 02       	 .byte 2
 201 0009 000000   	 .space 3
 202              	 .section .rodata.gpio_config_led3,"a",%progbits
 203              	 .align 2
 206              	gpio_config_led3:
 207 0000 80       	 .byte -128
 208 0001 000000   	 .space 3
 209 0004 00000100 	 .word 65536
 210 0008 02       	 .byte 2
 211 0009 000000   	 .space 3
 212              	 .section .text.cb_get_Buttons,"ax",%progbits
 213              	 .align 2
 214              	 .global cb_get_Buttons
 215              	 .thumb
 216              	 .thumb_func
 218              	cb_get_Buttons:
 219              	.LFB138:
 220              	 .file 2 "../main.c"
   1:../main.c     **** /*
   2:../main.c     ****  * main.c
   3:../main.c     ****  *
   4:../main.c     ****  *  Created on: 2017 Nov 23 19:44:27
   5:../main.c     ****  *  Author: rtlaka
   6:../main.c     ****  */
   7:../main.c     **** 
   8:../main.c     **** 
   9:../main.c     **** 
  10:../main.c     **** 
  11:../main.c     **** /**
  12:../main.c     **** 
  13:../main.c     ****  * @brief main() - Application entry point
  14:../main.c     ****  *
  15:../main.c     ****  * <b>Details of function</b><br>
  16:../main.c     ****  * This routine is the application entry point. It is invoked by the device startup code. 
  17:../main.c     ****  */
  18:../main.c     **** #include "xmc_gpio.h"
  19:../main.c     **** #include "config.h"
  20:../main.c     **** #include "esc_hw.h"
  21:../main.c     **** #include "xmc4800_slave.h"
  22:../main.c     **** 
  23:../main.c     **** #define GPIO_BUTTON1   P15_13
  24:../main.c     **** #define GPIO_BUTTON2   P15_12
  25:../main.c     **** 
  26:../main.c     **** 
  27:../main.c     **** #define GPIO_LED1		P1_14
  28:../main.c     **** #define GPIO_LED2		P0_14
  29:../main.c     **** #define GPIO_LED3		P3_14
  30:../main.c     **** 
  31:../main.c     **** 
  32:../main.c     **** static const XMC_GPIO_CONFIG_t gpio_config_btn1 = {
  33:../main.c     ****   .mode = XMC_GPIO_MODE_INPUT_INVERTED_PULL_UP,
  34:../main.c     ****   .output_level = 0,
  35:../main.c     ****   .output_strength = 0
  36:../main.c     **** };
  37:../main.c     **** static const XMC_GPIO_CONFIG_t gpio_config_btn2 = {
  38:../main.c     ****   .mode = XMC_GPIO_MODE_INPUT_INVERTED_PULL_UP,
  39:../main.c     ****   .output_level = 0,
  40:../main.c     ****   .output_strength = 0
  41:../main.c     **** };
  42:../main.c     **** static const XMC_GPIO_CONFIG_t gpio_config_led1 = {
  43:../main.c     ****   .mode = XMC_GPIO_MODE_OUTPUT_PUSH_PULL,
  44:../main.c     ****   .output_level = XMC_GPIO_OUTPUT_LEVEL_LOW,
  45:../main.c     ****   .output_strength = XMC_GPIO_OUTPUT_STRENGTH_STRONG_SOFT_EDGE
  46:../main.c     **** };
  47:../main.c     **** static const XMC_GPIO_CONFIG_t gpio_config_led2 = {
  48:../main.c     ****   .mode = XMC_GPIO_MODE_OUTPUT_PUSH_PULL,
  49:../main.c     ****   .output_level = XMC_GPIO_OUTPUT_LEVEL_LOW,
  50:../main.c     ****   .output_strength = XMC_GPIO_OUTPUT_STRENGTH_STRONG_SOFT_EDGE
  51:../main.c     **** };
  52:../main.c     **** static const XMC_GPIO_CONFIG_t gpio_config_led3 = {
  53:../main.c     ****   .mode = XMC_GPIO_MODE_OUTPUT_PUSH_PULL,
  54:../main.c     ****   .output_level = XMC_GPIO_OUTPUT_LEVEL_LOW,
  55:../main.c     ****   .output_strength = XMC_GPIO_OUTPUT_STRENGTH_STRONG_SOFT_EDGE
  56:../main.c     **** };
  57:../main.c     **** /**
  58:../main.c     ****  * This function gets input values and updates Rb.Buttons
  59:../main.c     ****  */
  60:../main.c     **** void cb_get_Buttons(void)
  61:../main.c     **** {
 221              	 .loc 2 61 0
 222              	 .cfi_startproc
 223              	 
 224              	 
 225 0000 80B5     	 push {r7,lr}
 226              	.LCFI18:
 227              	 .cfi_def_cfa_offset 8
 228              	 .cfi_offset 7,-8
 229              	 .cfi_offset 14,-4
 230 0002 00AF     	 add r7,sp,#0
 231              	.LCFI19:
 232              	 .cfi_def_cfa_register 7
  62:../main.c     **** 	Rb.Buttons.Button1 = (uint8_t)XMC_GPIO_GetInput(GPIO_BUTTON1);
 233              	 .loc 2 62 0
 234 0004 0848     	 ldr r0,.L6
 235 0006 0D21     	 movs r1,#13
 236 0008 FFF7FEFF 	 bl XMC_GPIO_GetInput
 237 000c 0346     	 mov r3,r0
 238 000e DAB2     	 uxtb r2,r3
 239 0010 064B     	 ldr r3,.L6+4
 240 0012 1A70     	 strb r2,[r3]
  63:../main.c     **** 	Rb.Buttons.Button2 = (uint8_t)XMC_GPIO_GetInput(GPIO_BUTTON2);
 241              	 .loc 2 63 0
 242 0014 0448     	 ldr r0,.L6
 243 0016 0C21     	 movs r1,#12
 244 0018 FFF7FEFF 	 bl XMC_GPIO_GetInput
 245 001c 0346     	 mov r3,r0
 246 001e DAB2     	 uxtb r2,r3
 247 0020 024B     	 ldr r3,.L6+4
 248 0022 5A70     	 strb r2,[r3,#1]
  64:../main.c     **** 
  65:../main.c     **** }
 249              	 .loc 2 65 0
 250 0024 80BD     	 pop {r7,pc}
 251              	.L7:
 252 0026 00BF     	 .align 2
 253              	.L6:
 254 0028 008F0248 	 .word 1208127232
 255 002c 00000000 	 .word Rb
 256              	 .cfi_endproc
 257              	.LFE138:
 259              	 .section .text.cb_set_LEDs,"ax",%progbits
 260              	 .align 2
 261              	 .global cb_set_LEDs
 262              	 .thumb
 263              	 .thumb_func
 265              	cb_set_LEDs:
 266              	.LFB139:
  66:../main.c     **** /**
  67:../main.c     ****  * This function sets output values according to Wb.LEDs
  68:../main.c     ****  */
  69:../main.c     **** void cb_set_LEDs(void)
  70:../main.c     **** {
 267              	 .loc 2 70 0
 268              	 .cfi_startproc
 269              	 
 270              	 
 271 0000 80B5     	 push {r7,lr}
 272              	.LCFI20:
 273              	 .cfi_def_cfa_offset 8
 274              	 .cfi_offset 7,-8
 275              	 .cfi_offset 14,-4
 276 0002 00AF     	 add r7,sp,#0
 277              	.LCFI21:
 278              	 .cfi_def_cfa_register 7
  71:../main.c     **** 	if(Wb.LEDs.LED1)
 279              	 .loc 2 71 0
 280 0004 134B     	 ldr r3,.L15
 281 0006 1B78     	 ldrb r3,[r3]
 282 0008 002B     	 cmp r3,#0
 283 000a 04D0     	 beq .L9
  72:../main.c     **** 	{
  73:../main.c     **** 		XMC_GPIO_SetOutputHigh(GPIO_LED1);
 284              	 .loc 2 73 0
 285 000c 1248     	 ldr r0,.L15+4
 286 000e 0E21     	 movs r1,#14
 287 0010 FFF7FEFF 	 bl XMC_GPIO_SetOutputHigh
 288 0014 03E0     	 b .L10
 289              	.L9:
  74:../main.c     **** 	}
  75:../main.c     **** 	else
  76:../main.c     **** 	{
  77:../main.c     **** 		XMC_GPIO_SetOutputLow(GPIO_LED1);
 290              	 .loc 2 77 0
 291 0016 1048     	 ldr r0,.L15+4
 292 0018 0E21     	 movs r1,#14
 293 001a FFF7FEFF 	 bl XMC_GPIO_SetOutputLow
 294              	.L10:
  78:../main.c     **** 	}
  79:../main.c     **** 
  80:../main.c     **** 	if(Wb.LEDs.LED2)
 295              	 .loc 2 80 0
 296 001e 0D4B     	 ldr r3,.L15
 297 0020 5B78     	 ldrb r3,[r3,#1]
 298 0022 002B     	 cmp r3,#0
 299 0024 04D0     	 beq .L11
  81:../main.c     **** 	{
  82:../main.c     **** 		XMC_GPIO_SetOutputHigh(GPIO_LED2);
 300              	 .loc 2 82 0
 301 0026 0D48     	 ldr r0,.L15+8
 302 0028 0E21     	 movs r1,#14
 303 002a FFF7FEFF 	 bl XMC_GPIO_SetOutputHigh
 304 002e 03E0     	 b .L12
 305              	.L11:
  83:../main.c     **** 	}
  84:../main.c     **** 	else
  85:../main.c     **** 	{
  86:../main.c     **** 		XMC_GPIO_SetOutputLow(GPIO_LED2);
 306              	 .loc 2 86 0
 307 0030 0A48     	 ldr r0,.L15+8
 308 0032 0E21     	 movs r1,#14
 309 0034 FFF7FEFF 	 bl XMC_GPIO_SetOutputLow
 310              	.L12:
  87:../main.c     **** 	}
  88:../main.c     **** 
  89:../main.c     **** 	if(Wb.LEDs.LED3)
 311              	 .loc 2 89 0
 312 0038 064B     	 ldr r3,.L15
 313 003a 9B78     	 ldrb r3,[r3,#2]
 314 003c 002B     	 cmp r3,#0
 315 003e 04D0     	 beq .L13
  90:../main.c     **** 	{
  91:../main.c     **** 		XMC_GPIO_SetOutputHigh(GPIO_LED3);
 316              	 .loc 2 91 0
 317 0040 0748     	 ldr r0,.L15+12
 318 0042 0E21     	 movs r1,#14
 319 0044 FFF7FEFF 	 bl XMC_GPIO_SetOutputHigh
 320 0048 03E0     	 b .L8
 321              	.L13:
  92:../main.c     **** 	}
  93:../main.c     **** 	else
  94:../main.c     **** 	{
  95:../main.c     **** 		XMC_GPIO_SetOutputLow(GPIO_LED3);
 322              	 .loc 2 95 0
 323 004a 0548     	 ldr r0,.L15+12
 324 004c 0E21     	 movs r1,#14
 325 004e FFF7FEFF 	 bl XMC_GPIO_SetOutputLow
 326              	.L8:
  96:../main.c     **** 	}
  97:../main.c     **** }
 327              	 .loc 2 97 0
 328 0052 80BD     	 pop {r7,pc}
 329              	.L16:
 330              	 .align 2
 331              	.L15:
 332 0054 00000000 	 .word Wb
 333 0058 00810248 	 .word 1208123648
 334 005c 00800248 	 .word 1208123392
 335 0060 00830248 	 .word 1208124160
 336              	 .cfi_endproc
 337              	.LFE139:
 339              	 .section .data.config,"aw",%progbits
 340              	 .align 2
 343              	config:
 344 0000 00000000 	 .word 0
 345 0004 00000000 	 .word 0
 346 0008 88130000 	 .word 5000
 347 000c 80000000 	 .word 128
 348 0010 80000000 	 .word 128
 349 0014 03000000 	 .word 3
 350 0018 0010     	 .short 4096
 351 001a 8000     	 .short 128
 352 001c 7F10     	 .short 4223
 353 001e 26       	 .byte 38
 354 001f 00       	 .byte 0
 355 0020 8010     	 .short 4224
 356 0022 8000     	 .short 128
 357 0024 FF10     	 .short 4351
 358 0026 22       	 .byte 34
 359 0027 00       	 .byte 0
 360 0028 0010     	 .short 4096
 361 002a 8000     	 .short 128
 362 002c 7F10     	 .short 4223
 363 002e 26       	 .byte 38
 364 002f 00       	 .byte 0
 365 0030 8010     	 .short 4224
 366 0032 8000     	 .short 128
 367 0034 FF10     	 .short 4351
 368 0036 22       	 .byte 34
 369 0037 00       	 .byte 0
 370 0038 0011     	 .short 4352
 371 003a 0000     	 .short 0
 372 003c 0000     	 .short 0
 373 003e 24       	 .byte 36
 374 003f 01       	 .byte 1
 375 0040 8011     	 .short 4480
 376 0042 0000     	 .short 0
 377 0044 0000     	 .short 0
 378 0046 20       	 .byte 32
 379 0047 01       	 .byte 1
 380 0048 00000000 	 .word 0
 381 004c 00000000 	 .word 0
 382 0050 00000000 	 .word 0
 383 0054 00000000 	 .word 0
 384 0058 00000000 	 .word 0
 385 005c 00000000 	 .word 0
 386 0060 00000000 	 .word 0
 387 0064 00000000 	 .word 0
 388 0068 00000000 	 .word 0
 389 006c 00000000 	 .word 0
 390 0070 00000000 	 .word ESC_eep_handler
 391              	 .section .text.main,"ax",%progbits
 392              	 .align 2
 393              	 .global main
 394              	 .thumb
 395              	 .thumb_func
 397              	main:
 398              	.LFB140:
  98:../main.c     **** 
  99:../main.c     **** /* Configuration parameters for SOES
 100:../main.c     ****  * SM and Mailbox parameters comes from the
 101:../main.c     ****  * generated config.h
 102:../main.c     ****  */
 103:../main.c     **** static esc_cfg_t config =
 104:../main.c     **** {
 105:../main.c     ****    .user_arg = NULL,
 106:../main.c     ****    .use_interrupt = 0,
 107:../main.c     ****    .watchdog_cnt = 5000,
 108:../main.c     ****    .mbxsize = MBXSIZE,
 109:../main.c     ****    .mbxsizeboot = MBXSIZEBOOT,
 110:../main.c     ****    .mbxbuffers = MBXBUFFERS,
 111:../main.c     ****    .mb[0] = {MBX0_sma, MBX0_sml, MBX0_sme, MBX0_smc, 0},
 112:../main.c     ****    .mb[1] = {MBX1_sma, MBX1_sml, MBX1_sme, MBX1_smc, 0},
 113:../main.c     ****    .mb_boot[0] = {MBX0_sma_b, MBX0_sml_b, MBX0_sme_b, MBX0_smc_b, 0},
 114:../main.c     ****    .mb_boot[1] = {MBX1_sma_b, MBX1_sml_b, MBX1_sme_b, MBX1_smc_b, 0},
 115:../main.c     ****    .pdosm[0] = {SM2_sma, 0, 0, SM2_smc, SM2_act},
 116:../main.c     ****    .pdosm[1] = {SM3_sma, 0, 0, SM3_smc, SM3_act},
 117:../main.c     ****    .pre_state_change_hook = NULL,
 118:../main.c     ****    .post_state_change_hook = NULL,
 119:../main.c     ****    .application_hook = NULL,
 120:../main.c     ****    .safeoutput_override = NULL,
 121:../main.c     ****    .pre_object_download_hook = NULL,
 122:../main.c     ****    .post_object_download_hook = NULL,
 123:../main.c     ****    .rxpdo_override = NULL,
 124:../main.c     ****    .txpdo_override = NULL,
 125:../main.c     ****    .esc_hw_interrupt_enable = NULL,
 126:../main.c     ****    .esc_hw_interrupt_disable = NULL,
 127:../main.c     ****    .esc_hw_eep_handler = ESC_eep_handler
 128:../main.c     **** };
 129:../main.c     **** 
 130:../main.c     **** int main(void)
 131:../main.c     **** {
 399              	 .loc 2 131 0
 400              	 .cfi_startproc
 401              	 
 402              	 
 403 0000 80B5     	 push {r7,lr}
 404              	.LCFI22:
 405              	 .cfi_def_cfa_offset 8
 406              	 .cfi_offset 7,-8
 407              	 .cfi_offset 14,-4
 408 0002 00AF     	 add r7,sp,#0
 409              	.LCFI23:
 410              	 .cfi_def_cfa_register 7
 132:../main.c     ****   XMC_GPIO_Init(GPIO_BUTTON1, &gpio_config_btn1);
 411              	 .loc 2 132 0
 412 0004 0F48     	 ldr r0,.L19
 413 0006 0D21     	 movs r1,#13
 414 0008 0F4A     	 ldr r2,.L19+4
 415 000a FFF7FEFF 	 bl XMC_GPIO_Init
 133:../main.c     ****   XMC_GPIO_Init(GPIO_BUTTON2, &gpio_config_btn2);
 416              	 .loc 2 133 0
 417 000e 0D48     	 ldr r0,.L19
 418 0010 0C21     	 movs r1,#12
 419 0012 0E4A     	 ldr r2,.L19+8
 420 0014 FFF7FEFF 	 bl XMC_GPIO_Init
 134:../main.c     **** 
 135:../main.c     ****   XMC_GPIO_Init(GPIO_LED1, &gpio_config_led1);
 421              	 .loc 2 135 0
 422 0018 0D48     	 ldr r0,.L19+12
 423 001a 0E21     	 movs r1,#14
 424 001c 0D4A     	 ldr r2,.L19+16
 425 001e FFF7FEFF 	 bl XMC_GPIO_Init
 136:../main.c     ****   XMC_GPIO_Init(GPIO_LED2, &gpio_config_led2);
 426              	 .loc 2 136 0
 427 0022 0D48     	 ldr r0,.L19+20
 428 0024 0E21     	 movs r1,#14
 429 0026 0D4A     	 ldr r2,.L19+24
 430 0028 FFF7FEFF 	 bl XMC_GPIO_Init
 137:../main.c     ****   XMC_GPIO_Init(GPIO_LED3, &gpio_config_led3);
 431              	 .loc 2 137 0
 432 002c 0C48     	 ldr r0,.L19+28
 433 002e 0E21     	 movs r1,#14
 434 0030 0C4A     	 ldr r2,.L19+32
 435 0032 FFF7FEFF 	 bl XMC_GPIO_Init
 138:../main.c     **** 
 139:../main.c     ****   ecat_slv_init(&config);
 436              	 .loc 2 139 0
 437 0036 0C48     	 ldr r0,.L19+36
 438 0038 FFF7FEFF 	 bl ecat_slv_init
 439              	.L18:
 140:../main.c     **** 
 141:../main.c     ****   while(1)
 142:../main.c     ****   {
 143:../main.c     ****     ecat_slv();
 440              	 .loc 2 143 0 discriminator 1
 441 003c FFF7FEFF 	 bl ecat_slv
 144:../main.c     ****   }
 442              	 .loc 2 144 0 discriminator 1
 443 0040 FCE7     	 b .L18
 444              	.L20:
 445 0042 00BF     	 .align 2
 446              	.L19:
 447 0044 008F0248 	 .word 1208127232
 448 0048 00000000 	 .word gpio_config_btn1
 449 004c 00000000 	 .word gpio_config_btn2
 450 0050 00810248 	 .word 1208123648
 451 0054 00000000 	 .word gpio_config_led1
 452 0058 00800248 	 .word 1208123392
 453 005c 00000000 	 .word gpio_config_led2
 454 0060 00830248 	 .word 1208124160
 455 0064 00000000 	 .word gpio_config_led3
 456 0068 00000000 	 .word config
 457              	 .cfi_endproc
 458              	.LFE140:
 460              	 .text
 461              	.Letext0:
 462              	 .file 3 "c:\\davev4-64bit\\dave-4.3.2\\eclipse\\arm-gcc-49\\lib\\gcc\\arm-none-eabi\\4.9.3\\include\\stddef.h"
 463              	 .file 4 "c:\\davev4-64bit\\dave-4.3.2\\eclipse\\arm-gcc-49\\arm-none-eabi\\include\\machine\\_default_types.h"
 464              	 .file 5 "c:\\davev4-64bit\\dave-4.3.2\\eclipse\\arm-gcc-49\\arm-none-eabi\\include\\stdint.h"
 465              	 .file 6 "C:/Workspaces/SOES-SAMPLE/xmc48_ecatslave/Libraries/XMCLib/inc/xmc4_gpio.h"
 466              	 .file 7 "../utypes.h"
 467              	 .file 8 "C:/Workspaces/SOES-SAMPLE/soes/soes/esc.h"
 468              	 .file 9 "C:/Workspaces/SOES-SAMPLE/xmc48_ecatslave/Libraries/CMSIS/Include/core_cm4.h"