   1              	 .syntax unified
   2              	 .cpu cortex-m4
   3              	 .eabi_attribute 27,3
   4              	 .fpu fpv4-sp-d16
   5              	 .eabi_attribute 20,1
   6              	 .eabi_attribute 21,1
   7              	 .eabi_attribute 23,3
   8              	 .eabi_attribute 24,1
   9              	 .eabi_attribute 25,1
  10              	 .eabi_attribute 26,1
  11              	 .eabi_attribute 30,6
  12              	 .eabi_attribute 34,1
  13              	 .eabi_attribute 18,4
  14              	 .thumb
  15              	 .file "xmc_posif.c"
  16              	 .text
  17              	.Ltext0:
  18              	 .cfi_sections .debug_frame
  19              	 .section .text.XMC_POSIF_Stop,"ax",%progbits
  20              	 .align 2
  21              	 .thumb
  22              	 .thumb_func
  24              	XMC_POSIF_Stop:
  25              	.LFB167:
  26              	 .file 1 "C:/src/bakalarka_workspace/ETHCAT_FWUPDATE_BOOTLOADER_XMC48/Libraries/XMCLib/inc/xmc_posif.h"
   1:C:/src/bakalarka_workspace/ETHCAT_FWUPDATE_BOOTLOADER_XMC48/Libraries/XMCLib/inc\xmc_posif.h **** /**
   2:C:/src/bakalarka_workspace/ETHCAT_FWUPDATE_BOOTLOADER_XMC48/Libraries/XMCLib/inc\xmc_posif.h ****  * @file xmc_posif.h
   3:C:/src/bakalarka_workspace/ETHCAT_FWUPDATE_BOOTLOADER_XMC48/Libraries/XMCLib/inc\xmc_posif.h ****  * @date 2016-03-09
   4:C:/src/bakalarka_workspace/ETHCAT_FWUPDATE_BOOTLOADER_XMC48/Libraries/XMCLib/inc\xmc_posif.h ****  *
   5:C:/src/bakalarka_workspace/ETHCAT_FWUPDATE_BOOTLOADER_XMC48/Libraries/XMCLib/inc\xmc_posif.h ****  * @cond
   6:C:/src/bakalarka_workspace/ETHCAT_FWUPDATE_BOOTLOADER_XMC48/Libraries/XMCLib/inc\xmc_posif.h ****  **********************************************************************************
   7:C:/src/bakalarka_workspace/ETHCAT_FWUPDATE_BOOTLOADER_XMC48/Libraries/XMCLib/inc\xmc_posif.h ****  * XMClib v2.1.8 - XMC Peripheral Driver Library 
   8:C:/src/bakalarka_workspace/ETHCAT_FWUPDATE_BOOTLOADER_XMC48/Libraries/XMCLib/inc\xmc_posif.h ****  *
   9:C:/src/bakalarka_workspace/ETHCAT_FWUPDATE_BOOTLOADER_XMC48/Libraries/XMCLib/inc\xmc_posif.h ****  * Copyright (c) 2015-2016, Infineon Technologies AG
  10:C:/src/bakalarka_workspace/ETHCAT_FWUPDATE_BOOTLOADER_XMC48/Libraries/XMCLib/inc\xmc_posif.h ****  * All rights reserved.                        
  11:C:/src/bakalarka_workspace/ETHCAT_FWUPDATE_BOOTLOADER_XMC48/Libraries/XMCLib/inc\xmc_posif.h ****  *                                             
  12:C:/src/bakalarka_workspace/ETHCAT_FWUPDATE_BOOTLOADER_XMC48/Libraries/XMCLib/inc\xmc_posif.h ****  * Redistribution and use in source and binary forms, with or without           
  13:C:/src/bakalarka_workspace/ETHCAT_FWUPDATE_BOOTLOADER_XMC48/Libraries/XMCLib/inc\xmc_posif.h ****  * modification,are permitted provided that the following conditions are met:   
  14:C:/src/bakalarka_workspace/ETHCAT_FWUPDATE_BOOTLOADER_XMC48/Libraries/XMCLib/inc\xmc_posif.h ****  *                                                                              
  15:C:/src/bakalarka_workspace/ETHCAT_FWUPDATE_BOOTLOADER_XMC48/Libraries/XMCLib/inc\xmc_posif.h ****  *   Redistributions of source code must retain the above copyright notice,      
  16:C:/src/bakalarka_workspace/ETHCAT_FWUPDATE_BOOTLOADER_XMC48/Libraries/XMCLib/inc\xmc_posif.h ****  *   this list of conditions and the following disclaimer.                        
  17:C:/src/bakalarka_workspace/ETHCAT_FWUPDATE_BOOTLOADER_XMC48/Libraries/XMCLib/inc\xmc_posif.h ****  * 
  18:C:/src/bakalarka_workspace/ETHCAT_FWUPDATE_BOOTLOADER_XMC48/Libraries/XMCLib/inc\xmc_posif.h ****  *   Redistributions in binary form must reproduce the above copyright notice,   
  19:C:/src/bakalarka_workspace/ETHCAT_FWUPDATE_BOOTLOADER_XMC48/Libraries/XMCLib/inc\xmc_posif.h ****  *   this list of conditions and the following disclaimer in the documentation    
  20:C:/src/bakalarka_workspace/ETHCAT_FWUPDATE_BOOTLOADER_XMC48/Libraries/XMCLib/inc\xmc_posif.h ****  *   and/or other materials provided with the distribution.                       
  21:C:/src/bakalarka_workspace/ETHCAT_FWUPDATE_BOOTLOADER_XMC48/Libraries/XMCLib/inc\xmc_posif.h ****  * 
  22:C:/src/bakalarka_workspace/ETHCAT_FWUPDATE_BOOTLOADER_XMC48/Libraries/XMCLib/inc\xmc_posif.h ****  *   Neither the name of the copyright holders nor the names of its contributors 
  23:C:/src/bakalarka_workspace/ETHCAT_FWUPDATE_BOOTLOADER_XMC48/Libraries/XMCLib/inc\xmc_posif.h ****  *   may be used to endorse or promote products derived from this software without
  24:C:/src/bakalarka_workspace/ETHCAT_FWUPDATE_BOOTLOADER_XMC48/Libraries/XMCLib/inc\xmc_posif.h ****  *   specific prior written permission.                                           
  25:C:/src/bakalarka_workspace/ETHCAT_FWUPDATE_BOOTLOADER_XMC48/Libraries/XMCLib/inc\xmc_posif.h ****  *                                                                              
  26:C:/src/bakalarka_workspace/ETHCAT_FWUPDATE_BOOTLOADER_XMC48/Libraries/XMCLib/inc\xmc_posif.h ****  * THIS SOFTWARE IS PROVIDED BY THE COPYRIGHT HOLDERS AND CONTRIBUTORS "AS IS"  
  27:C:/src/bakalarka_workspace/ETHCAT_FWUPDATE_BOOTLOADER_XMC48/Libraries/XMCLib/inc\xmc_posif.h ****  * AND ANY EXPRESS OR IMPLIED WARRANTIES, INCLUDING, BUT NOT LIMITED TO, THE    
  28:C:/src/bakalarka_workspace/ETHCAT_FWUPDATE_BOOTLOADER_XMC48/Libraries/XMCLib/inc\xmc_posif.h ****  * IMPLIED WARRANTIES OF MERCHANTABILITY AND FITNESS FOR A PARTICULAR PURPOSE   
  29:C:/src/bakalarka_workspace/ETHCAT_FWUPDATE_BOOTLOADER_XMC48/Libraries/XMCLib/inc\xmc_posif.h ****  * ARE  DISCLAIMED. IN NO EVENT SHALL THE COPYRIGHT HOLDER OR CONTRIBUTORS BE   
  30:C:/src/bakalarka_workspace/ETHCAT_FWUPDATE_BOOTLOADER_XMC48/Libraries/XMCLib/inc\xmc_posif.h ****  * LIABLE  FOR ANY DIRECT, INDIRECT, INCIDENTAL, SPECIAL, EXEMPLARY, OR         
  31:C:/src/bakalarka_workspace/ETHCAT_FWUPDATE_BOOTLOADER_XMC48/Libraries/XMCLib/inc\xmc_posif.h ****  * CONSEQUENTIAL DAMAGES (INCLUDING, BUT NOT LIMITED TO, PROCUREMENT OF         
  32:C:/src/bakalarka_workspace/ETHCAT_FWUPDATE_BOOTLOADER_XMC48/Libraries/XMCLib/inc\xmc_posif.h ****  * SUBSTITUTE GOODS OR  SERVICES; LOSS OF USE, DATA, OR PROFITS; OR BUSINESS    
  33:C:/src/bakalarka_workspace/ETHCAT_FWUPDATE_BOOTLOADER_XMC48/Libraries/XMCLib/inc\xmc_posif.h ****  * INTERRUPTION) HOWEVER CAUSED AND ON ANY THEORY OF LIABILITY, WHETHER IN      
  34:C:/src/bakalarka_workspace/ETHCAT_FWUPDATE_BOOTLOADER_XMC48/Libraries/XMCLib/inc\xmc_posif.h ****  * CONTRACT, STRICT LIABILITY,OR TORT (INCLUDING NEGLIGENCE OR OTHERWISE)       
  35:C:/src/bakalarka_workspace/ETHCAT_FWUPDATE_BOOTLOADER_XMC48/Libraries/XMCLib/inc\xmc_posif.h ****  * ARISING IN ANY WAY OUT OF THE USE OF THIS SOFTWARE, EVEN IF ADVISED OF THE   
  36:C:/src/bakalarka_workspace/ETHCAT_FWUPDATE_BOOTLOADER_XMC48/Libraries/XMCLib/inc\xmc_posif.h ****  * POSSIBILITY OF SUCH DAMAGE.                                                  
  37:C:/src/bakalarka_workspace/ETHCAT_FWUPDATE_BOOTLOADER_XMC48/Libraries/XMCLib/inc\xmc_posif.h ****  *                                                                              
  38:C:/src/bakalarka_workspace/ETHCAT_FWUPDATE_BOOTLOADER_XMC48/Libraries/XMCLib/inc\xmc_posif.h ****  * To improve the quality of the software, users are encouraged to share        
  39:C:/src/bakalarka_workspace/ETHCAT_FWUPDATE_BOOTLOADER_XMC48/Libraries/XMCLib/inc\xmc_posif.h ****  * modifications, enhancements or bug fixes with Infineon Technologies AG       
  40:C:/src/bakalarka_workspace/ETHCAT_FWUPDATE_BOOTLOADER_XMC48/Libraries/XMCLib/inc\xmc_posif.h ****  * dave@infineon.com).                                                          
  41:C:/src/bakalarka_workspace/ETHCAT_FWUPDATE_BOOTLOADER_XMC48/Libraries/XMCLib/inc\xmc_posif.h ****  **********************************************************************************
  42:C:/src/bakalarka_workspace/ETHCAT_FWUPDATE_BOOTLOADER_XMC48/Libraries/XMCLib/inc\xmc_posif.h ****  *
  43:C:/src/bakalarka_workspace/ETHCAT_FWUPDATE_BOOTLOADER_XMC48/Libraries/XMCLib/inc\xmc_posif.h ****  * Change History
  44:C:/src/bakalarka_workspace/ETHCAT_FWUPDATE_BOOTLOADER_XMC48/Libraries/XMCLib/inc\xmc_posif.h ****  * --------------
  45:C:/src/bakalarka_workspace/ETHCAT_FWUPDATE_BOOTLOADER_XMC48/Libraries/XMCLib/inc\xmc_posif.h ****  *
  46:C:/src/bakalarka_workspace/ETHCAT_FWUPDATE_BOOTLOADER_XMC48/Libraries/XMCLib/inc\xmc_posif.h ****  * 2015-02-18:
  47:C:/src/bakalarka_workspace/ETHCAT_FWUPDATE_BOOTLOADER_XMC48/Libraries/XMCLib/inc\xmc_posif.h ****  *     - Initial version
  48:C:/src/bakalarka_workspace/ETHCAT_FWUPDATE_BOOTLOADER_XMC48/Libraries/XMCLib/inc\xmc_posif.h ****  *      
  49:C:/src/bakalarka_workspace/ETHCAT_FWUPDATE_BOOTLOADER_XMC48/Libraries/XMCLib/inc\xmc_posif.h ****  * 2015-02-20:
  50:C:/src/bakalarka_workspace/ETHCAT_FWUPDATE_BOOTLOADER_XMC48/Libraries/XMCLib/inc\xmc_posif.h ****  *     - Driver description added <BR>
  51:C:/src/bakalarka_workspace/ETHCAT_FWUPDATE_BOOTLOADER_XMC48/Libraries/XMCLib/inc\xmc_posif.h ****  *
  52:C:/src/bakalarka_workspace/ETHCAT_FWUPDATE_BOOTLOADER_XMC48/Libraries/XMCLib/inc\xmc_posif.h ****  * 2015-06-19:
  53:C:/src/bakalarka_workspace/ETHCAT_FWUPDATE_BOOTLOADER_XMC48/Libraries/XMCLib/inc\xmc_posif.h ****  *     - Removed version macros and declaration of GetDriverVersion API <BR> 
  54:C:/src/bakalarka_workspace/ETHCAT_FWUPDATE_BOOTLOADER_XMC48/Libraries/XMCLib/inc\xmc_posif.h ****  *
  55:C:/src/bakalarka_workspace/ETHCAT_FWUPDATE_BOOTLOADER_XMC48/Libraries/XMCLib/inc\xmc_posif.h ****  * 2015-07-02:
  56:C:/src/bakalarka_workspace/ETHCAT_FWUPDATE_BOOTLOADER_XMC48/Libraries/XMCLib/inc\xmc_posif.h ****  *     - Updated XMC_POSIF_QD_GetDirection API
  57:C:/src/bakalarka_workspace/ETHCAT_FWUPDATE_BOOTLOADER_XMC48/Libraries/XMCLib/inc\xmc_posif.h ****  *
  58:C:/src/bakalarka_workspace/ETHCAT_FWUPDATE_BOOTLOADER_XMC48/Libraries/XMCLib/inc\xmc_posif.h ****  * 2016-03-09:
  59:C:/src/bakalarka_workspace/ETHCAT_FWUPDATE_BOOTLOADER_XMC48/Libraries/XMCLib/inc\xmc_posif.h ****  *     - Optimization of write only registers
  60:C:/src/bakalarka_workspace/ETHCAT_FWUPDATE_BOOTLOADER_XMC48/Libraries/XMCLib/inc\xmc_posif.h ****  *
  61:C:/src/bakalarka_workspace/ETHCAT_FWUPDATE_BOOTLOADER_XMC48/Libraries/XMCLib/inc\xmc_posif.h ****  * @endcond 
  62:C:/src/bakalarka_workspace/ETHCAT_FWUPDATE_BOOTLOADER_XMC48/Libraries/XMCLib/inc\xmc_posif.h ****  *
  63:C:/src/bakalarka_workspace/ETHCAT_FWUPDATE_BOOTLOADER_XMC48/Libraries/XMCLib/inc\xmc_posif.h ****  */
  64:C:/src/bakalarka_workspace/ETHCAT_FWUPDATE_BOOTLOADER_XMC48/Libraries/XMCLib/inc\xmc_posif.h **** 
  65:C:/src/bakalarka_workspace/ETHCAT_FWUPDATE_BOOTLOADER_XMC48/Libraries/XMCLib/inc\xmc_posif.h **** 
  66:C:/src/bakalarka_workspace/ETHCAT_FWUPDATE_BOOTLOADER_XMC48/Libraries/XMCLib/inc\xmc_posif.h **** #ifndef XMC_POSIF_H
  67:C:/src/bakalarka_workspace/ETHCAT_FWUPDATE_BOOTLOADER_XMC48/Libraries/XMCLib/inc\xmc_posif.h **** #define XMC_POSIF_H
  68:C:/src/bakalarka_workspace/ETHCAT_FWUPDATE_BOOTLOADER_XMC48/Libraries/XMCLib/inc\xmc_posif.h **** 
  69:C:/src/bakalarka_workspace/ETHCAT_FWUPDATE_BOOTLOADER_XMC48/Libraries/XMCLib/inc\xmc_posif.h **** /**************************************************************************************************
  70:C:/src/bakalarka_workspace/ETHCAT_FWUPDATE_BOOTLOADER_XMC48/Libraries/XMCLib/inc\xmc_posif.h ****  * HEADER FILES
  71:C:/src/bakalarka_workspace/ETHCAT_FWUPDATE_BOOTLOADER_XMC48/Libraries/XMCLib/inc\xmc_posif.h ****  **************************************************************************************************
  72:C:/src/bakalarka_workspace/ETHCAT_FWUPDATE_BOOTLOADER_XMC48/Libraries/XMCLib/inc\xmc_posif.h **** #include <xmc_common.h>
  73:C:/src/bakalarka_workspace/ETHCAT_FWUPDATE_BOOTLOADER_XMC48/Libraries/XMCLib/inc\xmc_posif.h **** 
  74:C:/src/bakalarka_workspace/ETHCAT_FWUPDATE_BOOTLOADER_XMC48/Libraries/XMCLib/inc\xmc_posif.h **** #if defined(POSIF0)
  75:C:/src/bakalarka_workspace/ETHCAT_FWUPDATE_BOOTLOADER_XMC48/Libraries/XMCLib/inc\xmc_posif.h **** #include <xmc_scu.h>
  76:C:/src/bakalarka_workspace/ETHCAT_FWUPDATE_BOOTLOADER_XMC48/Libraries/XMCLib/inc\xmc_posif.h **** 
  77:C:/src/bakalarka_workspace/ETHCAT_FWUPDATE_BOOTLOADER_XMC48/Libraries/XMCLib/inc\xmc_posif.h **** /**
  78:C:/src/bakalarka_workspace/ETHCAT_FWUPDATE_BOOTLOADER_XMC48/Libraries/XMCLib/inc\xmc_posif.h ****  * @addtogroup XMClib
  79:C:/src/bakalarka_workspace/ETHCAT_FWUPDATE_BOOTLOADER_XMC48/Libraries/XMCLib/inc\xmc_posif.h ****  * @{
  80:C:/src/bakalarka_workspace/ETHCAT_FWUPDATE_BOOTLOADER_XMC48/Libraries/XMCLib/inc\xmc_posif.h ****  */
  81:C:/src/bakalarka_workspace/ETHCAT_FWUPDATE_BOOTLOADER_XMC48/Libraries/XMCLib/inc\xmc_posif.h **** 
  82:C:/src/bakalarka_workspace/ETHCAT_FWUPDATE_BOOTLOADER_XMC48/Libraries/XMCLib/inc\xmc_posif.h **** /**
  83:C:/src/bakalarka_workspace/ETHCAT_FWUPDATE_BOOTLOADER_XMC48/Libraries/XMCLib/inc\xmc_posif.h ****  * @addtogroup POSIF
  84:C:/src/bakalarka_workspace/ETHCAT_FWUPDATE_BOOTLOADER_XMC48/Libraries/XMCLib/inc\xmc_posif.h ****  * @{
  85:C:/src/bakalarka_workspace/ETHCAT_FWUPDATE_BOOTLOADER_XMC48/Libraries/XMCLib/inc\xmc_posif.h ****  * @brief Position Interface Unit (POSIF) driver for the XMC microcontroller family <br>
  86:C:/src/bakalarka_workspace/ETHCAT_FWUPDATE_BOOTLOADER_XMC48/Libraries/XMCLib/inc\xmc_posif.h ****  *
  87:C:/src/bakalarka_workspace/ETHCAT_FWUPDATE_BOOTLOADER_XMC48/Libraries/XMCLib/inc\xmc_posif.h ****  * The POSIF unit is a flexible and powerful component for motor control systems that use
  88:C:/src/bakalarka_workspace/ETHCAT_FWUPDATE_BOOTLOADER_XMC48/Libraries/XMCLib/inc\xmc_posif.h ****  * rotary encoders or hall sensors as feedback loop. It provides interface for motor position and v
  89:C:/src/bakalarka_workspace/ETHCAT_FWUPDATE_BOOTLOADER_XMC48/Libraries/XMCLib/inc\xmc_posif.h ****  * POSIF unit works with CCU4 and CCU8 to enable position and velocity measurement and to control P
  90:C:/src/bakalarka_workspace/ETHCAT_FWUPDATE_BOOTLOADER_XMC48/Libraries/XMCLib/inc\xmc_posif.h ****  *
  91:C:/src/bakalarka_workspace/ETHCAT_FWUPDATE_BOOTLOADER_XMC48/Libraries/XMCLib/inc\xmc_posif.h ****  * Driver is divided in three POSIF functional blocks - Hall Sensor Control (POSIF_HSC), Quadrature
  92:C:/src/bakalarka_workspace/ETHCAT_FWUPDATE_BOOTLOADER_XMC48/Libraries/XMCLib/inc\xmc_posif.h ****  * MultiChannel Mode (POSIF_MCM). <br>
  93:C:/src/bakalarka_workspace/ETHCAT_FWUPDATE_BOOTLOADER_XMC48/Libraries/XMCLib/inc\xmc_posif.h ****  *
  94:C:/src/bakalarka_workspace/ETHCAT_FWUPDATE_BOOTLOADER_XMC48/Libraries/XMCLib/inc\xmc_posif.h ****  * POSIF driver features:
  95:C:/src/bakalarka_workspace/ETHCAT_FWUPDATE_BOOTLOADER_XMC48/Libraries/XMCLib/inc\xmc_posif.h ****  * -#  Configuration structure XMC_POSIF_CONFIG_t and initialization function XMC_POSIF_Init() to c
  96:C:/src/bakalarka_workspace/ETHCAT_FWUPDATE_BOOTLOADER_XMC48/Libraries/XMCLib/inc\xmc_posif.h ****  * -# Allows to change the operating mode using XMC_POSIF_SetMode()
  97:C:/src/bakalarka_workspace/ETHCAT_FWUPDATE_BOOTLOADER_XMC48/Libraries/XMCLib/inc\xmc_posif.h ****  * -# Allows the selection of one of the four inputs (A, B, C or D) using XMC_POSIF_SelectInputSour
  98:C:/src/bakalarka_workspace/ETHCAT_FWUPDATE_BOOTLOADER_XMC48/Libraries/XMCLib/inc\xmc_posif.h ****  * hall0, hall1 and hall2 signals. For quadrature decoder mode, inputs are phase A, phase B and ind
  99:C:/src/bakalarka_workspace/ETHCAT_FWUPDATE_BOOTLOADER_XMC48/Libraries/XMCLib/inc\xmc_posif.h ****  * -#  Hall Sensor Control (APIs prefixed with XMC_POSIF_HSC_) <br>
 100:C:/src/bakalarka_workspace/ETHCAT_FWUPDATE_BOOTLOADER_XMC48/Libraries/XMCLib/inc\xmc_posif.h ****  * 	-  Configuration structure XMC_POSIF_HSC_CONFIG_t and initialization function XMC_POSIF_HSC_Ini
 101:C:/src/bakalarka_workspace/ETHCAT_FWUPDATE_BOOTLOADER_XMC48/Libraries/XMCLib/inc\xmc_posif.h ****  * 	-  Update current and expected hall pattern in shadow register using XMC_POSIF_HSC_SetHallPatte
 102:C:/src/bakalarka_workspace/ETHCAT_FWUPDATE_BOOTLOADER_XMC48/Libraries/XMCLib/inc\xmc_posif.h ****  * 	- Allows immediate shadow transfer using XMC_POSIF_HSC_UpdateHallPattern()
 103:C:/src/bakalarka_workspace/ETHCAT_FWUPDATE_BOOTLOADER_XMC48/Libraries/XMCLib/inc\xmc_posif.h ****  * -#  Quadrature Decoder (APIs prefixed with XMC_POSIF_QD_) <br>
 104:C:/src/bakalarka_workspace/ETHCAT_FWUPDATE_BOOTLOADER_XMC48/Libraries/XMCLib/inc\xmc_posif.h ****  * 	-  Configuration structure XMC_POSIF_QD_CONFIG_t and initialization function XMC_POSIF_QD_Init(
 105:C:/src/bakalarka_workspace/ETHCAT_FWUPDATE_BOOTLOADER_XMC48/Libraries/XMCLib/inc\xmc_posif.h ****  * 	-  Get direction of rotation using XMC_POSIF_QD_GetDirection()
 106:C:/src/bakalarka_workspace/ETHCAT_FWUPDATE_BOOTLOADER_XMC48/Libraries/XMCLib/inc\xmc_posif.h ****  * -#  MultiChannel Mode (APIs prefixed with XMC_POSIF_MCM_) <br>
 107:C:/src/bakalarka_workspace/ETHCAT_FWUPDATE_BOOTLOADER_XMC48/Libraries/XMCLib/inc\xmc_posif.h ****  *	-  Configuration structure XMC_POSIF_MCM_CONFIG_t and initialization function XMC_POSIF_MCM_Init
 108:C:/src/bakalarka_workspace/ETHCAT_FWUPDATE_BOOTLOADER_XMC48/Libraries/XMCLib/inc\xmc_posif.h ****  *	-  Update multichannel pattern in shadow register using XMC_POSIF_MCM_SetMultiChannelPattern()
 109:C:/src/bakalarka_workspace/ETHCAT_FWUPDATE_BOOTLOADER_XMC48/Libraries/XMCLib/inc\xmc_posif.h ****  *	-  Allows immediate shadow transfer using XMC_POSIF_MCM_UpdateMultiChannelPattern()
 110:C:/src/bakalarka_workspace/ETHCAT_FWUPDATE_BOOTLOADER_XMC48/Libraries/XMCLib/inc\xmc_posif.h ****  * -# User need to call respective init functions to configure POSIF operating mode. e.g to configu
 111:C:/src/bakalarka_workspace/ETHCAT_FWUPDATE_BOOTLOADER_XMC48/Libraries/XMCLib/inc\xmc_posif.h ****  * call both XMC_POSIF_HSC_Init() and XMC_POSIF_MCM_Init().
 112:C:/src/bakalarka_workspace/ETHCAT_FWUPDATE_BOOTLOADER_XMC48/Libraries/XMCLib/inc\xmc_posif.h ****  * -# Allows to enable and disable interrupt sources and assign to service request node using XMC_P
 113:C:/src/bakalarka_workspace/ETHCAT_FWUPDATE_BOOTLOADER_XMC48/Libraries/XMCLib/inc\xmc_posif.h **** 
 114:C:/src/bakalarka_workspace/ETHCAT_FWUPDATE_BOOTLOADER_XMC48/Libraries/XMCLib/inc\xmc_posif.h ****  */
 115:C:/src/bakalarka_workspace/ETHCAT_FWUPDATE_BOOTLOADER_XMC48/Libraries/XMCLib/inc\xmc_posif.h **** /* POSIF is not available on XMC11 and XMC12 devices */
 116:C:/src/bakalarka_workspace/ETHCAT_FWUPDATE_BOOTLOADER_XMC48/Libraries/XMCLib/inc\xmc_posif.h **** 
 117:C:/src/bakalarka_workspace/ETHCAT_FWUPDATE_BOOTLOADER_XMC48/Libraries/XMCLib/inc\xmc_posif.h **** /**************************************************************************************************
 118:C:/src/bakalarka_workspace/ETHCAT_FWUPDATE_BOOTLOADER_XMC48/Libraries/XMCLib/inc\xmc_posif.h ****  * MACROS
 119:C:/src/bakalarka_workspace/ETHCAT_FWUPDATE_BOOTLOADER_XMC48/Libraries/XMCLib/inc\xmc_posif.h ****  **************************************************************************************************
 120:C:/src/bakalarka_workspace/ETHCAT_FWUPDATE_BOOTLOADER_XMC48/Libraries/XMCLib/inc\xmc_posif.h **** #define XMC_POSIF_PCONF_INSEL_Msk        (0x3fUL << POSIF_PCONF_INSEL0_Pos) /*< Mask for input pins
 121:C:/src/bakalarka_workspace/ETHCAT_FWUPDATE_BOOTLOADER_XMC48/Libraries/XMCLib/inc\xmc_posif.h **** #define XMC_POSIF_INSEL_MAX              (4U) /*< Maximum possible input selector */
 122:C:/src/bakalarka_workspace/ETHCAT_FWUPDATE_BOOTLOADER_XMC48/Libraries/XMCLib/inc\xmc_posif.h **** #define XMC_POSIF_HALPS_HALLPAT_Msk      (0x3FUL)
 123:C:/src/bakalarka_workspace/ETHCAT_FWUPDATE_BOOTLOADER_XMC48/Libraries/XMCLib/inc\xmc_posif.h **** 
 124:C:/src/bakalarka_workspace/ETHCAT_FWUPDATE_BOOTLOADER_XMC48/Libraries/XMCLib/inc\xmc_posif.h **** #if ((UC_SERIES == XMC45) || (UC_SERIES == XMC44) || (UC_SERIES == XMC47) || (UC_SERIES == XMC48) |
 125:C:/src/bakalarka_workspace/ETHCAT_FWUPDATE_BOOTLOADER_XMC48/Libraries/XMCLib/inc\xmc_posif.h **** #define XMC_POSIF_CHECK_MODULE_PTR(PTR)  ( ((PTR)== POSIF0) || ((PTR)== POSIF1) ) /*< Check for val
 126:C:/src/bakalarka_workspace/ETHCAT_FWUPDATE_BOOTLOADER_XMC48/Libraries/XMCLib/inc\xmc_posif.h **** #else
 127:C:/src/bakalarka_workspace/ETHCAT_FWUPDATE_BOOTLOADER_XMC48/Libraries/XMCLib/inc\xmc_posif.h **** #define XMC_POSIF_CHECK_MODULE_PTR(PTR)  ( ((PTR)== POSIF0))  /*< Check for valid module pointer */
 128:C:/src/bakalarka_workspace/ETHCAT_FWUPDATE_BOOTLOADER_XMC48/Libraries/XMCLib/inc\xmc_posif.h **** #endif
 129:C:/src/bakalarka_workspace/ETHCAT_FWUPDATE_BOOTLOADER_XMC48/Libraries/XMCLib/inc\xmc_posif.h **** 
 130:C:/src/bakalarka_workspace/ETHCAT_FWUPDATE_BOOTLOADER_XMC48/Libraries/XMCLib/inc\xmc_posif.h **** /**************************************************************************************************
 131:C:/src/bakalarka_workspace/ETHCAT_FWUPDATE_BOOTLOADER_XMC48/Libraries/XMCLib/inc\xmc_posif.h ****  * ENUMS
 132:C:/src/bakalarka_workspace/ETHCAT_FWUPDATE_BOOTLOADER_XMC48/Libraries/XMCLib/inc\xmc_posif.h ****  **************************************************************************************************
 133:C:/src/bakalarka_workspace/ETHCAT_FWUPDATE_BOOTLOADER_XMC48/Libraries/XMCLib/inc\xmc_posif.h **** /**
 134:C:/src/bakalarka_workspace/ETHCAT_FWUPDATE_BOOTLOADER_XMC48/Libraries/XMCLib/inc\xmc_posif.h ****  *  Defines the return status, to verify the POSIF related API calls. Use type @ref XMC_POSIF_STATU
 135:C:/src/bakalarka_workspace/ETHCAT_FWUPDATE_BOOTLOADER_XMC48/Libraries/XMCLib/inc\xmc_posif.h ****  */
 136:C:/src/bakalarka_workspace/ETHCAT_FWUPDATE_BOOTLOADER_XMC48/Libraries/XMCLib/inc\xmc_posif.h **** typedef enum XMC_POSIF_STATUS
 137:C:/src/bakalarka_workspace/ETHCAT_FWUPDATE_BOOTLOADER_XMC48/Libraries/XMCLib/inc\xmc_posif.h **** {
 138:C:/src/bakalarka_workspace/ETHCAT_FWUPDATE_BOOTLOADER_XMC48/Libraries/XMCLib/inc\xmc_posif.h ****   XMC_POSIF_STATUS_OK = 0U,     /**< API fulfills request */
 139:C:/src/bakalarka_workspace/ETHCAT_FWUPDATE_BOOTLOADER_XMC48/Libraries/XMCLib/inc\xmc_posif.h ****   XMC_POSIF_STATUS_ERROR        /**< API cannot fulfill request */
 140:C:/src/bakalarka_workspace/ETHCAT_FWUPDATE_BOOTLOADER_XMC48/Libraries/XMCLib/inc\xmc_posif.h **** } XMC_POSIF_STATUS_t;
 141:C:/src/bakalarka_workspace/ETHCAT_FWUPDATE_BOOTLOADER_XMC48/Libraries/XMCLib/inc\xmc_posif.h **** 
 142:C:/src/bakalarka_workspace/ETHCAT_FWUPDATE_BOOTLOADER_XMC48/Libraries/XMCLib/inc\xmc_posif.h **** /**
 143:C:/src/bakalarka_workspace/ETHCAT_FWUPDATE_BOOTLOADER_XMC48/Libraries/XMCLib/inc\xmc_posif.h ****  * Defines POSIF configurable modes.Use type @ref XMC_POSIF_MODE_t for this enum.
 144:C:/src/bakalarka_workspace/ETHCAT_FWUPDATE_BOOTLOADER_XMC48/Libraries/XMCLib/inc\xmc_posif.h ****  * The members defines the function selector(FSEL) bitfields of \a PCONF register.
 145:C:/src/bakalarka_workspace/ETHCAT_FWUPDATE_BOOTLOADER_XMC48/Libraries/XMCLib/inc\xmc_posif.h ****  */
 146:C:/src/bakalarka_workspace/ETHCAT_FWUPDATE_BOOTLOADER_XMC48/Libraries/XMCLib/inc\xmc_posif.h **** typedef enum XMC_POSIF_MODE
 147:C:/src/bakalarka_workspace/ETHCAT_FWUPDATE_BOOTLOADER_XMC48/Libraries/XMCLib/inc\xmc_posif.h **** {
 148:C:/src/bakalarka_workspace/ETHCAT_FWUPDATE_BOOTLOADER_XMC48/Libraries/XMCLib/inc\xmc_posif.h ****   XMC_POSIF_MODE_HALL_SENSOR = 0U, /**< Hall sensor mode */
 149:C:/src/bakalarka_workspace/ETHCAT_FWUPDATE_BOOTLOADER_XMC48/Libraries/XMCLib/inc\xmc_posif.h ****   XMC_POSIF_MODE_QD              , /**< Quadrature Decoder mode */
 150:C:/src/bakalarka_workspace/ETHCAT_FWUPDATE_BOOTLOADER_XMC48/Libraries/XMCLib/inc\xmc_posif.h ****   XMC_POSIF_MODE_MCM             , /**< Standalone Multichannel mode */
 151:C:/src/bakalarka_workspace/ETHCAT_FWUPDATE_BOOTLOADER_XMC48/Libraries/XMCLib/inc\xmc_posif.h ****   XMC_POSIF_MODE_MCM_QD           /**< Quadrature Decoder + Standalone Multichannel mode */
 152:C:/src/bakalarka_workspace/ETHCAT_FWUPDATE_BOOTLOADER_XMC48/Libraries/XMCLib/inc\xmc_posif.h **** } XMC_POSIF_MODE_t;
 153:C:/src/bakalarka_workspace/ETHCAT_FWUPDATE_BOOTLOADER_XMC48/Libraries/XMCLib/inc\xmc_posif.h **** 
 154:C:/src/bakalarka_workspace/ETHCAT_FWUPDATE_BOOTLOADER_XMC48/Libraries/XMCLib/inc\xmc_posif.h **** /**
 155:C:/src/bakalarka_workspace/ETHCAT_FWUPDATE_BOOTLOADER_XMC48/Libraries/XMCLib/inc\xmc_posif.h ****  * Defines POSIF configurable input ports.Use type @ref XMC_POSIF_INPUT_PORT_t for this enum.
 156:C:/src/bakalarka_workspace/ETHCAT_FWUPDATE_BOOTLOADER_XMC48/Libraries/XMCLib/inc\xmc_posif.h ****  * The member defines the respective input selector(INSELX) bitfields of \a PCONF register.
 157:C:/src/bakalarka_workspace/ETHCAT_FWUPDATE_BOOTLOADER_XMC48/Libraries/XMCLib/inc\xmc_posif.h ****  * It selects, which input is used for the phase or Hall input function (depending on the module is
 158:C:/src/bakalarka_workspace/ETHCAT_FWUPDATE_BOOTLOADER_XMC48/Libraries/XMCLib/inc\xmc_posif.h ****  * Quadrature Decoder or Hall Sensor Mode). Same enum can be used to configure pattern update signa
 159:C:/src/bakalarka_workspace/ETHCAT_FWUPDATE_BOOTLOADER_XMC48/Libraries/XMCLib/inc\xmc_posif.h ****  * \a PCONF register's \a MSETS bit field.
 160:C:/src/bakalarka_workspace/ETHCAT_FWUPDATE_BOOTLOADER_XMC48/Libraries/XMCLib/inc\xmc_posif.h ****  */
 161:C:/src/bakalarka_workspace/ETHCAT_FWUPDATE_BOOTLOADER_XMC48/Libraries/XMCLib/inc\xmc_posif.h **** typedef enum XMC_POSIF_INPUT_PORT
 162:C:/src/bakalarka_workspace/ETHCAT_FWUPDATE_BOOTLOADER_XMC48/Libraries/XMCLib/inc\xmc_posif.h **** {
 163:C:/src/bakalarka_workspace/ETHCAT_FWUPDATE_BOOTLOADER_XMC48/Libraries/XMCLib/inc\xmc_posif.h ****   XMC_POSIF_INPUT_PORT_A = 0U, /**< INPUT-A */
 164:C:/src/bakalarka_workspace/ETHCAT_FWUPDATE_BOOTLOADER_XMC48/Libraries/XMCLib/inc\xmc_posif.h ****   XMC_POSIF_INPUT_PORT_B     , /**< INPUT-B */
 165:C:/src/bakalarka_workspace/ETHCAT_FWUPDATE_BOOTLOADER_XMC48/Libraries/XMCLib/inc\xmc_posif.h ****   XMC_POSIF_INPUT_PORT_C     , /**< INPUT-C */
 166:C:/src/bakalarka_workspace/ETHCAT_FWUPDATE_BOOTLOADER_XMC48/Libraries/XMCLib/inc\xmc_posif.h ****   XMC_POSIF_INPUT_PORT_D     , /**< INPUT-D */
 167:C:/src/bakalarka_workspace/ETHCAT_FWUPDATE_BOOTLOADER_XMC48/Libraries/XMCLib/inc\xmc_posif.h ****   XMC_POSIF_INPUT_PORT_E     , /**< INPUT-E */
 168:C:/src/bakalarka_workspace/ETHCAT_FWUPDATE_BOOTLOADER_XMC48/Libraries/XMCLib/inc\xmc_posif.h ****   XMC_POSIF_INPUT_PORT_F     , /**< INPUT-F */
 169:C:/src/bakalarka_workspace/ETHCAT_FWUPDATE_BOOTLOADER_XMC48/Libraries/XMCLib/inc\xmc_posif.h ****   XMC_POSIF_INPUT_PORT_G     , /**< INPUT-G */
 170:C:/src/bakalarka_workspace/ETHCAT_FWUPDATE_BOOTLOADER_XMC48/Libraries/XMCLib/inc\xmc_posif.h ****   XMC_POSIF_INPUT_PORT_H       /**< INPUT-H */
 171:C:/src/bakalarka_workspace/ETHCAT_FWUPDATE_BOOTLOADER_XMC48/Libraries/XMCLib/inc\xmc_posif.h **** } XMC_POSIF_INPUT_PORT_t;
 172:C:/src/bakalarka_workspace/ETHCAT_FWUPDATE_BOOTLOADER_XMC48/Libraries/XMCLib/inc\xmc_posif.h **** 
 173:C:/src/bakalarka_workspace/ETHCAT_FWUPDATE_BOOTLOADER_XMC48/Libraries/XMCLib/inc\xmc_posif.h **** /**
 174:C:/src/bakalarka_workspace/ETHCAT_FWUPDATE_BOOTLOADER_XMC48/Libraries/XMCLib/inc\xmc_posif.h ****  *  Defines active level of an input signal.Use type @ref XMC_POSIF_INPUT_ACTIVE_LEVEL_t for this e
 175:C:/src/bakalarka_workspace/ETHCAT_FWUPDATE_BOOTLOADER_XMC48/Libraries/XMCLib/inc\xmc_posif.h ****  */
 176:C:/src/bakalarka_workspace/ETHCAT_FWUPDATE_BOOTLOADER_XMC48/Libraries/XMCLib/inc\xmc_posif.h **** typedef enum XMC_POSIF_INPUT_ACTIVE_LEVEL
 177:C:/src/bakalarka_workspace/ETHCAT_FWUPDATE_BOOTLOADER_XMC48/Libraries/XMCLib/inc\xmc_posif.h **** {
 178:C:/src/bakalarka_workspace/ETHCAT_FWUPDATE_BOOTLOADER_XMC48/Libraries/XMCLib/inc\xmc_posif.h ****   XMC_POSIF_INPUT_ACTIVE_LEVEL_HIGH  = 0U, /**< Input - Active High */
 179:C:/src/bakalarka_workspace/ETHCAT_FWUPDATE_BOOTLOADER_XMC48/Libraries/XMCLib/inc\xmc_posif.h ****   XMC_POSIF_INPUT_ACTIVE_LEVEL_LOW         /**< Input - Active Low */
 180:C:/src/bakalarka_workspace/ETHCAT_FWUPDATE_BOOTLOADER_XMC48/Libraries/XMCLib/inc\xmc_posif.h **** } XMC_POSIF_INPUT_ACTIVE_LEVEL_t;
 181:C:/src/bakalarka_workspace/ETHCAT_FWUPDATE_BOOTLOADER_XMC48/Libraries/XMCLib/inc\xmc_posif.h **** 
 182:C:/src/bakalarka_workspace/ETHCAT_FWUPDATE_BOOTLOADER_XMC48/Libraries/XMCLib/inc\xmc_posif.h **** /**
 183:C:/src/bakalarka_workspace/ETHCAT_FWUPDATE_BOOTLOADER_XMC48/Libraries/XMCLib/inc\xmc_posif.h ****  * Defines POSIF input debounce filter configuration.POSIF inputs are connected to low pass filter 
 184:C:/src/bakalarka_workspace/ETHCAT_FWUPDATE_BOOTLOADER_XMC48/Libraries/XMCLib/inc\xmc_posif.h ****  * this enum is used to configure low pass filters cut off frequency.
 185:C:/src/bakalarka_workspace/ETHCAT_FWUPDATE_BOOTLOADER_XMC48/Libraries/XMCLib/inc\xmc_posif.h ****  * Use type @ref XMC_POSIF_FILTER_t for this enum.
 186:C:/src/bakalarka_workspace/ETHCAT_FWUPDATE_BOOTLOADER_XMC48/Libraries/XMCLib/inc\xmc_posif.h ****  * The member defines the low pass filter configuration(LPC) bitfield of \a PCONF register.
 187:C:/src/bakalarka_workspace/ETHCAT_FWUPDATE_BOOTLOADER_XMC48/Libraries/XMCLib/inc\xmc_posif.h ****  */
 188:C:/src/bakalarka_workspace/ETHCAT_FWUPDATE_BOOTLOADER_XMC48/Libraries/XMCLib/inc\xmc_posif.h **** typedef enum XMC_POSIF_FILTER
 189:C:/src/bakalarka_workspace/ETHCAT_FWUPDATE_BOOTLOADER_XMC48/Libraries/XMCLib/inc\xmc_posif.h **** {
 190:C:/src/bakalarka_workspace/ETHCAT_FWUPDATE_BOOTLOADER_XMC48/Libraries/XMCLib/inc\xmc_posif.h ****   XMC_POSIF_FILTER_DISABLED     = 0U, /**< No filtering */
 191:C:/src/bakalarka_workspace/ETHCAT_FWUPDATE_BOOTLOADER_XMC48/Libraries/XMCLib/inc\xmc_posif.h ****   XMC_POSIF_FILTER_1_CLOCK_CYCLE    , /**< Filter of 1 Clock Cycle */
 192:C:/src/bakalarka_workspace/ETHCAT_FWUPDATE_BOOTLOADER_XMC48/Libraries/XMCLib/inc\xmc_posif.h ****   XMC_POSIF_FILTER_2_CLOCK_CYCLE    , /**< Filter of 2 Clock Cycles */
 193:C:/src/bakalarka_workspace/ETHCAT_FWUPDATE_BOOTLOADER_XMC48/Libraries/XMCLib/inc\xmc_posif.h ****   XMC_POSIF_FILTER_4_CLOCK_CYCLE    , /**< Filter of 4 Clock Cycles */
 194:C:/src/bakalarka_workspace/ETHCAT_FWUPDATE_BOOTLOADER_XMC48/Libraries/XMCLib/inc\xmc_posif.h ****   XMC_POSIF_FILTER_8_CLOCK_CYCLE    , /**< Filter of 8 Clock Cycles */
 195:C:/src/bakalarka_workspace/ETHCAT_FWUPDATE_BOOTLOADER_XMC48/Libraries/XMCLib/inc\xmc_posif.h ****   XMC_POSIF_FILTER_16_CLOCK_CYCLE   , /**< Filter of 16 Clock Cycles */
 196:C:/src/bakalarka_workspace/ETHCAT_FWUPDATE_BOOTLOADER_XMC48/Libraries/XMCLib/inc\xmc_posif.h ****   XMC_POSIF_FILTER_32_CLOCK_CYCLE   , /**< Filter of 32 Clock Cycles */
 197:C:/src/bakalarka_workspace/ETHCAT_FWUPDATE_BOOTLOADER_XMC48/Libraries/XMCLib/inc\xmc_posif.h ****   XMC_POSIF_FILTER_64_CLOCK_CYCLE     /**< Filter of 64 Clock Cycles */
 198:C:/src/bakalarka_workspace/ETHCAT_FWUPDATE_BOOTLOADER_XMC48/Libraries/XMCLib/inc\xmc_posif.h **** } XMC_POSIF_FILTER_t;
 199:C:/src/bakalarka_workspace/ETHCAT_FWUPDATE_BOOTLOADER_XMC48/Libraries/XMCLib/inc\xmc_posif.h **** 
 200:C:/src/bakalarka_workspace/ETHCAT_FWUPDATE_BOOTLOADER_XMC48/Libraries/XMCLib/inc\xmc_posif.h **** /**
 201:C:/src/bakalarka_workspace/ETHCAT_FWUPDATE_BOOTLOADER_XMC48/Libraries/XMCLib/inc\xmc_posif.h ****  * Defines POSIF events.Use type @ref XMC_POSIF_IRQ_EVENT_t for this enum.
 202:C:/src/bakalarka_workspace/ETHCAT_FWUPDATE_BOOTLOADER_XMC48/Libraries/XMCLib/inc\xmc_posif.h ****  * The member defines available event sources.It is used to configure which event to be used for
 203:C:/src/bakalarka_workspace/ETHCAT_FWUPDATE_BOOTLOADER_XMC48/Libraries/XMCLib/inc\xmc_posif.h ****  * interrupt generation using \a PFLGE register. [ PFLG,SPFLG,RPFLG]
 204:C:/src/bakalarka_workspace/ETHCAT_FWUPDATE_BOOTLOADER_XMC48/Libraries/XMCLib/inc\xmc_posif.h ****  */
 205:C:/src/bakalarka_workspace/ETHCAT_FWUPDATE_BOOTLOADER_XMC48/Libraries/XMCLib/inc\xmc_posif.h **** typedef enum XMC_POSIF_IRQ_EVENT
 206:C:/src/bakalarka_workspace/ETHCAT_FWUPDATE_BOOTLOADER_XMC48/Libraries/XMCLib/inc\xmc_posif.h **** {
 207:C:/src/bakalarka_workspace/ETHCAT_FWUPDATE_BOOTLOADER_XMC48/Libraries/XMCLib/inc\xmc_posif.h ****   XMC_POSIF_IRQ_EVENT_CHE                  = 0U, /**< Hall Mode : Correct Hall Event */
 208:C:/src/bakalarka_workspace/ETHCAT_FWUPDATE_BOOTLOADER_XMC48/Libraries/XMCLib/inc\xmc_posif.h ****   XMC_POSIF_IRQ_EVENT_WHE                  = 1U, /**< Hall Mode : Wrong Hall Event */
 209:C:/src/bakalarka_workspace/ETHCAT_FWUPDATE_BOOTLOADER_XMC48/Libraries/XMCLib/inc\xmc_posif.h ****   XMC_POSIF_IRQ_EVENT_HALL_INPUT           = 2U, /**< Hall Mode : Hall Input update */
 210:C:/src/bakalarka_workspace/ETHCAT_FWUPDATE_BOOTLOADER_XMC48/Libraries/XMCLib/inc\xmc_posif.h ****   XMC_POSIF_IRQ_EVENT_MCP_SHADOW_TRANSFER  = 4U, /**< Hall Mode + MCM Mode : MC Pattern shadow tran
 211:C:/src/bakalarka_workspace/ETHCAT_FWUPDATE_BOOTLOADER_XMC48/Libraries/XMCLib/inc\xmc_posif.h ****   XMC_POSIF_IRQ_EVENT_INDX                 = 8U, /**< Quadrature Mode : Index event detection */
 212:C:/src/bakalarka_workspace/ETHCAT_FWUPDATE_BOOTLOADER_XMC48/Libraries/XMCLib/inc\xmc_posif.h ****   XMC_POSIF_IRQ_EVENT_ERR                  = 9U, /**< Quadrature Mode : Quadrature Phase Error */
 213:C:/src/bakalarka_workspace/ETHCAT_FWUPDATE_BOOTLOADER_XMC48/Libraries/XMCLib/inc\xmc_posif.h ****   XMC_POSIF_IRQ_EVENT_CNT                  = 10U, /**< Quadrature Mode : Quadrature Clock event */
 214:C:/src/bakalarka_workspace/ETHCAT_FWUPDATE_BOOTLOADER_XMC48/Libraries/XMCLib/inc\xmc_posif.h ****   XMC_POSIF_IRQ_EVENT_DIR                  = 11U, /**< Quadrature Mode : Quadrature Direction chang
 215:C:/src/bakalarka_workspace/ETHCAT_FWUPDATE_BOOTLOADER_XMC48/Libraries/XMCLib/inc\xmc_posif.h ****   XMC_POSIF_IRQ_EVENT_PCLK                 = 12U  /**< Quadrature Mode : Quadrature period clock ge
 216:C:/src/bakalarka_workspace/ETHCAT_FWUPDATE_BOOTLOADER_XMC48/Libraries/XMCLib/inc\xmc_posif.h **** } XMC_POSIF_IRQ_EVENT_t;
 217:C:/src/bakalarka_workspace/ETHCAT_FWUPDATE_BOOTLOADER_XMC48/Libraries/XMCLib/inc\xmc_posif.h **** 
 218:C:/src/bakalarka_workspace/ETHCAT_FWUPDATE_BOOTLOADER_XMC48/Libraries/XMCLib/inc\xmc_posif.h **** /**
 219:C:/src/bakalarka_workspace/ETHCAT_FWUPDATE_BOOTLOADER_XMC48/Libraries/XMCLib/inc\xmc_posif.h ****  * Defines POSIF service request lines.Use type @ref XMC_POSIF_SR_ID_t for this enum.
 220:C:/src/bakalarka_workspace/ETHCAT_FWUPDATE_BOOTLOADER_XMC48/Libraries/XMCLib/inc\xmc_posif.h ****  * It used to connect POSIF event to required service request line.
 221:C:/src/bakalarka_workspace/ETHCAT_FWUPDATE_BOOTLOADER_XMC48/Libraries/XMCLib/inc\xmc_posif.h ****  * in \a PFLGE register for interrupt generation.
 222:C:/src/bakalarka_workspace/ETHCAT_FWUPDATE_BOOTLOADER_XMC48/Libraries/XMCLib/inc\xmc_posif.h ****  */
 223:C:/src/bakalarka_workspace/ETHCAT_FWUPDATE_BOOTLOADER_XMC48/Libraries/XMCLib/inc\xmc_posif.h **** typedef enum XMC_POSIF_SR_ID
 224:C:/src/bakalarka_workspace/ETHCAT_FWUPDATE_BOOTLOADER_XMC48/Libraries/XMCLib/inc\xmc_posif.h **** {
 225:C:/src/bakalarka_workspace/ETHCAT_FWUPDATE_BOOTLOADER_XMC48/Libraries/XMCLib/inc\xmc_posif.h ****   XMC_POSIF_SR_ID_0 = 0U, /**< SR-0 */
 226:C:/src/bakalarka_workspace/ETHCAT_FWUPDATE_BOOTLOADER_XMC48/Libraries/XMCLib/inc\xmc_posif.h ****   XMC_POSIF_SR_ID_1      /**< SR-1 */
 227:C:/src/bakalarka_workspace/ETHCAT_FWUPDATE_BOOTLOADER_XMC48/Libraries/XMCLib/inc\xmc_posif.h **** } XMC_POSIF_SR_ID_t;
 228:C:/src/bakalarka_workspace/ETHCAT_FWUPDATE_BOOTLOADER_XMC48/Libraries/XMCLib/inc\xmc_posif.h **** 
 229:C:/src/bakalarka_workspace/ETHCAT_FWUPDATE_BOOTLOADER_XMC48/Libraries/XMCLib/inc\xmc_posif.h **** /**
 230:C:/src/bakalarka_workspace/ETHCAT_FWUPDATE_BOOTLOADER_XMC48/Libraries/XMCLib/inc\xmc_posif.h ****  * Defines position decoder mode selection.Use type @ref XMC_POSIF_QD_MODE_t for this enum.
 231:C:/src/bakalarka_workspace/ETHCAT_FWUPDATE_BOOTLOADER_XMC48/Libraries/XMCLib/inc\xmc_posif.h ****  * The member defines configuration for the operation of the quadrature decoder mode.
 232:C:/src/bakalarka_workspace/ETHCAT_FWUPDATE_BOOTLOADER_XMC48/Libraries/XMCLib/inc\xmc_posif.h ****  * It used to configure \a QDC register.
 233:C:/src/bakalarka_workspace/ETHCAT_FWUPDATE_BOOTLOADER_XMC48/Libraries/XMCLib/inc\xmc_posif.h ****  */
 234:C:/src/bakalarka_workspace/ETHCAT_FWUPDATE_BOOTLOADER_XMC48/Libraries/XMCLib/inc\xmc_posif.h **** typedef enum XMC_POSIF_QD_MODE
 235:C:/src/bakalarka_workspace/ETHCAT_FWUPDATE_BOOTLOADER_XMC48/Libraries/XMCLib/inc\xmc_posif.h **** {
 236:C:/src/bakalarka_workspace/ETHCAT_FWUPDATE_BOOTLOADER_XMC48/Libraries/XMCLib/inc\xmc_posif.h ****   XMC_POSIF_QD_MODE_QUADRATURE       = 0U, /**< Standard Quadrature Mode */
 237:C:/src/bakalarka_workspace/ETHCAT_FWUPDATE_BOOTLOADER_XMC48/Libraries/XMCLib/inc\xmc_posif.h ****   XMC_POSIF_QD_MODE_DIRECTION_COUNT       /**< Direction Count Mode */
 238:C:/src/bakalarka_workspace/ETHCAT_FWUPDATE_BOOTLOADER_XMC48/Libraries/XMCLib/inc\xmc_posif.h **** } XMC_POSIF_QD_MODE_t;
 239:C:/src/bakalarka_workspace/ETHCAT_FWUPDATE_BOOTLOADER_XMC48/Libraries/XMCLib/inc\xmc_posif.h **** 
 240:C:/src/bakalarka_workspace/ETHCAT_FWUPDATE_BOOTLOADER_XMC48/Libraries/XMCLib/inc\xmc_posif.h **** /**
 241:C:/src/bakalarka_workspace/ETHCAT_FWUPDATE_BOOTLOADER_XMC48/Libraries/XMCLib/inc\xmc_posif.h ****  * Defines motor rotation direction.Use type @ref XMC_POSIF_QD_DIR_t for this enum.
 242:C:/src/bakalarka_workspace/ETHCAT_FWUPDATE_BOOTLOADER_XMC48/Libraries/XMCLib/inc\xmc_posif.h ****  * The member defines the direction in quadrature mode.
 243:C:/src/bakalarka_workspace/ETHCAT_FWUPDATE_BOOTLOADER_XMC48/Libraries/XMCLib/inc\xmc_posif.h ****  */
 244:C:/src/bakalarka_workspace/ETHCAT_FWUPDATE_BOOTLOADER_XMC48/Libraries/XMCLib/inc\xmc_posif.h **** typedef enum XMC_POSIF_QD_DIR
 245:C:/src/bakalarka_workspace/ETHCAT_FWUPDATE_BOOTLOADER_XMC48/Libraries/XMCLib/inc\xmc_posif.h **** {
 246:C:/src/bakalarka_workspace/ETHCAT_FWUPDATE_BOOTLOADER_XMC48/Libraries/XMCLib/inc\xmc_posif.h ****   XMC_POSIF_QD_DIR_COUNTERCLOCKWISE  = 0U, /**< Counter Clockwise */
 247:C:/src/bakalarka_workspace/ETHCAT_FWUPDATE_BOOTLOADER_XMC48/Libraries/XMCLib/inc\xmc_posif.h ****   XMC_POSIF_QD_DIR_CLOCKWISE              /**< Clockwise */
 248:C:/src/bakalarka_workspace/ETHCAT_FWUPDATE_BOOTLOADER_XMC48/Libraries/XMCLib/inc\xmc_posif.h **** } XMC_POSIF_QD_DIR_t;
 249:C:/src/bakalarka_workspace/ETHCAT_FWUPDATE_BOOTLOADER_XMC48/Libraries/XMCLib/inc\xmc_posif.h **** 
 250:C:/src/bakalarka_workspace/ETHCAT_FWUPDATE_BOOTLOADER_XMC48/Libraries/XMCLib/inc\xmc_posif.h **** /**
 251:C:/src/bakalarka_workspace/ETHCAT_FWUPDATE_BOOTLOADER_XMC48/Libraries/XMCLib/inc\xmc_posif.h ****  * Defines frequency of index signal generation.Use type @ref XMC_POSIF_QD_INDEX_GENERATION_t for t
 252:C:/src/bakalarka_workspace/ETHCAT_FWUPDATE_BOOTLOADER_XMC48/Libraries/XMCLib/inc\xmc_posif.h ****  * Member represents available configuration for index marker generation using \a ICM  bit field in
 253:C:/src/bakalarka_workspace/ETHCAT_FWUPDATE_BOOTLOADER_XMC48/Libraries/XMCLib/inc\xmc_posif.h ****  */
 254:C:/src/bakalarka_workspace/ETHCAT_FWUPDATE_BOOTLOADER_XMC48/Libraries/XMCLib/inc\xmc_posif.h **** typedef enum XMC_POSIF_QD_INDEX_GENERATION
 255:C:/src/bakalarka_workspace/ETHCAT_FWUPDATE_BOOTLOADER_XMC48/Libraries/XMCLib/inc\xmc_posif.h **** {
 256:C:/src/bakalarka_workspace/ETHCAT_FWUPDATE_BOOTLOADER_XMC48/Libraries/XMCLib/inc\xmc_posif.h ****   XMC_POSIF_QD_INDEX_GENERATION_NEVER  = 0U, /**< Never generate the index marker signal */
 257:C:/src/bakalarka_workspace/ETHCAT_FWUPDATE_BOOTLOADER_XMC48/Libraries/XMCLib/inc\xmc_posif.h ****   XMC_POSIF_QD_INDEX_GENERATION_ONCE      , /**< Generate only once after the first revolution */
 258:C:/src/bakalarka_workspace/ETHCAT_FWUPDATE_BOOTLOADER_XMC48/Libraries/XMCLib/inc\xmc_posif.h ****   XMC_POSIF_QD_INDEX_GENERATION_ALWAYS      /**< Index marker generated upon every revolution */
 259:C:/src/bakalarka_workspace/ETHCAT_FWUPDATE_BOOTLOADER_XMC48/Libraries/XMCLib/inc\xmc_posif.h **** } XMC_POSIF_QD_INDEX_GENERATION_t;
 260:C:/src/bakalarka_workspace/ETHCAT_FWUPDATE_BOOTLOADER_XMC48/Libraries/XMCLib/inc\xmc_posif.h **** 
 261:C:/src/bakalarka_workspace/ETHCAT_FWUPDATE_BOOTLOADER_XMC48/Libraries/XMCLib/inc\xmc_posif.h **** /**
 262:C:/src/bakalarka_workspace/ETHCAT_FWUPDATE_BOOTLOADER_XMC48/Libraries/XMCLib/inc\xmc_posif.h ****  *  Defines trigger edge in hall sensor mode.Use type @ref XMC_POSIF_HSC_TRIGGER_EDGE_t for this en
 263:C:/src/bakalarka_workspace/ETHCAT_FWUPDATE_BOOTLOADER_XMC48/Libraries/XMCLib/inc\xmc_posif.h ****  *  It can be used to configure \a PCONF register's \a SPES and \a MSES bit fields.
 264:C:/src/bakalarka_workspace/ETHCAT_FWUPDATE_BOOTLOADER_XMC48/Libraries/XMCLib/inc\xmc_posif.h ****  */
 265:C:/src/bakalarka_workspace/ETHCAT_FWUPDATE_BOOTLOADER_XMC48/Libraries/XMCLib/inc\xmc_posif.h **** typedef enum XMC_POSIF_HSC_TRIGGER_EDGE
 266:C:/src/bakalarka_workspace/ETHCAT_FWUPDATE_BOOTLOADER_XMC48/Libraries/XMCLib/inc\xmc_posif.h **** {
 267:C:/src/bakalarka_workspace/ETHCAT_FWUPDATE_BOOTLOADER_XMC48/Libraries/XMCLib/inc\xmc_posif.h ****   XMC_POSIF_HSC_TRIGGER_EDGE_RISING  = 0U, /**< Rising edge */
 268:C:/src/bakalarka_workspace/ETHCAT_FWUPDATE_BOOTLOADER_XMC48/Libraries/XMCLib/inc\xmc_posif.h ****   XMC_POSIF_HSC_TRIGGER_EDGE_FALLING      /**< Falling edge */
 269:C:/src/bakalarka_workspace/ETHCAT_FWUPDATE_BOOTLOADER_XMC48/Libraries/XMCLib/inc\xmc_posif.h **** } XMC_POSIF_HSC_TRIGGER_EDGE_t;
 270:C:/src/bakalarka_workspace/ETHCAT_FWUPDATE_BOOTLOADER_XMC48/Libraries/XMCLib/inc\xmc_posif.h **** 
 271:C:/src/bakalarka_workspace/ETHCAT_FWUPDATE_BOOTLOADER_XMC48/Libraries/XMCLib/inc\xmc_posif.h **** /**************************************************************************************************
 272:C:/src/bakalarka_workspace/ETHCAT_FWUPDATE_BOOTLOADER_XMC48/Libraries/XMCLib/inc\xmc_posif.h ****  * DATA STRUCTURES
 273:C:/src/bakalarka_workspace/ETHCAT_FWUPDATE_BOOTLOADER_XMC48/Libraries/XMCLib/inc\xmc_posif.h ****  **************************************************************************************************
 274:C:/src/bakalarka_workspace/ETHCAT_FWUPDATE_BOOTLOADER_XMC48/Libraries/XMCLib/inc\xmc_posif.h **** 
 275:C:/src/bakalarka_workspace/ETHCAT_FWUPDATE_BOOTLOADER_XMC48/Libraries/XMCLib/inc\xmc_posif.h **** /*Anonymous structure/union guard start*/
 276:C:/src/bakalarka_workspace/ETHCAT_FWUPDATE_BOOTLOADER_XMC48/Libraries/XMCLib/inc\xmc_posif.h **** #if defined(__CC_ARM)
 277:C:/src/bakalarka_workspace/ETHCAT_FWUPDATE_BOOTLOADER_XMC48/Libraries/XMCLib/inc\xmc_posif.h ****   #pragma push
 278:C:/src/bakalarka_workspace/ETHCAT_FWUPDATE_BOOTLOADER_XMC48/Libraries/XMCLib/inc\xmc_posif.h ****   #pragma anon_unions
 279:C:/src/bakalarka_workspace/ETHCAT_FWUPDATE_BOOTLOADER_XMC48/Libraries/XMCLib/inc\xmc_posif.h **** #elif defined(__TASKING__)
 280:C:/src/bakalarka_workspace/ETHCAT_FWUPDATE_BOOTLOADER_XMC48/Libraries/XMCLib/inc\xmc_posif.h ****   #pragma warning 586
 281:C:/src/bakalarka_workspace/ETHCAT_FWUPDATE_BOOTLOADER_XMC48/Libraries/XMCLib/inc\xmc_posif.h **** #endif
 282:C:/src/bakalarka_workspace/ETHCAT_FWUPDATE_BOOTLOADER_XMC48/Libraries/XMCLib/inc\xmc_posif.h **** 
 283:C:/src/bakalarka_workspace/ETHCAT_FWUPDATE_BOOTLOADER_XMC48/Libraries/XMCLib/inc\xmc_posif.h **** /**
 284:C:/src/bakalarka_workspace/ETHCAT_FWUPDATE_BOOTLOADER_XMC48/Libraries/XMCLib/inc\xmc_posif.h ****  *
 285:C:/src/bakalarka_workspace/ETHCAT_FWUPDATE_BOOTLOADER_XMC48/Libraries/XMCLib/inc\xmc_posif.h ****  * Defines POSIF peripheral register structure.Use type @ref XMC_POSIF_t for this data structure.
 286:C:/src/bakalarka_workspace/ETHCAT_FWUPDATE_BOOTLOADER_XMC48/Libraries/XMCLib/inc\xmc_posif.h ****  */
 287:C:/src/bakalarka_workspace/ETHCAT_FWUPDATE_BOOTLOADER_XMC48/Libraries/XMCLib/inc\xmc_posif.h **** typedef POSIF_GLOBAL_TypeDef XMC_POSIF_t;
 288:C:/src/bakalarka_workspace/ETHCAT_FWUPDATE_BOOTLOADER_XMC48/Libraries/XMCLib/inc\xmc_posif.h **** 
 289:C:/src/bakalarka_workspace/ETHCAT_FWUPDATE_BOOTLOADER_XMC48/Libraries/XMCLib/inc\xmc_posif.h **** /**
 290:C:/src/bakalarka_workspace/ETHCAT_FWUPDATE_BOOTLOADER_XMC48/Libraries/XMCLib/inc\xmc_posif.h ****  *  Defines POSIF quadrature decoder initialization data structure.
 291:C:/src/bakalarka_workspace/ETHCAT_FWUPDATE_BOOTLOADER_XMC48/Libraries/XMCLib/inc\xmc_posif.h ****  *  Use type @ref XMC_POSIF_QD_CONFIG_t for this data structure.
 292:C:/src/bakalarka_workspace/ETHCAT_FWUPDATE_BOOTLOADER_XMC48/Libraries/XMCLib/inc\xmc_posif.h ****  *  It used to configure Quadrature mode using \a QDC register.
 293:C:/src/bakalarka_workspace/ETHCAT_FWUPDATE_BOOTLOADER_XMC48/Libraries/XMCLib/inc\xmc_posif.h ****  */
 294:C:/src/bakalarka_workspace/ETHCAT_FWUPDATE_BOOTLOADER_XMC48/Libraries/XMCLib/inc\xmc_posif.h **** typedef struct XMC_POSIF_QD_CONFIG
 295:C:/src/bakalarka_workspace/ETHCAT_FWUPDATE_BOOTLOADER_XMC48/Libraries/XMCLib/inc\xmc_posif.h **** {
 296:C:/src/bakalarka_workspace/ETHCAT_FWUPDATE_BOOTLOADER_XMC48/Libraries/XMCLib/inc\xmc_posif.h ****   XMC_POSIF_QD_MODE_t mode;      /**< Operational Mode of the quadrature encoder and decoder */
 297:C:/src/bakalarka_workspace/ETHCAT_FWUPDATE_BOOTLOADER_XMC48/Libraries/XMCLib/inc\xmc_posif.h ****   union
 298:C:/src/bakalarka_workspace/ETHCAT_FWUPDATE_BOOTLOADER_XMC48/Libraries/XMCLib/inc\xmc_posif.h ****   {
 299:C:/src/bakalarka_workspace/ETHCAT_FWUPDATE_BOOTLOADER_XMC48/Libraries/XMCLib/inc\xmc_posif.h ****     struct
 300:C:/src/bakalarka_workspace/ETHCAT_FWUPDATE_BOOTLOADER_XMC48/Libraries/XMCLib/inc\xmc_posif.h ****     {
 301:C:/src/bakalarka_workspace/ETHCAT_FWUPDATE_BOOTLOADER_XMC48/Libraries/XMCLib/inc\xmc_posif.h ****       uint32_t phase_a: 1;       /**< Phase-A active level configuration */
 302:C:/src/bakalarka_workspace/ETHCAT_FWUPDATE_BOOTLOADER_XMC48/Libraries/XMCLib/inc\xmc_posif.h ****       uint32_t phase_b: 1;       /**< Phase-B active level configuration */
 303:C:/src/bakalarka_workspace/ETHCAT_FWUPDATE_BOOTLOADER_XMC48/Libraries/XMCLib/inc\xmc_posif.h ****       uint32_t phase_leader: 1;  /**< Which of the two phase signals[Phase A or Phase B] leads the 
 304:C:/src/bakalarka_workspace/ETHCAT_FWUPDATE_BOOTLOADER_XMC48/Libraries/XMCLib/inc\xmc_posif.h ****       uint32_t : 1;
 305:C:/src/bakalarka_workspace/ETHCAT_FWUPDATE_BOOTLOADER_XMC48/Libraries/XMCLib/inc\xmc_posif.h ****       uint32_t index: 2;        /**< Index signal generation control. Use @ref XMC_POSIF_QD_INDEX_G
 306:C:/src/bakalarka_workspace/ETHCAT_FWUPDATE_BOOTLOADER_XMC48/Libraries/XMCLib/inc\xmc_posif.h ****       uint32_t : 26;
 307:C:/src/bakalarka_workspace/ETHCAT_FWUPDATE_BOOTLOADER_XMC48/Libraries/XMCLib/inc\xmc_posif.h ****     };
 308:C:/src/bakalarka_workspace/ETHCAT_FWUPDATE_BOOTLOADER_XMC48/Libraries/XMCLib/inc\xmc_posif.h ****     uint32_t qdc;
 309:C:/src/bakalarka_workspace/ETHCAT_FWUPDATE_BOOTLOADER_XMC48/Libraries/XMCLib/inc\xmc_posif.h ****   };
 310:C:/src/bakalarka_workspace/ETHCAT_FWUPDATE_BOOTLOADER_XMC48/Libraries/XMCLib/inc\xmc_posif.h **** } XMC_POSIF_QD_CONFIG_t;
 311:C:/src/bakalarka_workspace/ETHCAT_FWUPDATE_BOOTLOADER_XMC48/Libraries/XMCLib/inc\xmc_posif.h **** 
 312:C:/src/bakalarka_workspace/ETHCAT_FWUPDATE_BOOTLOADER_XMC48/Libraries/XMCLib/inc\xmc_posif.h **** /**
 313:C:/src/bakalarka_workspace/ETHCAT_FWUPDATE_BOOTLOADER_XMC48/Libraries/XMCLib/inc\xmc_posif.h ****  * Defines POSIF hall sensor control initialization data structure.
 314:C:/src/bakalarka_workspace/ETHCAT_FWUPDATE_BOOTLOADER_XMC48/Libraries/XMCLib/inc\xmc_posif.h ****  * Use type @ref XMC_POSIF_HSC_CONFIG_t for this data structure.
 315:C:/src/bakalarka_workspace/ETHCAT_FWUPDATE_BOOTLOADER_XMC48/Libraries/XMCLib/inc\xmc_posif.h ****  * It used to initialize hall sensor mode configuration using \a PCONF register.
 316:C:/src/bakalarka_workspace/ETHCAT_FWUPDATE_BOOTLOADER_XMC48/Libraries/XMCLib/inc\xmc_posif.h ****  */
 317:C:/src/bakalarka_workspace/ETHCAT_FWUPDATE_BOOTLOADER_XMC48/Libraries/XMCLib/inc\xmc_posif.h **** typedef struct XMC_POSIF_HSC_CONFIG
 318:C:/src/bakalarka_workspace/ETHCAT_FWUPDATE_BOOTLOADER_XMC48/Libraries/XMCLib/inc\xmc_posif.h **** {
 319:C:/src/bakalarka_workspace/ETHCAT_FWUPDATE_BOOTLOADER_XMC48/Libraries/XMCLib/inc\xmc_posif.h ****   union
 320:C:/src/bakalarka_workspace/ETHCAT_FWUPDATE_BOOTLOADER_XMC48/Libraries/XMCLib/inc\xmc_posif.h ****   {
 321:C:/src/bakalarka_workspace/ETHCAT_FWUPDATE_BOOTLOADER_XMC48/Libraries/XMCLib/inc\xmc_posif.h ****     struct
 322:C:/src/bakalarka_workspace/ETHCAT_FWUPDATE_BOOTLOADER_XMC48/Libraries/XMCLib/inc\xmc_posif.h ****     {
 323:C:/src/bakalarka_workspace/ETHCAT_FWUPDATE_BOOTLOADER_XMC48/Libraries/XMCLib/inc\xmc_posif.h ****       uint32_t : 4;
 324:C:/src/bakalarka_workspace/ETHCAT_FWUPDATE_BOOTLOADER_XMC48/Libraries/XMCLib/inc\xmc_posif.h ****       uint32_t disable_idle_signal: 1;   /**< Should idle signal be disabled upon wrong hall event?
 325:C:/src/bakalarka_workspace/ETHCAT_FWUPDATE_BOOTLOADER_XMC48/Libraries/XMCLib/inc\xmc_posif.h ****       uint32_t : 11;
 326:C:/src/bakalarka_workspace/ETHCAT_FWUPDATE_BOOTLOADER_XMC48/Libraries/XMCLib/inc\xmc_posif.h ****       uint32_t sampling_trigger: 1;      /**< Of HSDA and HSDB, which one is to be used to trigger 
 327:C:/src/bakalarka_workspace/ETHCAT_FWUPDATE_BOOTLOADER_XMC48/Libraries/XMCLib/inc\xmc_posif.h ****       uint32_t sampling_trigger_edge: 1; /**< Which edge of the sampling trigger signal is to be co
 328:C:/src/bakalarka_workspace/ETHCAT_FWUPDATE_BOOTLOADER_XMC48/Libraries/XMCLib/inc\xmc_posif.h **** 	  uint32_t : 6;
 329:C:/src/bakalarka_workspace/ETHCAT_FWUPDATE_BOOTLOADER_XMC48/Libraries/XMCLib/inc\xmc_posif.h ****       uint32_t external_error_port: 2;    /**< Of the 4 external error ports, which one is to be co
 330:C:/src/bakalarka_workspace/ETHCAT_FWUPDATE_BOOTLOADER_XMC48/Libraries/XMCLib/inc\xmc_posif.h ****       uint32_t external_error_enable: 1;  /**< Should external errors lead to Wrong Hall event? */
 331:C:/src/bakalarka_workspace/ETHCAT_FWUPDATE_BOOTLOADER_XMC48/Libraries/XMCLib/inc\xmc_posif.h ****       uint32_t external_error_level: 1;   /**< What should be the active level of external error si
 332:C:/src/bakalarka_workspace/ETHCAT_FWUPDATE_BOOTLOADER_XMC48/Libraries/XMCLib/inc\xmc_posif.h ****       uint32_t: 4;
 333:C:/src/bakalarka_workspace/ETHCAT_FWUPDATE_BOOTLOADER_XMC48/Libraries/XMCLib/inc\xmc_posif.h ****     };
 334:C:/src/bakalarka_workspace/ETHCAT_FWUPDATE_BOOTLOADER_XMC48/Libraries/XMCLib/inc\xmc_posif.h ****     uint32_t hall_config;
 335:C:/src/bakalarka_workspace/ETHCAT_FWUPDATE_BOOTLOADER_XMC48/Libraries/XMCLib/inc\xmc_posif.h ****   };
 336:C:/src/bakalarka_workspace/ETHCAT_FWUPDATE_BOOTLOADER_XMC48/Libraries/XMCLib/inc\xmc_posif.h **** } XMC_POSIF_HSC_CONFIG_t;
 337:C:/src/bakalarka_workspace/ETHCAT_FWUPDATE_BOOTLOADER_XMC48/Libraries/XMCLib/inc\xmc_posif.h **** 
 338:C:/src/bakalarka_workspace/ETHCAT_FWUPDATE_BOOTLOADER_XMC48/Libraries/XMCLib/inc\xmc_posif.h **** /**
 339:C:/src/bakalarka_workspace/ETHCAT_FWUPDATE_BOOTLOADER_XMC48/Libraries/XMCLib/inc\xmc_posif.h ****  * Defines POSIF multi-channel mode initialization data structure.
 340:C:/src/bakalarka_workspace/ETHCAT_FWUPDATE_BOOTLOADER_XMC48/Libraries/XMCLib/inc\xmc_posif.h ****  * Use type @ref XMC_POSIF_MCM_CONFIG_t for this data structure.
 341:C:/src/bakalarka_workspace/ETHCAT_FWUPDATE_BOOTLOADER_XMC48/Libraries/XMCLib/inc\xmc_posif.h ****  * It used to initialize multi channel mode configuration using \a PCONF register.
 342:C:/src/bakalarka_workspace/ETHCAT_FWUPDATE_BOOTLOADER_XMC48/Libraries/XMCLib/inc\xmc_posif.h ****  */
 343:C:/src/bakalarka_workspace/ETHCAT_FWUPDATE_BOOTLOADER_XMC48/Libraries/XMCLib/inc\xmc_posif.h **** typedef struct XMC_POSIF_MCM_CONFIG
 344:C:/src/bakalarka_workspace/ETHCAT_FWUPDATE_BOOTLOADER_XMC48/Libraries/XMCLib/inc\xmc_posif.h **** {
 345:C:/src/bakalarka_workspace/ETHCAT_FWUPDATE_BOOTLOADER_XMC48/Libraries/XMCLib/inc\xmc_posif.h ****   union
 346:C:/src/bakalarka_workspace/ETHCAT_FWUPDATE_BOOTLOADER_XMC48/Libraries/XMCLib/inc\xmc_posif.h ****   {
 347:C:/src/bakalarka_workspace/ETHCAT_FWUPDATE_BOOTLOADER_XMC48/Libraries/XMCLib/inc\xmc_posif.h ****     struct
 348:C:/src/bakalarka_workspace/ETHCAT_FWUPDATE_BOOTLOADER_XMC48/Libraries/XMCLib/inc\xmc_posif.h ****     {
 349:C:/src/bakalarka_workspace/ETHCAT_FWUPDATE_BOOTLOADER_XMC48/Libraries/XMCLib/inc\xmc_posif.h ****       uint32_t : 5;
 350:C:/src/bakalarka_workspace/ETHCAT_FWUPDATE_BOOTLOADER_XMC48/Libraries/XMCLib/inc\xmc_posif.h ****       uint32_t pattern_sw_update: 1; /**< should multi channel pattern updated by SW ? */
 351:C:/src/bakalarka_workspace/ETHCAT_FWUPDATE_BOOTLOADER_XMC48/Libraries/XMCLib/inc\xmc_posif.h ****       uint32_t : 12;
 352:C:/src/bakalarka_workspace/ETHCAT_FWUPDATE_BOOTLOADER_XMC48/Libraries/XMCLib/inc\xmc_posif.h **** 	  uint32_t pattern_update_trigger: 3; /**< Of the 8 update triggers, which one is to be considered
 353:C:/src/bakalarka_workspace/ETHCAT_FWUPDATE_BOOTLOADER_XMC48/Libraries/XMCLib/inc\xmc_posif.h ****       uint32_t pattern_trigger_edge: 1;  /**< Which edge of the pattern update trigger is to be con
 354:C:/src/bakalarka_workspace/ETHCAT_FWUPDATE_BOOTLOADER_XMC48/Libraries/XMCLib/inc\xmc_posif.h ****       uint32_t pwm_sync: 2;         /**< Of the 4 pwm sync inputs, which one is to be considered? *
 355:C:/src/bakalarka_workspace/ETHCAT_FWUPDATE_BOOTLOADER_XMC48/Libraries/XMCLib/inc\xmc_posif.h ****       uint32_t : 8;
 356:C:/src/bakalarka_workspace/ETHCAT_FWUPDATE_BOOTLOADER_XMC48/Libraries/XMCLib/inc\xmc_posif.h ****     };
 357:C:/src/bakalarka_workspace/ETHCAT_FWUPDATE_BOOTLOADER_XMC48/Libraries/XMCLib/inc\xmc_posif.h ****     uint32_t mcm_config;
 358:C:/src/bakalarka_workspace/ETHCAT_FWUPDATE_BOOTLOADER_XMC48/Libraries/XMCLib/inc\xmc_posif.h ****   };
 359:C:/src/bakalarka_workspace/ETHCAT_FWUPDATE_BOOTLOADER_XMC48/Libraries/XMCLib/inc\xmc_posif.h **** }XMC_POSIF_MCM_CONFIG_t;
 360:C:/src/bakalarka_workspace/ETHCAT_FWUPDATE_BOOTLOADER_XMC48/Libraries/XMCLib/inc\xmc_posif.h **** 
 361:C:/src/bakalarka_workspace/ETHCAT_FWUPDATE_BOOTLOADER_XMC48/Libraries/XMCLib/inc\xmc_posif.h **** /**
 362:C:/src/bakalarka_workspace/ETHCAT_FWUPDATE_BOOTLOADER_XMC48/Libraries/XMCLib/inc\xmc_posif.h ****  *  Defines POSIF module initialization data structure.
 363:C:/src/bakalarka_workspace/ETHCAT_FWUPDATE_BOOTLOADER_XMC48/Libraries/XMCLib/inc\xmc_posif.h ****  *  Use type @ref XMC_POSIF_CONFIG_t for this data structure.
 364:C:/src/bakalarka_workspace/ETHCAT_FWUPDATE_BOOTLOADER_XMC48/Libraries/XMCLib/inc\xmc_posif.h ****  *  It is used to initialize POSIF module using \a PCONF register.
 365:C:/src/bakalarka_workspace/ETHCAT_FWUPDATE_BOOTLOADER_XMC48/Libraries/XMCLib/inc\xmc_posif.h ****  */
 366:C:/src/bakalarka_workspace/ETHCAT_FWUPDATE_BOOTLOADER_XMC48/Libraries/XMCLib/inc\xmc_posif.h **** typedef struct XMC_POSIF_CONFIG
 367:C:/src/bakalarka_workspace/ETHCAT_FWUPDATE_BOOTLOADER_XMC48/Libraries/XMCLib/inc\xmc_posif.h **** {
 368:C:/src/bakalarka_workspace/ETHCAT_FWUPDATE_BOOTLOADER_XMC48/Libraries/XMCLib/inc\xmc_posif.h ****   union
 369:C:/src/bakalarka_workspace/ETHCAT_FWUPDATE_BOOTLOADER_XMC48/Libraries/XMCLib/inc\xmc_posif.h ****   {
 370:C:/src/bakalarka_workspace/ETHCAT_FWUPDATE_BOOTLOADER_XMC48/Libraries/XMCLib/inc\xmc_posif.h ****     struct
 371:C:/src/bakalarka_workspace/ETHCAT_FWUPDATE_BOOTLOADER_XMC48/Libraries/XMCLib/inc\xmc_posif.h ****     {
 372:C:/src/bakalarka_workspace/ETHCAT_FWUPDATE_BOOTLOADER_XMC48/Libraries/XMCLib/inc\xmc_posif.h ****       uint32_t mode: 2;    /**< POSIF Operational mode. Use @ref XMC_POSIF_MODE_t to configure */
 373:C:/src/bakalarka_workspace/ETHCAT_FWUPDATE_BOOTLOADER_XMC48/Libraries/XMCLib/inc\xmc_posif.h ****       uint32_t :6;
 374:C:/src/bakalarka_workspace/ETHCAT_FWUPDATE_BOOTLOADER_XMC48/Libraries/XMCLib/inc\xmc_posif.h ****       uint32_t input0: 2; /**< Choice of input for Input-1 */
 375:C:/src/bakalarka_workspace/ETHCAT_FWUPDATE_BOOTLOADER_XMC48/Libraries/XMCLib/inc\xmc_posif.h ****       uint32_t input1: 2; /**< Choice of input for Input-2 */
 376:C:/src/bakalarka_workspace/ETHCAT_FWUPDATE_BOOTLOADER_XMC48/Libraries/XMCLib/inc\xmc_posif.h ****       uint32_t input2: 2; /**< Choice of input for Input-3 */
 377:C:/src/bakalarka_workspace/ETHCAT_FWUPDATE_BOOTLOADER_XMC48/Libraries/XMCLib/inc\xmc_posif.h ****       uint32_t :14;
 378:C:/src/bakalarka_workspace/ETHCAT_FWUPDATE_BOOTLOADER_XMC48/Libraries/XMCLib/inc\xmc_posif.h ****       uint32_t filter: 3; /**< Input filter configuration */
 379:C:/src/bakalarka_workspace/ETHCAT_FWUPDATE_BOOTLOADER_XMC48/Libraries/XMCLib/inc\xmc_posif.h ****       uint32_t: 1;
 380:C:/src/bakalarka_workspace/ETHCAT_FWUPDATE_BOOTLOADER_XMC48/Libraries/XMCLib/inc\xmc_posif.h ****     };
 381:C:/src/bakalarka_workspace/ETHCAT_FWUPDATE_BOOTLOADER_XMC48/Libraries/XMCLib/inc\xmc_posif.h ****     uint32_t pconf;
 382:C:/src/bakalarka_workspace/ETHCAT_FWUPDATE_BOOTLOADER_XMC48/Libraries/XMCLib/inc\xmc_posif.h ****   };
 383:C:/src/bakalarka_workspace/ETHCAT_FWUPDATE_BOOTLOADER_XMC48/Libraries/XMCLib/inc\xmc_posif.h **** } XMC_POSIF_CONFIG_t;
 384:C:/src/bakalarka_workspace/ETHCAT_FWUPDATE_BOOTLOADER_XMC48/Libraries/XMCLib/inc\xmc_posif.h **** 
 385:C:/src/bakalarka_workspace/ETHCAT_FWUPDATE_BOOTLOADER_XMC48/Libraries/XMCLib/inc\xmc_posif.h **** /*Anonymous structure/union guard end*/
 386:C:/src/bakalarka_workspace/ETHCAT_FWUPDATE_BOOTLOADER_XMC48/Libraries/XMCLib/inc\xmc_posif.h **** #if defined(__CC_ARM)
 387:C:/src/bakalarka_workspace/ETHCAT_FWUPDATE_BOOTLOADER_XMC48/Libraries/XMCLib/inc\xmc_posif.h ****   #pragma pop
 388:C:/src/bakalarka_workspace/ETHCAT_FWUPDATE_BOOTLOADER_XMC48/Libraries/XMCLib/inc\xmc_posif.h **** #elif defined(__TASKING__)
 389:C:/src/bakalarka_workspace/ETHCAT_FWUPDATE_BOOTLOADER_XMC48/Libraries/XMCLib/inc\xmc_posif.h ****   #pragma warning restore
 390:C:/src/bakalarka_workspace/ETHCAT_FWUPDATE_BOOTLOADER_XMC48/Libraries/XMCLib/inc\xmc_posif.h **** #endif
 391:C:/src/bakalarka_workspace/ETHCAT_FWUPDATE_BOOTLOADER_XMC48/Libraries/XMCLib/inc\xmc_posif.h **** 
 392:C:/src/bakalarka_workspace/ETHCAT_FWUPDATE_BOOTLOADER_XMC48/Libraries/XMCLib/inc\xmc_posif.h **** /**************************************************************************************************
 393:C:/src/bakalarka_workspace/ETHCAT_FWUPDATE_BOOTLOADER_XMC48/Libraries/XMCLib/inc\xmc_posif.h ****  * API Prototypes
 394:C:/src/bakalarka_workspace/ETHCAT_FWUPDATE_BOOTLOADER_XMC48/Libraries/XMCLib/inc\xmc_posif.h ****  **************************************************************************************************
 395:C:/src/bakalarka_workspace/ETHCAT_FWUPDATE_BOOTLOADER_XMC48/Libraries/XMCLib/inc\xmc_posif.h **** #ifdef __cplusplus
 396:C:/src/bakalarka_workspace/ETHCAT_FWUPDATE_BOOTLOADER_XMC48/Libraries/XMCLib/inc\xmc_posif.h **** extern "C" {
 397:C:/src/bakalarka_workspace/ETHCAT_FWUPDATE_BOOTLOADER_XMC48/Libraries/XMCLib/inc\xmc_posif.h **** #endif
 398:C:/src/bakalarka_workspace/ETHCAT_FWUPDATE_BOOTLOADER_XMC48/Libraries/XMCLib/inc\xmc_posif.h **** 
 399:C:/src/bakalarka_workspace/ETHCAT_FWUPDATE_BOOTLOADER_XMC48/Libraries/XMCLib/inc\xmc_posif.h **** /**
 400:C:/src/bakalarka_workspace/ETHCAT_FWUPDATE_BOOTLOADER_XMC48/Libraries/XMCLib/inc\xmc_posif.h ****  * @param peripheral Pointer to an instance of POSIF module of type @ref XMC_POSIF_t
 401:C:/src/bakalarka_workspace/ETHCAT_FWUPDATE_BOOTLOADER_XMC48/Libraries/XMCLib/inc\xmc_posif.h ****  * @retval None
 402:C:/src/bakalarka_workspace/ETHCAT_FWUPDATE_BOOTLOADER_XMC48/Libraries/XMCLib/inc\xmc_posif.h ****  *
 403:C:/src/bakalarka_workspace/ETHCAT_FWUPDATE_BOOTLOADER_XMC48/Libraries/XMCLib/inc\xmc_posif.h ****  * \par<b>Description</b><br>
 404:C:/src/bakalarka_workspace/ETHCAT_FWUPDATE_BOOTLOADER_XMC48/Libraries/XMCLib/inc\xmc_posif.h ****  * De-asserts the POSIF module from reset and enables the clock.\n
 405:C:/src/bakalarka_workspace/ETHCAT_FWUPDATE_BOOTLOADER_XMC48/Libraries/XMCLib/inc\xmc_posif.h ****  * Configures \a PRCLR0 register's \a POSIF0RS or \a POSIF1RS bit field depends upon \a peripheral.
 406:C:/src/bakalarka_workspace/ETHCAT_FWUPDATE_BOOTLOADER_XMC48/Libraries/XMCLib/inc\xmc_posif.h ****  * If running on other than XMC45 device then it will ungate the peripheral clock.
 407:C:/src/bakalarka_workspace/ETHCAT_FWUPDATE_BOOTLOADER_XMC48/Libraries/XMCLib/inc\xmc_posif.h ****  *
 408:C:/src/bakalarka_workspace/ETHCAT_FWUPDATE_BOOTLOADER_XMC48/Libraries/XMCLib/inc\xmc_posif.h ****  * \par<b>Note</b><br>
 409:C:/src/bakalarka_workspace/ETHCAT_FWUPDATE_BOOTLOADER_XMC48/Libraries/XMCLib/inc\xmc_posif.h ****  * This is the first API which application must invoke to configure POSIF.
 410:C:/src/bakalarka_workspace/ETHCAT_FWUPDATE_BOOTLOADER_XMC48/Libraries/XMCLib/inc\xmc_posif.h ****  * It is internally called by XMC_POSIF_Init().
 411:C:/src/bakalarka_workspace/ETHCAT_FWUPDATE_BOOTLOADER_XMC48/Libraries/XMCLib/inc\xmc_posif.h ****  *
 412:C:/src/bakalarka_workspace/ETHCAT_FWUPDATE_BOOTLOADER_XMC48/Libraries/XMCLib/inc\xmc_posif.h ****  * \par<b>Related APIs:</b><BR>
 413:C:/src/bakalarka_workspace/ETHCAT_FWUPDATE_BOOTLOADER_XMC48/Libraries/XMCLib/inc\xmc_posif.h ****  * XMC_POSIF_Disable(),XMC_POSIF_Init() \n\n\n
 414:C:/src/bakalarka_workspace/ETHCAT_FWUPDATE_BOOTLOADER_XMC48/Libraries/XMCLib/inc\xmc_posif.h ****  */
 415:C:/src/bakalarka_workspace/ETHCAT_FWUPDATE_BOOTLOADER_XMC48/Libraries/XMCLib/inc\xmc_posif.h **** void XMC_POSIF_Enable(XMC_POSIF_t *const peripheral);
 416:C:/src/bakalarka_workspace/ETHCAT_FWUPDATE_BOOTLOADER_XMC48/Libraries/XMCLib/inc\xmc_posif.h **** 
 417:C:/src/bakalarka_workspace/ETHCAT_FWUPDATE_BOOTLOADER_XMC48/Libraries/XMCLib/inc\xmc_posif.h **** /**
 418:C:/src/bakalarka_workspace/ETHCAT_FWUPDATE_BOOTLOADER_XMC48/Libraries/XMCLib/inc\xmc_posif.h ****  * @param peripheral Pointer to an instance of POSIF module of type @ref XMC_POSIF_t
 419:C:/src/bakalarka_workspace/ETHCAT_FWUPDATE_BOOTLOADER_XMC48/Libraries/XMCLib/inc\xmc_posif.h ****  * @retval None
 420:C:/src/bakalarka_workspace/ETHCAT_FWUPDATE_BOOTLOADER_XMC48/Libraries/XMCLib/inc\xmc_posif.h ****  *
 421:C:/src/bakalarka_workspace/ETHCAT_FWUPDATE_BOOTLOADER_XMC48/Libraries/XMCLib/inc\xmc_posif.h ****  * \par<b>Description</b><br>
 422:C:/src/bakalarka_workspace/ETHCAT_FWUPDATE_BOOTLOADER_XMC48/Libraries/XMCLib/inc\xmc_posif.h ****  * Asserts the POSIF module into reset and disables the clock.\n
 423:C:/src/bakalarka_workspace/ETHCAT_FWUPDATE_BOOTLOADER_XMC48/Libraries/XMCLib/inc\xmc_posif.h ****  * If running on other than XMC45 device then in addition it will gate the peripheral clock.
 424:C:/src/bakalarka_workspace/ETHCAT_FWUPDATE_BOOTLOADER_XMC48/Libraries/XMCLib/inc\xmc_posif.h ****  * Configures \a PRCLR0 register's \a POSIF0RS or \a POSIF1RS bitfield depends upon \a peripheral.
 425:C:/src/bakalarka_workspace/ETHCAT_FWUPDATE_BOOTLOADER_XMC48/Libraries/XMCLib/inc\xmc_posif.h ****  *
 426:C:/src/bakalarka_workspace/ETHCAT_FWUPDATE_BOOTLOADER_XMC48/Libraries/XMCLib/inc\xmc_posif.h ****  * \par<b>Related APIs:</b><BR>
 427:C:/src/bakalarka_workspace/ETHCAT_FWUPDATE_BOOTLOADER_XMC48/Libraries/XMCLib/inc\xmc_posif.h ****  * XMC_POSIF_Enable()\n\n\n
 428:C:/src/bakalarka_workspace/ETHCAT_FWUPDATE_BOOTLOADER_XMC48/Libraries/XMCLib/inc\xmc_posif.h ****  */
 429:C:/src/bakalarka_workspace/ETHCAT_FWUPDATE_BOOTLOADER_XMC48/Libraries/XMCLib/inc\xmc_posif.h **** void XMC_POSIF_Disable(XMC_POSIF_t *const peripheral);
 430:C:/src/bakalarka_workspace/ETHCAT_FWUPDATE_BOOTLOADER_XMC48/Libraries/XMCLib/inc\xmc_posif.h **** 
 431:C:/src/bakalarka_workspace/ETHCAT_FWUPDATE_BOOTLOADER_XMC48/Libraries/XMCLib/inc\xmc_posif.h **** /**
 432:C:/src/bakalarka_workspace/ETHCAT_FWUPDATE_BOOTLOADER_XMC48/Libraries/XMCLib/inc\xmc_posif.h ****  * @param peripheral Pointer to an instance of POSIF module of type @ref XMC_POSIF_t
 433:C:/src/bakalarka_workspace/ETHCAT_FWUPDATE_BOOTLOADER_XMC48/Libraries/XMCLib/inc\xmc_posif.h ****  * @param config Pointer to POSIF configuration data(operation mode,input selection and filter conf
 434:C:/src/bakalarka_workspace/ETHCAT_FWUPDATE_BOOTLOADER_XMC48/Libraries/XMCLib/inc\xmc_posif.h ****  * @retval None
 435:C:/src/bakalarka_workspace/ETHCAT_FWUPDATE_BOOTLOADER_XMC48/Libraries/XMCLib/inc\xmc_posif.h ****  *
 436:C:/src/bakalarka_workspace/ETHCAT_FWUPDATE_BOOTLOADER_XMC48/Libraries/XMCLib/inc\xmc_posif.h ****  * \par<b>Description</b><br>
 437:C:/src/bakalarka_workspace/ETHCAT_FWUPDATE_BOOTLOADER_XMC48/Libraries/XMCLib/inc\xmc_posif.h ****  * Initialize POSIF module with \a config.\n
 438:C:/src/bakalarka_workspace/ETHCAT_FWUPDATE_BOOTLOADER_XMC48/Libraries/XMCLib/inc\xmc_posif.h ****  * Configures POSIF global registers.This is the first API which application must invoke to configu
 439:C:/src/bakalarka_workspace/ETHCAT_FWUPDATE_BOOTLOADER_XMC48/Libraries/XMCLib/inc\xmc_posif.h ****  * It sets up parameters common to all the POSIF modes - hall sensor,quadrature decoder and multi-c
 440:C:/src/bakalarka_workspace/ETHCAT_FWUPDATE_BOOTLOADER_XMC48/Libraries/XMCLib/inc\xmc_posif.h ****  * Configures \a PCONF register with mode of operation,input selection and filter configuration.
 441:C:/src/bakalarka_workspace/ETHCAT_FWUPDATE_BOOTLOADER_XMC48/Libraries/XMCLib/inc\xmc_posif.h ****  *
 442:C:/src/bakalarka_workspace/ETHCAT_FWUPDATE_BOOTLOADER_XMC48/Libraries/XMCLib/inc\xmc_posif.h ****  * \par<b>Related APIs:</b><BR>
 443:C:/src/bakalarka_workspace/ETHCAT_FWUPDATE_BOOTLOADER_XMC48/Libraries/XMCLib/inc\xmc_posif.h ****  * XMC_POSIF_HSC_Init(),XMC_POSIF_QD_Init(),XMC_POSIF_MCM_Init() \n\n\n
 444:C:/src/bakalarka_workspace/ETHCAT_FWUPDATE_BOOTLOADER_XMC48/Libraries/XMCLib/inc\xmc_posif.h **** */
 445:C:/src/bakalarka_workspace/ETHCAT_FWUPDATE_BOOTLOADER_XMC48/Libraries/XMCLib/inc\xmc_posif.h **** void XMC_POSIF_Init(XMC_POSIF_t *const peripheral, const XMC_POSIF_CONFIG_t * const config);
 446:C:/src/bakalarka_workspace/ETHCAT_FWUPDATE_BOOTLOADER_XMC48/Libraries/XMCLib/inc\xmc_posif.h **** 
 447:C:/src/bakalarka_workspace/ETHCAT_FWUPDATE_BOOTLOADER_XMC48/Libraries/XMCLib/inc\xmc_posif.h **** /**
 448:C:/src/bakalarka_workspace/ETHCAT_FWUPDATE_BOOTLOADER_XMC48/Libraries/XMCLib/inc\xmc_posif.h ****  * @param peripheral Pointer to an instance of POSIF module
 449:C:/src/bakalarka_workspace/ETHCAT_FWUPDATE_BOOTLOADER_XMC48/Libraries/XMCLib/inc\xmc_posif.h ****  * @param config Pointer to hall sensor control initialization data of type @ref XMC_POSIF_HSC_CONF
 450:C:/src/bakalarka_workspace/ETHCAT_FWUPDATE_BOOTLOADER_XMC48/Libraries/XMCLib/inc\xmc_posif.h ****  * @retval XMC_POSIF_STATUS_t  Returns @ref XMC_POSIF_STATUS_OK if configured in Hall Sensor Mode
 451:C:/src/bakalarka_workspace/ETHCAT_FWUPDATE_BOOTLOADER_XMC48/Libraries/XMCLib/inc\xmc_posif.h ****  *                             else return @ref XMC_POSIF_STATUS_ERROR.
 452:C:/src/bakalarka_workspace/ETHCAT_FWUPDATE_BOOTLOADER_XMC48/Libraries/XMCLib/inc\xmc_posif.h ****  *
 453:C:/src/bakalarka_workspace/ETHCAT_FWUPDATE_BOOTLOADER_XMC48/Libraries/XMCLib/inc\xmc_posif.h ****  * \par<b>Description</b><br>
 454:C:/src/bakalarka_workspace/ETHCAT_FWUPDATE_BOOTLOADER_XMC48/Libraries/XMCLib/inc\xmc_posif.h ****  * Initializes hall sensor control mode.\n
 455:C:/src/bakalarka_workspace/ETHCAT_FWUPDATE_BOOTLOADER_XMC48/Libraries/XMCLib/inc\xmc_posif.h ****  * Configures \a PCONF register with which POSIF input trigger to be used for
 456:C:/src/bakalarka_workspace/ETHCAT_FWUPDATE_BOOTLOADER_XMC48/Libraries/XMCLib/inc\xmc_posif.h ****  * sampling hall pattern.Configures \a PCONF register for idle signal generation for wrong hall eve
 457:C:/src/bakalarka_workspace/ETHCAT_FWUPDATE_BOOTLOADER_XMC48/Libraries/XMCLib/inc\xmc_posif.h ****  *
 458:C:/src/bakalarka_workspace/ETHCAT_FWUPDATE_BOOTLOADER_XMC48/Libraries/XMCLib/inc\xmc_posif.h ****  * \par<b>Note</b><br>
 459:C:/src/bakalarka_workspace/ETHCAT_FWUPDATE_BOOTLOADER_XMC48/Libraries/XMCLib/inc\xmc_posif.h ****  * It is necessary to have called XMC_POSIF_Init first with Hall sensor mode before invocation of t
 460:C:/src/bakalarka_workspace/ETHCAT_FWUPDATE_BOOTLOADER_XMC48/Libraries/XMCLib/inc\xmc_posif.h ****  *
 461:C:/src/bakalarka_workspace/ETHCAT_FWUPDATE_BOOTLOADER_XMC48/Libraries/XMCLib/inc\xmc_posif.h ****  * \par<b>Related APIs:</b><BR>
 462:C:/src/bakalarka_workspace/ETHCAT_FWUPDATE_BOOTLOADER_XMC48/Libraries/XMCLib/inc\xmc_posif.h ****  * XMC_POSIF_Init() \n\n\n
 463:C:/src/bakalarka_workspace/ETHCAT_FWUPDATE_BOOTLOADER_XMC48/Libraries/XMCLib/inc\xmc_posif.h ****  */
 464:C:/src/bakalarka_workspace/ETHCAT_FWUPDATE_BOOTLOADER_XMC48/Libraries/XMCLib/inc\xmc_posif.h **** XMC_POSIF_STATUS_t XMC_POSIF_HSC_Init(XMC_POSIF_t *const peripheral, const XMC_POSIF_HSC_CONFIG_t *
 465:C:/src/bakalarka_workspace/ETHCAT_FWUPDATE_BOOTLOADER_XMC48/Libraries/XMCLib/inc\xmc_posif.h **** 
 466:C:/src/bakalarka_workspace/ETHCAT_FWUPDATE_BOOTLOADER_XMC48/Libraries/XMCLib/inc\xmc_posif.h **** /**
 467:C:/src/bakalarka_workspace/ETHCAT_FWUPDATE_BOOTLOADER_XMC48/Libraries/XMCLib/inc\xmc_posif.h ****  * @param peripheral Pointer to an instance of POSIF module
 468:C:/src/bakalarka_workspace/ETHCAT_FWUPDATE_BOOTLOADER_XMC48/Libraries/XMCLib/inc\xmc_posif.h ****  * @param config Pointer to quadrature decoder initialization data
 469:C:/src/bakalarka_workspace/ETHCAT_FWUPDATE_BOOTLOADER_XMC48/Libraries/XMCLib/inc\xmc_posif.h ****  * @retval XMC_POSIF_STATUS_t Returns quadrature mode initialization status of type @ref XMC_POSIF_
 470:C:/src/bakalarka_workspace/ETHCAT_FWUPDATE_BOOTLOADER_XMC48/Libraries/XMCLib/inc\xmc_posif.h ****  *
 471:C:/src/bakalarka_workspace/ETHCAT_FWUPDATE_BOOTLOADER_XMC48/Libraries/XMCLib/inc\xmc_posif.h ****  * \par<b>Description</b><br>
 472:C:/src/bakalarka_workspace/ETHCAT_FWUPDATE_BOOTLOADER_XMC48/Libraries/XMCLib/inc\xmc_posif.h ****  * Initializes quadrature decoder control mode.\n
 473:C:/src/bakalarka_workspace/ETHCAT_FWUPDATE_BOOTLOADER_XMC48/Libraries/XMCLib/inc\xmc_posif.h ****  * Configures \a PCONF register with quadrature mode using @ref XMC_POSIF_QD_MODE_t data structure.
 474:C:/src/bakalarka_workspace/ETHCAT_FWUPDATE_BOOTLOADER_XMC48/Libraries/XMCLib/inc\xmc_posif.h ****  * Initializes \a QDC register with quadrature mode configuration using @ref XMC_POSIF_QD_CONFIG_t 
 475:C:/src/bakalarka_workspace/ETHCAT_FWUPDATE_BOOTLOADER_XMC48/Libraries/XMCLib/inc\xmc_posif.h ****  *
 476:C:/src/bakalarka_workspace/ETHCAT_FWUPDATE_BOOTLOADER_XMC48/Libraries/XMCLib/inc\xmc_posif.h ****  * \par<b>Note</b><br>
 477:C:/src/bakalarka_workspace/ETHCAT_FWUPDATE_BOOTLOADER_XMC48/Libraries/XMCLib/inc\xmc_posif.h ****  * It is necessary to have called XMC_POSIF_Init first with Quadrature decoder mode before invocati
 478:C:/src/bakalarka_workspace/ETHCAT_FWUPDATE_BOOTLOADER_XMC48/Libraries/XMCLib/inc\xmc_posif.h ****  *
 479:C:/src/bakalarka_workspace/ETHCAT_FWUPDATE_BOOTLOADER_XMC48/Libraries/XMCLib/inc\xmc_posif.h ****  * \par<b>Related APIs:</b><BR>
 480:C:/src/bakalarka_workspace/ETHCAT_FWUPDATE_BOOTLOADER_XMC48/Libraries/XMCLib/inc\xmc_posif.h ****  * XMC_POSIF_Init() \n\n\n
 481:C:/src/bakalarka_workspace/ETHCAT_FWUPDATE_BOOTLOADER_XMC48/Libraries/XMCLib/inc\xmc_posif.h ****  */
 482:C:/src/bakalarka_workspace/ETHCAT_FWUPDATE_BOOTLOADER_XMC48/Libraries/XMCLib/inc\xmc_posif.h **** XMC_POSIF_STATUS_t XMC_POSIF_QD_Init(XMC_POSIF_t *const peripheral, const XMC_POSIF_QD_CONFIG_t * c
 483:C:/src/bakalarka_workspace/ETHCAT_FWUPDATE_BOOTLOADER_XMC48/Libraries/XMCLib/inc\xmc_posif.h **** 
 484:C:/src/bakalarka_workspace/ETHCAT_FWUPDATE_BOOTLOADER_XMC48/Libraries/XMCLib/inc\xmc_posif.h **** /**
 485:C:/src/bakalarka_workspace/ETHCAT_FWUPDATE_BOOTLOADER_XMC48/Libraries/XMCLib/inc\xmc_posif.h ****  * @param peripheral Pointer to an instance of POSIF module
 486:C:/src/bakalarka_workspace/ETHCAT_FWUPDATE_BOOTLOADER_XMC48/Libraries/XMCLib/inc\xmc_posif.h ****  * @param config Pointer to quadrature decoder initialization data
 487:C:/src/bakalarka_workspace/ETHCAT_FWUPDATE_BOOTLOADER_XMC48/Libraries/XMCLib/inc\xmc_posif.h ****  * @retval XMC_POSIF_STATUS_t Returns multi channel pattern initialization status of type @ref XMC_
 488:C:/src/bakalarka_workspace/ETHCAT_FWUPDATE_BOOTLOADER_XMC48/Libraries/XMCLib/inc\xmc_posif.h ****  *
 489:C:/src/bakalarka_workspace/ETHCAT_FWUPDATE_BOOTLOADER_XMC48/Libraries/XMCLib/inc\xmc_posif.h ****  * \par<b>Description</b><br>
 490:C:/src/bakalarka_workspace/ETHCAT_FWUPDATE_BOOTLOADER_XMC48/Libraries/XMCLib/inc\xmc_posif.h ****  * Initializes multi channel mode in Hall mode, standalone multi-channel mode and quadrature with m
 491:C:/src/bakalarka_workspace/ETHCAT_FWUPDATE_BOOTLOADER_XMC48/Libraries/XMCLib/inc\xmc_posif.h ****  * Configures \a PCONF register with multi channel mode using @ref XMC_POSIF_MCM_CONFIG_t data stru
 492:C:/src/bakalarka_workspace/ETHCAT_FWUPDATE_BOOTLOADER_XMC48/Libraries/XMCLib/inc\xmc_posif.h ****  *
 493:C:/src/bakalarka_workspace/ETHCAT_FWUPDATE_BOOTLOADER_XMC48/Libraries/XMCLib/inc\xmc_posif.h ****  * \par<b>Note</b><br>
 494:C:/src/bakalarka_workspace/ETHCAT_FWUPDATE_BOOTLOADER_XMC48/Libraries/XMCLib/inc\xmc_posif.h ****  * It is necessary to call XMC_POSIF_Init first before invocation of this API.
 495:C:/src/bakalarka_workspace/ETHCAT_FWUPDATE_BOOTLOADER_XMC48/Libraries/XMCLib/inc\xmc_posif.h ****  * For XMC_POSIF_MODE_HALL_SENSOR, it is necessary to have called XMC_POSIF_HSC_Init before invocat
 496:C:/src/bakalarka_workspace/ETHCAT_FWUPDATE_BOOTLOADER_XMC48/Libraries/XMCLib/inc\xmc_posif.h ****  * For XMC_POSIF_MODE_MCM_QD, it is necessary to have called XMC_POSIF_QD_Init before invocation of
 497:C:/src/bakalarka_workspace/ETHCAT_FWUPDATE_BOOTLOADER_XMC48/Libraries/XMCLib/inc\xmc_posif.h ****  *
 498:C:/src/bakalarka_workspace/ETHCAT_FWUPDATE_BOOTLOADER_XMC48/Libraries/XMCLib/inc\xmc_posif.h ****  * \par<b>Related APIs:</b><BR>
 499:C:/src/bakalarka_workspace/ETHCAT_FWUPDATE_BOOTLOADER_XMC48/Libraries/XMCLib/inc\xmc_posif.h ****  * XMC_POSIF_Init(),XMC_POSIF_HSC_Init(),XMC_POSIF_QD_Init() \n\n\n
 500:C:/src/bakalarka_workspace/ETHCAT_FWUPDATE_BOOTLOADER_XMC48/Libraries/XMCLib/inc\xmc_posif.h ****  */
 501:C:/src/bakalarka_workspace/ETHCAT_FWUPDATE_BOOTLOADER_XMC48/Libraries/XMCLib/inc\xmc_posif.h **** XMC_POSIF_STATUS_t XMC_POSIF_MCM_Init(XMC_POSIF_t *const peripheral, const XMC_POSIF_MCM_CONFIG_t *
 502:C:/src/bakalarka_workspace/ETHCAT_FWUPDATE_BOOTLOADER_XMC48/Libraries/XMCLib/inc\xmc_posif.h **** 
 503:C:/src/bakalarka_workspace/ETHCAT_FWUPDATE_BOOTLOADER_XMC48/Libraries/XMCLib/inc\xmc_posif.h **** /**
 504:C:/src/bakalarka_workspace/ETHCAT_FWUPDATE_BOOTLOADER_XMC48/Libraries/XMCLib/inc\xmc_posif.h ****  * @param peripheral Pointer to an instance of POSIF module
 505:C:/src/bakalarka_workspace/ETHCAT_FWUPDATE_BOOTLOADER_XMC48/Libraries/XMCLib/inc\xmc_posif.h ****  * @param mode POSIF operating mode of type @ref XMC_POSIF_MODE_t
 506:C:/src/bakalarka_workspace/ETHCAT_FWUPDATE_BOOTLOADER_XMC48/Libraries/XMCLib/inc\xmc_posif.h ****  * @retval None
 507:C:/src/bakalarka_workspace/ETHCAT_FWUPDATE_BOOTLOADER_XMC48/Libraries/XMCLib/inc\xmc_posif.h ****  *
 508:C:/src/bakalarka_workspace/ETHCAT_FWUPDATE_BOOTLOADER_XMC48/Libraries/XMCLib/inc\xmc_posif.h ****  * \par<b>Description</b><br>
 509:C:/src/bakalarka_workspace/ETHCAT_FWUPDATE_BOOTLOADER_XMC48/Libraries/XMCLib/inc\xmc_posif.h ****  * Configures POSIF module for \a mode.\n
 510:C:/src/bakalarka_workspace/ETHCAT_FWUPDATE_BOOTLOADER_XMC48/Libraries/XMCLib/inc\xmc_posif.h ****  * Configures \a PCONF register's a\ FSEL bitfield with \a mode.
 511:C:/src/bakalarka_workspace/ETHCAT_FWUPDATE_BOOTLOADER_XMC48/Libraries/XMCLib/inc\xmc_posif.h ****  * Refer @ref XMC_POSIF_MODE_t for available options.
 512:C:/src/bakalarka_workspace/ETHCAT_FWUPDATE_BOOTLOADER_XMC48/Libraries/XMCLib/inc\xmc_posif.h ****  *
 513:C:/src/bakalarka_workspace/ETHCAT_FWUPDATE_BOOTLOADER_XMC48/Libraries/XMCLib/inc\xmc_posif.h ****  * \par<b>Note</b><br>
 514:C:/src/bakalarka_workspace/ETHCAT_FWUPDATE_BOOTLOADER_XMC48/Libraries/XMCLib/inc\xmc_posif.h ****  * POSIF module should be in stopped state while changing the operating mode.
 515:C:/src/bakalarka_workspace/ETHCAT_FWUPDATE_BOOTLOADER_XMC48/Libraries/XMCLib/inc\xmc_posif.h ****  *
 516:C:/src/bakalarka_workspace/ETHCAT_FWUPDATE_BOOTLOADER_XMC48/Libraries/XMCLib/inc\xmc_posif.h ****  * \par<b>Related APIs:</b><BR>
 517:C:/src/bakalarka_workspace/ETHCAT_FWUPDATE_BOOTLOADER_XMC48/Libraries/XMCLib/inc\xmc_posif.h ****  * XMC_POSIF_Stop() \n\n\n
 518:C:/src/bakalarka_workspace/ETHCAT_FWUPDATE_BOOTLOADER_XMC48/Libraries/XMCLib/inc\xmc_posif.h ****  */
 519:C:/src/bakalarka_workspace/ETHCAT_FWUPDATE_BOOTLOADER_XMC48/Libraries/XMCLib/inc\xmc_posif.h **** __STATIC_INLINE void XMC_POSIF_SetMode(XMC_POSIF_t *const peripheral, const XMC_POSIF_MODE_t mode)
 520:C:/src/bakalarka_workspace/ETHCAT_FWUPDATE_BOOTLOADER_XMC48/Libraries/XMCLib/inc\xmc_posif.h **** {
 521:C:/src/bakalarka_workspace/ETHCAT_FWUPDATE_BOOTLOADER_XMC48/Libraries/XMCLib/inc\xmc_posif.h ****   peripheral->PCONF = ((peripheral->PCONF & ~(uint32_t)(POSIF_PCONF_FSEL_Msk)) |
 522:C:/src/bakalarka_workspace/ETHCAT_FWUPDATE_BOOTLOADER_XMC48/Libraries/XMCLib/inc\xmc_posif.h ****                      (((uint32_t)mode << POSIF_PCONF_FSEL_Pos) & (uint32_t)POSIF_PCONF_FSEL_Msk));
 523:C:/src/bakalarka_workspace/ETHCAT_FWUPDATE_BOOTLOADER_XMC48/Libraries/XMCLib/inc\xmc_posif.h **** }
 524:C:/src/bakalarka_workspace/ETHCAT_FWUPDATE_BOOTLOADER_XMC48/Libraries/XMCLib/inc\xmc_posif.h **** 
 525:C:/src/bakalarka_workspace/ETHCAT_FWUPDATE_BOOTLOADER_XMC48/Libraries/XMCLib/inc\xmc_posif.h **** /**
 526:C:/src/bakalarka_workspace/ETHCAT_FWUPDATE_BOOTLOADER_XMC48/Libraries/XMCLib/inc\xmc_posif.h ****  * @param peripheral Pointer to an instance of POSIF module
 527:C:/src/bakalarka_workspace/ETHCAT_FWUPDATE_BOOTLOADER_XMC48/Libraries/XMCLib/inc\xmc_posif.h ****  * @param input0 Choice of input for input 0 [0-3]
 528:C:/src/bakalarka_workspace/ETHCAT_FWUPDATE_BOOTLOADER_XMC48/Libraries/XMCLib/inc\xmc_posif.h ****  * @param input1 Choice of input for input 1 [0-3]
 529:C:/src/bakalarka_workspace/ETHCAT_FWUPDATE_BOOTLOADER_XMC48/Libraries/XMCLib/inc\xmc_posif.h ****  * @param input2 Choice of input for input 2 [0-3]
 530:C:/src/bakalarka_workspace/ETHCAT_FWUPDATE_BOOTLOADER_XMC48/Libraries/XMCLib/inc\xmc_posif.h ****  * @retval None
 531:C:/src/bakalarka_workspace/ETHCAT_FWUPDATE_BOOTLOADER_XMC48/Libraries/XMCLib/inc\xmc_posif.h ****  *
 532:C:/src/bakalarka_workspace/ETHCAT_FWUPDATE_BOOTLOADER_XMC48/Libraries/XMCLib/inc\xmc_posif.h ****  * \par<b>Description</b><br>
 533:C:/src/bakalarka_workspace/ETHCAT_FWUPDATE_BOOTLOADER_XMC48/Libraries/XMCLib/inc\xmc_posif.h ****  * Configures which input to be connected to POSIF module. \n
 534:C:/src/bakalarka_workspace/ETHCAT_FWUPDATE_BOOTLOADER_XMC48/Libraries/XMCLib/inc\xmc_posif.h ****  * Configures \a PCONF register's INSEL0,INSEL1,INSEL2 bit fields with source for the input connect
 535:C:/src/bakalarka_workspace/ETHCAT_FWUPDATE_BOOTLOADER_XMC48/Libraries/XMCLib/inc\xmc_posif.h ****  * \a input1, \a input2 respectively.
 536:C:/src/bakalarka_workspace/ETHCAT_FWUPDATE_BOOTLOADER_XMC48/Libraries/XMCLib/inc\xmc_posif.h ****  *
 537:C:/src/bakalarka_workspace/ETHCAT_FWUPDATE_BOOTLOADER_XMC48/Libraries/XMCLib/inc\xmc_posif.h ****  * \par<b>Note</b><br>
 538:C:/src/bakalarka_workspace/ETHCAT_FWUPDATE_BOOTLOADER_XMC48/Libraries/XMCLib/inc\xmc_posif.h ****  * Configures which input is used for the Phase X or Hall input X function depending upon the modul
 539:C:/src/bakalarka_workspace/ETHCAT_FWUPDATE_BOOTLOADER_XMC48/Libraries/XMCLib/inc\xmc_posif.h ****  * set for Quadrature Decoder or Hall Sensor Mode.
 540:C:/src/bakalarka_workspace/ETHCAT_FWUPDATE_BOOTLOADER_XMC48/Libraries/XMCLib/inc\xmc_posif.h ****  *
 541:C:/src/bakalarka_workspace/ETHCAT_FWUPDATE_BOOTLOADER_XMC48/Libraries/XMCLib/inc\xmc_posif.h ****  * \par<b>Related APIs:</b><BR>
 542:C:/src/bakalarka_workspace/ETHCAT_FWUPDATE_BOOTLOADER_XMC48/Libraries/XMCLib/inc\xmc_posif.h ****  * XMC_POSIF_Init() \n\n\n
 543:C:/src/bakalarka_workspace/ETHCAT_FWUPDATE_BOOTLOADER_XMC48/Libraries/XMCLib/inc\xmc_posif.h ****  */
 544:C:/src/bakalarka_workspace/ETHCAT_FWUPDATE_BOOTLOADER_XMC48/Libraries/XMCLib/inc\xmc_posif.h **** void XMC_POSIF_SelectInputSource(XMC_POSIF_t *const peripheral, const XMC_POSIF_INPUT_PORT_t input0
 545:C:/src/bakalarka_workspace/ETHCAT_FWUPDATE_BOOTLOADER_XMC48/Libraries/XMCLib/inc\xmc_posif.h ****     const XMC_POSIF_INPUT_PORT_t input1, const XMC_POSIF_INPUT_PORT_t input2);
 546:C:/src/bakalarka_workspace/ETHCAT_FWUPDATE_BOOTLOADER_XMC48/Libraries/XMCLib/inc\xmc_posif.h **** 
 547:C:/src/bakalarka_workspace/ETHCAT_FWUPDATE_BOOTLOADER_XMC48/Libraries/XMCLib/inc\xmc_posif.h **** 
 548:C:/src/bakalarka_workspace/ETHCAT_FWUPDATE_BOOTLOADER_XMC48/Libraries/XMCLib/inc\xmc_posif.h **** /**
 549:C:/src/bakalarka_workspace/ETHCAT_FWUPDATE_BOOTLOADER_XMC48/Libraries/XMCLib/inc\xmc_posif.h ****  * @param peripheral Pointer to an instance of POSIF module
 550:C:/src/bakalarka_workspace/ETHCAT_FWUPDATE_BOOTLOADER_XMC48/Libraries/XMCLib/inc\xmc_posif.h ****  * @retval None
 551:C:/src/bakalarka_workspace/ETHCAT_FWUPDATE_BOOTLOADER_XMC48/Libraries/XMCLib/inc\xmc_posif.h ****  *
 552:C:/src/bakalarka_workspace/ETHCAT_FWUPDATE_BOOTLOADER_XMC48/Libraries/XMCLib/inc\xmc_posif.h ****  * \par<b>Description</b><br>
 553:C:/src/bakalarka_workspace/ETHCAT_FWUPDATE_BOOTLOADER_XMC48/Libraries/XMCLib/inc\xmc_posif.h ****  * Starts POSIF \a peripheral functional state machine.\n
 554:C:/src/bakalarka_workspace/ETHCAT_FWUPDATE_BOOTLOADER_XMC48/Libraries/XMCLib/inc\xmc_posif.h ****  * Starts POSIF state machine for \a peripheral.Configures \a PRUNS register's \a SRB bit field wit
 555:C:/src/bakalarka_workspace/ETHCAT_FWUPDATE_BOOTLOADER_XMC48/Libraries/XMCLib/inc\xmc_posif.h ****  *
 556:C:/src/bakalarka_workspace/ETHCAT_FWUPDATE_BOOTLOADER_XMC48/Libraries/XMCLib/inc\xmc_posif.h ****  * \par<b>Note</b><br>
 557:C:/src/bakalarka_workspace/ETHCAT_FWUPDATE_BOOTLOADER_XMC48/Libraries/XMCLib/inc\xmc_posif.h ****  * Global properties of POSIF along with mode specific properties should have been initialized befo
 558:C:/src/bakalarka_workspace/ETHCAT_FWUPDATE_BOOTLOADER_XMC48/Libraries/XMCLib/inc\xmc_posif.h ****  * FSM.
 559:C:/src/bakalarka_workspace/ETHCAT_FWUPDATE_BOOTLOADER_XMC48/Libraries/XMCLib/inc\xmc_posif.h ****  *
 560:C:/src/bakalarka_workspace/ETHCAT_FWUPDATE_BOOTLOADER_XMC48/Libraries/XMCLib/inc\xmc_posif.h ****  * \par<b>Related APIs:</b><BR>
 561:C:/src/bakalarka_workspace/ETHCAT_FWUPDATE_BOOTLOADER_XMC48/Libraries/XMCLib/inc\xmc_posif.h ****  * XMC_POSIF_Stop(),XMC_POSIF_IsRunning() \n\n\n
 562:C:/src/bakalarka_workspace/ETHCAT_FWUPDATE_BOOTLOADER_XMC48/Libraries/XMCLib/inc\xmc_posif.h ****  */
 563:C:/src/bakalarka_workspace/ETHCAT_FWUPDATE_BOOTLOADER_XMC48/Libraries/XMCLib/inc\xmc_posif.h **** __STATIC_INLINE void XMC_POSIF_Start(XMC_POSIF_t *const peripheral)
 564:C:/src/bakalarka_workspace/ETHCAT_FWUPDATE_BOOTLOADER_XMC48/Libraries/XMCLib/inc\xmc_posif.h **** {
 565:C:/src/bakalarka_workspace/ETHCAT_FWUPDATE_BOOTLOADER_XMC48/Libraries/XMCLib/inc\xmc_posif.h ****   peripheral->PRUNS = (uint32_t)POSIF_PRUNS_SRB_Msk;
 566:C:/src/bakalarka_workspace/ETHCAT_FWUPDATE_BOOTLOADER_XMC48/Libraries/XMCLib/inc\xmc_posif.h **** }
 567:C:/src/bakalarka_workspace/ETHCAT_FWUPDATE_BOOTLOADER_XMC48/Libraries/XMCLib/inc\xmc_posif.h **** 
 568:C:/src/bakalarka_workspace/ETHCAT_FWUPDATE_BOOTLOADER_XMC48/Libraries/XMCLib/inc\xmc_posif.h **** /**
 569:C:/src/bakalarka_workspace/ETHCAT_FWUPDATE_BOOTLOADER_XMC48/Libraries/XMCLib/inc\xmc_posif.h ****  * @param peripheral Pointer to an instance of POSIF module
 570:C:/src/bakalarka_workspace/ETHCAT_FWUPDATE_BOOTLOADER_XMC48/Libraries/XMCLib/inc\xmc_posif.h ****  * @retval None
 571:C:/src/bakalarka_workspace/ETHCAT_FWUPDATE_BOOTLOADER_XMC48/Libraries/XMCLib/inc\xmc_posif.h ****  *
 572:C:/src/bakalarka_workspace/ETHCAT_FWUPDATE_BOOTLOADER_XMC48/Libraries/XMCLib/inc\xmc_posif.h ****  * \par<b>Description</b><br>
 573:C:/src/bakalarka_workspace/ETHCAT_FWUPDATE_BOOTLOADER_XMC48/Libraries/XMCLib/inc\xmc_posif.h ****  * Stops POSIF \a peripheral functional state machine.\n
 574:C:/src/bakalarka_workspace/ETHCAT_FWUPDATE_BOOTLOADER_XMC48/Libraries/XMCLib/inc\xmc_posif.h ****  * Stop POSIF functional state machine and clears current internal status of the \a peripheral.
 575:C:/src/bakalarka_workspace/ETHCAT_FWUPDATE_BOOTLOADER_XMC48/Libraries/XMCLib/inc\xmc_posif.h ****  * Configures \a PRUNC register's \a CRB bit field with 1.
 576:C:/src/bakalarka_workspace/ETHCAT_FWUPDATE_BOOTLOADER_XMC48/Libraries/XMCLib/inc\xmc_posif.h ****  *
 577:C:/src/bakalarka_workspace/ETHCAT_FWUPDATE_BOOTLOADER_XMC48/Libraries/XMCLib/inc\xmc_posif.h ****  * \par<b>Related APIs:</b><BR>
 578:C:/src/bakalarka_workspace/ETHCAT_FWUPDATE_BOOTLOADER_XMC48/Libraries/XMCLib/inc\xmc_posif.h ****  * XMC_POSIF_Start(),XMC_POSIF_IsRunning() \n\n\n
 579:C:/src/bakalarka_workspace/ETHCAT_FWUPDATE_BOOTLOADER_XMC48/Libraries/XMCLib/inc\xmc_posif.h ****  */
 580:C:/src/bakalarka_workspace/ETHCAT_FWUPDATE_BOOTLOADER_XMC48/Libraries/XMCLib/inc\xmc_posif.h **** __STATIC_INLINE void XMC_POSIF_Stop(XMC_POSIF_t *const peripheral)
 581:C:/src/bakalarka_workspace/ETHCAT_FWUPDATE_BOOTLOADER_XMC48/Libraries/XMCLib/inc\xmc_posif.h **** {
  27              	 .loc 1 581 0
  28              	 .cfi_startproc
  29              	 
  30              	 
  31              	 
  32 0000 80B4     	 push {r7}
  33              	.LCFI0:
  34              	 .cfi_def_cfa_offset 4
  35              	 .cfi_offset 7,-4
  36 0002 83B0     	 sub sp,sp,#12
  37              	.LCFI1:
  38              	 .cfi_def_cfa_offset 16
  39 0004 00AF     	 add r7,sp,#0
  40              	.LCFI2:
  41              	 .cfi_def_cfa_register 7
  42 0006 7860     	 str r0,[r7,#4]
 582:C:/src/bakalarka_workspace/ETHCAT_FWUPDATE_BOOTLOADER_XMC48/Libraries/XMCLib/inc\xmc_posif.h ****   peripheral->PRUNC = (uint32_t)(POSIF_PRUNC_CRB_Msk | POSIF_PRUNC_CSM_Msk);
  43              	 .loc 1 582 0
  44 0008 7B68     	 ldr r3,[r7,#4]
  45 000a 0322     	 movs r2,#3
  46 000c DA60     	 str r2,[r3,#12]
 583:C:/src/bakalarka_workspace/ETHCAT_FWUPDATE_BOOTLOADER_XMC48/Libraries/XMCLib/inc\xmc_posif.h **** }
  47              	 .loc 1 583 0
  48 000e 0C37     	 adds r7,r7,#12
  49              	.LCFI3:
  50              	 .cfi_def_cfa_offset 4
  51 0010 BD46     	 mov sp,r7
  52              	.LCFI4:
  53              	 .cfi_def_cfa_register 13
  54              	 
  55 0012 5DF8047B 	 ldr r7,[sp],#4
  56              	.LCFI5:
  57              	 .cfi_restore 7
  58              	 .cfi_def_cfa_offset 0
  59 0016 7047     	 bx lr
  60              	 .cfi_endproc
  61              	.LFE167:
  63              	 .section .text.XMC_POSIF_Enable,"ax",%progbits
  64              	 .align 2
  65              	 .global XMC_POSIF_Enable
  66              	 .thumb
  67              	 .thumb_func
  69              	XMC_POSIF_Enable:
  70              	.LFB190:
  71              	 .file 2 "../Libraries/XMCLib/src/xmc_posif.c"
   1:../Libraries/XMCLib/src/xmc_posif.c **** /**
   2:../Libraries/XMCLib/src/xmc_posif.c ****  * @file xmc_posif.c
   3:../Libraries/XMCLib/src/xmc_posif.c ****  * @date 2015-06-19
   4:../Libraries/XMCLib/src/xmc_posif.c ****  *
   5:../Libraries/XMCLib/src/xmc_posif.c ****  * @cond
   6:../Libraries/XMCLib/src/xmc_posif.c ****  **********************************************************************************
   7:../Libraries/XMCLib/src/xmc_posif.c ****  * XMClib v2.1.8 - XMC Peripheral Driver Library 
   8:../Libraries/XMCLib/src/xmc_posif.c ****  *
   9:../Libraries/XMCLib/src/xmc_posif.c ****  * Copyright (c) 2015-2016, Infineon Technologies AG
  10:../Libraries/XMCLib/src/xmc_posif.c ****  * All rights reserved.                        
  11:../Libraries/XMCLib/src/xmc_posif.c ****  *                                             
  12:../Libraries/XMCLib/src/xmc_posif.c ****  * Redistribution and use in source and binary forms, with or without           
  13:../Libraries/XMCLib/src/xmc_posif.c ****  * modification,are permitted provided that the following conditions are met:   
  14:../Libraries/XMCLib/src/xmc_posif.c ****  *                                                                              
  15:../Libraries/XMCLib/src/xmc_posif.c ****  *   Redistributions of source code must retain the above copyright notice,      
  16:../Libraries/XMCLib/src/xmc_posif.c ****  *   this list of conditions and the following disclaimer.                        
  17:../Libraries/XMCLib/src/xmc_posif.c ****  * 
  18:../Libraries/XMCLib/src/xmc_posif.c ****  *   Redistributions in binary form must reproduce the above copyright notice,   
  19:../Libraries/XMCLib/src/xmc_posif.c ****  *   this list of conditions and the following disclaimer in the documentation    
  20:../Libraries/XMCLib/src/xmc_posif.c ****  *   and/or other materials provided with the distribution.                       
  21:../Libraries/XMCLib/src/xmc_posif.c ****  * 
  22:../Libraries/XMCLib/src/xmc_posif.c ****  *   Neither the name of the copyright holders nor the names of its contributors 
  23:../Libraries/XMCLib/src/xmc_posif.c ****  *   may be used to endorse or promote products derived from this software without
  24:../Libraries/XMCLib/src/xmc_posif.c ****  *   specific prior written permission.                                           
  25:../Libraries/XMCLib/src/xmc_posif.c ****  *                                                                              
  26:../Libraries/XMCLib/src/xmc_posif.c ****  * THIS SOFTWARE IS PROVIDED BY THE COPYRIGHT HOLDERS AND CONTRIBUTORS "AS IS"  
  27:../Libraries/XMCLib/src/xmc_posif.c ****  * AND ANY EXPRESS OR IMPLIED WARRANTIES, INCLUDING, BUT NOT LIMITED TO, THE    
  28:../Libraries/XMCLib/src/xmc_posif.c ****  * IMPLIED WARRANTIES OF MERCHANTABILITY AND FITNESS FOR A PARTICULAR PURPOSE   
  29:../Libraries/XMCLib/src/xmc_posif.c ****  * ARE  DISCLAIMED. IN NO EVENT SHALL THE COPYRIGHT HOLDER OR CONTRIBUTORS BE   
  30:../Libraries/XMCLib/src/xmc_posif.c ****  * LIABLE  FOR ANY DIRECT, INDIRECT, INCIDENTAL, SPECIAL, EXEMPLARY, OR         
  31:../Libraries/XMCLib/src/xmc_posif.c ****  * CONSEQUENTIAL DAMAGES (INCLUDING, BUT NOT LIMITED TO, PROCUREMENT OF         
  32:../Libraries/XMCLib/src/xmc_posif.c ****  * SUBSTITUTE GOODS OR  SERVICES; LOSS OF USE, DATA, OR PROFITS; OR BUSINESS    
  33:../Libraries/XMCLib/src/xmc_posif.c ****  * INTERRUPTION) HOWEVER CAUSED AND ON ANY THEORY OF LIABILITY, WHETHER IN      
  34:../Libraries/XMCLib/src/xmc_posif.c ****  * CONTRACT, STRICT LIABILITY,OR TORT (INCLUDING NEGLIGENCE OR OTHERWISE)       
  35:../Libraries/XMCLib/src/xmc_posif.c ****  * ARISING IN ANY WAY OUT OF THE USE OF THIS SOFTWARE, EVEN IF ADVISED OF THE   
  36:../Libraries/XMCLib/src/xmc_posif.c ****  * POSSIBILITY OF SUCH DAMAGE.                                                  
  37:../Libraries/XMCLib/src/xmc_posif.c ****  *                                                                              
  38:../Libraries/XMCLib/src/xmc_posif.c ****  * To improve the quality of the software, users are encouraged to share        
  39:../Libraries/XMCLib/src/xmc_posif.c ****  * modifications, enhancements or bug fixes with Infineon Technologies AG       
  40:../Libraries/XMCLib/src/xmc_posif.c ****  * dave@infineon.com).                                                          
  41:../Libraries/XMCLib/src/xmc_posif.c ****  **********************************************************************************
  42:../Libraries/XMCLib/src/xmc_posif.c ****  *
  43:../Libraries/XMCLib/src/xmc_posif.c ****  * Change History
  44:../Libraries/XMCLib/src/xmc_posif.c ****  * --------------
  45:../Libraries/XMCLib/src/xmc_posif.c ****  *
  46:../Libraries/XMCLib/src/xmc_posif.c ****  * 2015-02-18:
  47:../Libraries/XMCLib/src/xmc_posif.c ****  *     - Initial version
  48:../Libraries/XMCLib/src/xmc_posif.c ****  *      
  49:../Libraries/XMCLib/src/xmc_posif.c ****  * 2015-02-20:
  50:../Libraries/XMCLib/src/xmc_posif.c ****  *     - Driver description added <BR>
  51:../Libraries/XMCLib/src/xmc_posif.c ****  *
  52:../Libraries/XMCLib/src/xmc_posif.c ****  * 2015-04-30:
  53:../Libraries/XMCLib/src/xmc_posif.c ****  *     - XMC_POSIF_Enable and XMC_POSIF_Disable APIs updated for POSIF1 peripheral check <BR>
  54:../Libraries/XMCLib/src/xmc_posif.c ****  *
  55:../Libraries/XMCLib/src/xmc_posif.c ****  * 2015-06-19:
  56:../Libraries/XMCLib/src/xmc_posif.c ****  *     - Removed GetDriverVersion API <BR> 
  57:../Libraries/XMCLib/src/xmc_posif.c ****  * @endcond 
  58:../Libraries/XMCLib/src/xmc_posif.c ****  *
  59:../Libraries/XMCLib/src/xmc_posif.c ****  */
  60:../Libraries/XMCLib/src/xmc_posif.c **** 
  61:../Libraries/XMCLib/src/xmc_posif.c **** /**************************************************************************************************
  62:../Libraries/XMCLib/src/xmc_posif.c ****  * HEADER FILES
  63:../Libraries/XMCLib/src/xmc_posif.c ****  **************************************************************************************************
  64:../Libraries/XMCLib/src/xmc_posif.c **** #include <xmc_posif.h>
  65:../Libraries/XMCLib/src/xmc_posif.c **** 
  66:../Libraries/XMCLib/src/xmc_posif.c **** /* POSIF is not available on XMC1100 and XMC1200 */
  67:../Libraries/XMCLib/src/xmc_posif.c **** #if defined(POSIF0)
  68:../Libraries/XMCLib/src/xmc_posif.c **** #include <xmc_scu.h>
  69:../Libraries/XMCLib/src/xmc_posif.c **** 
  70:../Libraries/XMCLib/src/xmc_posif.c **** /**************************************************************************************************
  71:../Libraries/XMCLib/src/xmc_posif.c ****  * MACROS
  72:../Libraries/XMCLib/src/xmc_posif.c ****  **************************************************************************************************
  73:../Libraries/XMCLib/src/xmc_posif.c **** #define XMC_POSIF_PCONF_INSEL_Msk        (0x3fUL << POSIF_PCONF_INSEL0_Pos) /*< Mask for input pins
  74:../Libraries/XMCLib/src/xmc_posif.c **** #define XMC_POSIF_INSEL_MAX              (4U) /*< Maximum possible input selector */
  75:../Libraries/XMCLib/src/xmc_posif.c **** 
  76:../Libraries/XMCLib/src/xmc_posif.c **** /**************************************************************************************************
  77:../Libraries/XMCLib/src/xmc_posif.c ****  * LOCAL ROUTINES
  78:../Libraries/XMCLib/src/xmc_posif.c ****  **************************************************************************************************
  79:../Libraries/XMCLib/src/xmc_posif.c **** #ifdef XMC_ASSERT_ENABLE
  80:../Libraries/XMCLib/src/xmc_posif.c **** __STATIC_INLINE bool XMC_POSIF_IsPeripheralValid(const XMC_POSIF_t *const peripheral)
  81:../Libraries/XMCLib/src/xmc_posif.c **** {
  82:../Libraries/XMCLib/src/xmc_posif.c ****   bool tmp;
  83:../Libraries/XMCLib/src/xmc_posif.c **** 
  84:../Libraries/XMCLib/src/xmc_posif.c ****   tmp = (peripheral == POSIF0);
  85:../Libraries/XMCLib/src/xmc_posif.c **** #if defined(POSIF1)  
  86:../Libraries/XMCLib/src/xmc_posif.c ****   tmp |= (peripheral == POSIF1);
  87:../Libraries/XMCLib/src/xmc_posif.c **** #endif
  88:../Libraries/XMCLib/src/xmc_posif.c **** 
  89:../Libraries/XMCLib/src/xmc_posif.c ****   return tmp;  
  90:../Libraries/XMCLib/src/xmc_posif.c **** }
  91:../Libraries/XMCLib/src/xmc_posif.c **** #endif
  92:../Libraries/XMCLib/src/xmc_posif.c **** /**************************************************************************************************
  93:../Libraries/XMCLib/src/xmc_posif.c ****  * API IMPLEMENTATION
  94:../Libraries/XMCLib/src/xmc_posif.c ****  **************************************************************************************************
  95:../Libraries/XMCLib/src/xmc_posif.c **** 
  96:../Libraries/XMCLib/src/xmc_posif.c **** /* API to enable the POSIF module */
  97:../Libraries/XMCLib/src/xmc_posif.c **** void XMC_POSIF_Enable(XMC_POSIF_t *const peripheral)
  98:../Libraries/XMCLib/src/xmc_posif.c **** {
  72              	 .loc 2 98 0
  73              	 .cfi_startproc
  74              	 
  75              	 
  76 0000 80B5     	 push {r7,lr}
  77              	.LCFI6:
  78              	 .cfi_def_cfa_offset 8
  79              	 .cfi_offset 7,-8
  80              	 .cfi_offset 14,-4
  81 0002 82B0     	 sub sp,sp,#8
  82              	.LCFI7:
  83              	 .cfi_def_cfa_offset 16
  84 0004 00AF     	 add r7,sp,#0
  85              	.LCFI8:
  86              	 .cfi_def_cfa_register 7
  87 0006 7860     	 str r0,[r7,#4]
  99:../Libraries/XMCLib/src/xmc_posif.c **** #if UC_FAMILY == XMC4
 100:../Libraries/XMCLib/src/xmc_posif.c ****    XMC_SCU_CLOCK_EnableClock(XMC_SCU_CLOCK_CCU);
  88              	 .loc 2 100 0
  89 0008 1020     	 movs r0,#16
  90 000a FFF7FEFF 	 bl XMC_SCU_CLOCK_EnableClock
 101:../Libraries/XMCLib/src/xmc_posif.c **** #endif
 102:../Libraries/XMCLib/src/xmc_posif.c **** 
 103:../Libraries/XMCLib/src/xmc_posif.c ****   switch ((uint32_t)peripheral)
  91              	 .loc 2 103 0
  92 000e 7B68     	 ldr r3,[r7,#4]
  93 0010 0D4A     	 ldr r2,.L7
  94 0012 9342     	 cmp r3,r2
  95 0014 03D0     	 beq .L4
  96 0016 0D4A     	 ldr r2,.L7+4
  97 0018 9342     	 cmp r3,r2
  98 001a 09D0     	 beq .L5
 104:../Libraries/XMCLib/src/xmc_posif.c ****   {
 105:../Libraries/XMCLib/src/xmc_posif.c ****     case (uint32_t)POSIF0:
 106:../Libraries/XMCLib/src/xmc_posif.c **** #if defined(CLOCK_GATING_SUPPORTED)
 107:../Libraries/XMCLib/src/xmc_posif.c ****       XMC_SCU_CLOCK_UngatePeripheralClock(XMC_SCU_PERIPHERAL_CLOCK_POSIF0);
 108:../Libraries/XMCLib/src/xmc_posif.c **** #endif
 109:../Libraries/XMCLib/src/xmc_posif.c **** #if defined(PERIPHERAL_RESET_SUPPORTED)
 110:../Libraries/XMCLib/src/xmc_posif.c ****       XMC_SCU_RESET_DeassertPeripheralReset(XMC_SCU_PERIPHERAL_RESET_POSIF0);
 111:../Libraries/XMCLib/src/xmc_posif.c **** #endif
 112:../Libraries/XMCLib/src/xmc_posif.c ****       break;
 113:../Libraries/XMCLib/src/xmc_posif.c ****       
 114:../Libraries/XMCLib/src/xmc_posif.c **** #if defined(POSIF1)
 115:../Libraries/XMCLib/src/xmc_posif.c ****     case (uint32_t)POSIF1:
 116:../Libraries/XMCLib/src/xmc_posif.c **** #if defined(CLOCK_GATING_SUPPORTED)
 117:../Libraries/XMCLib/src/xmc_posif.c ****       XMC_SCU_CLOCK_UngatePeripheralClock(XMC_SCU_PERIPHERAL_CLOCK_POSIF1);
 118:../Libraries/XMCLib/src/xmc_posif.c **** #endif
 119:../Libraries/XMCLib/src/xmc_posif.c **** #if defined(PERIPHERAL_RESET_SUPPORTED)
 120:../Libraries/XMCLib/src/xmc_posif.c ****       XMC_SCU_RESET_DeassertPeripheralReset(XMC_SCU_PERIPHERAL_RESET_POSIF1);
 121:../Libraries/XMCLib/src/xmc_posif.c **** #endif
 122:../Libraries/XMCLib/src/xmc_posif.c ****       break;
 123:../Libraries/XMCLib/src/xmc_posif.c **** #endif
 124:../Libraries/XMCLib/src/xmc_posif.c **** 
 125:../Libraries/XMCLib/src/xmc_posif.c ****     default:
 126:../Libraries/XMCLib/src/xmc_posif.c ****       XMC_ASSERT("XMC_POSIF_Disable:Invalid module pointer", 0);
 127:../Libraries/XMCLib/src/xmc_posif.c ****       break;      
  99              	 .loc 2 127 0
 100 001c 11E0     	 b .L2
 101              	.L4:
 107:../Libraries/XMCLib/src/xmc_posif.c **** #endif
 102              	 .loc 2 107 0
 103 001e 4FF40070 	 mov r0,#512
 104 0022 FFF7FEFF 	 bl XMC_SCU_CLOCK_UngatePeripheralClock
 110:../Libraries/XMCLib/src/xmc_posif.c **** #endif
 105              	 .loc 2 110 0
 106 0026 4FF40070 	 mov r0,#512
 107 002a FFF7FEFF 	 bl XMC_SCU_RESET_DeassertPeripheralReset
 112:../Libraries/XMCLib/src/xmc_posif.c ****       
 108              	 .loc 2 112 0
 109 002e 08E0     	 b .L2
 110              	.L5:
 117:../Libraries/XMCLib/src/xmc_posif.c **** #endif
 111              	 .loc 2 117 0
 112 0030 4FF48060 	 mov r0,#1024
 113 0034 FFF7FEFF 	 bl XMC_SCU_CLOCK_UngatePeripheralClock
 120:../Libraries/XMCLib/src/xmc_posif.c **** #endif
 114              	 .loc 2 120 0
 115 0038 4FF48060 	 mov r0,#1024
 116 003c FFF7FEFF 	 bl XMC_SCU_RESET_DeassertPeripheralReset
 122:../Libraries/XMCLib/src/xmc_posif.c **** #endif
 117              	 .loc 2 122 0
 118 0040 00BF     	 nop
 119              	.L2:
 128:../Libraries/XMCLib/src/xmc_posif.c ****   }
 129:../Libraries/XMCLib/src/xmc_posif.c **** }
 120              	 .loc 2 129 0
 121 0042 0837     	 adds r7,r7,#8
 122              	.LCFI9:
 123              	 .cfi_def_cfa_offset 8
 124 0044 BD46     	 mov sp,r7
 125              	.LCFI10:
 126              	 .cfi_def_cfa_register 13
 127              	 
 128 0046 80BD     	 pop {r7,pc}
 129              	.L8:
 130              	 .align 2
 131              	.L7:
 132 0048 00800240 	 .word 1073905664
 133 004c 00C00240 	 .word 1073922048
 134              	 .cfi_endproc
 135              	.LFE190:
 137              	 .section .text.XMC_POSIF_Disable,"ax",%progbits
 138              	 .align 2
 139              	 .global XMC_POSIF_Disable
 140              	 .thumb
 141              	 .thumb_func
 143              	XMC_POSIF_Disable:
 144              	.LFB191:
 130:../Libraries/XMCLib/src/xmc_posif.c **** 
 131:../Libraries/XMCLib/src/xmc_posif.c **** /* API to disable the POSIF module */
 132:../Libraries/XMCLib/src/xmc_posif.c **** void XMC_POSIF_Disable(XMC_POSIF_t *const peripheral)
 133:../Libraries/XMCLib/src/xmc_posif.c **** {
 145              	 .loc 2 133 0
 146              	 .cfi_startproc
 147              	 
 148              	 
 149 0000 80B5     	 push {r7,lr}
 150              	.LCFI11:
 151              	 .cfi_def_cfa_offset 8
 152              	 .cfi_offset 7,-8
 153              	 .cfi_offset 14,-4
 154 0002 82B0     	 sub sp,sp,#8
 155              	.LCFI12:
 156              	 .cfi_def_cfa_offset 16
 157 0004 00AF     	 add r7,sp,#0
 158              	.LCFI13:
 159              	 .cfi_def_cfa_register 7
 160 0006 7860     	 str r0,[r7,#4]
 134:../Libraries/XMCLib/src/xmc_posif.c ****   switch ((uint32_t)peripheral)
 161              	 .loc 2 134 0
 162 0008 7B68     	 ldr r3,[r7,#4]
 163 000a 0E4A     	 ldr r2,.L14
 164 000c 9342     	 cmp r3,r2
 165 000e 03D0     	 beq .L11
 166 0010 0D4A     	 ldr r2,.L14+4
 167 0012 9342     	 cmp r3,r2
 168 0014 09D0     	 beq .L12
 135:../Libraries/XMCLib/src/xmc_posif.c ****   {
 136:../Libraries/XMCLib/src/xmc_posif.c ****     case (uint32_t)POSIF0:
 137:../Libraries/XMCLib/src/xmc_posif.c **** #if defined(PERIPHERAL_RESET_SUPPORTED)
 138:../Libraries/XMCLib/src/xmc_posif.c ****       XMC_SCU_RESET_AssertPeripheralReset(XMC_SCU_PERIPHERAL_RESET_POSIF0);
 139:../Libraries/XMCLib/src/xmc_posif.c **** #endif
 140:../Libraries/XMCLib/src/xmc_posif.c **** #if defined(CLOCK_GATING_SUPPORTED)
 141:../Libraries/XMCLib/src/xmc_posif.c ****       XMC_SCU_CLOCK_GatePeripheralClock(XMC_SCU_PERIPHERAL_CLOCK_POSIF0);
 142:../Libraries/XMCLib/src/xmc_posif.c **** #endif
 143:../Libraries/XMCLib/src/xmc_posif.c ****       break;
 144:../Libraries/XMCLib/src/xmc_posif.c ****       
 145:../Libraries/XMCLib/src/xmc_posif.c **** #if defined(POSIF1)
 146:../Libraries/XMCLib/src/xmc_posif.c ****     case (uint32_t)POSIF1:
 147:../Libraries/XMCLib/src/xmc_posif.c **** #if defined(PERIPHERAL_RESET_SUPPORTED)
 148:../Libraries/XMCLib/src/xmc_posif.c ****       XMC_SCU_RESET_AssertPeripheralReset(XMC_SCU_PERIPHERAL_RESET_POSIF1);
 149:../Libraries/XMCLib/src/xmc_posif.c **** #endif
 150:../Libraries/XMCLib/src/xmc_posif.c **** #if defined(CLOCK_GATING_SUPPORTED)
 151:../Libraries/XMCLib/src/xmc_posif.c ****       XMC_SCU_CLOCK_GatePeripheralClock(XMC_SCU_PERIPHERAL_CLOCK_POSIF1);
 152:../Libraries/XMCLib/src/xmc_posif.c **** #endif
 153:../Libraries/XMCLib/src/xmc_posif.c ****       break;
 154:../Libraries/XMCLib/src/xmc_posif.c **** #endif
 155:../Libraries/XMCLib/src/xmc_posif.c ****     
 156:../Libraries/XMCLib/src/xmc_posif.c ****     default:
 157:../Libraries/XMCLib/src/xmc_posif.c ****       XMC_ASSERT("XMC_POSIF_Disable:Invalid module pointer", 0);
 158:../Libraries/XMCLib/src/xmc_posif.c ****       break;      
 169              	 .loc 2 158 0
 170 0016 11E0     	 b .L9
 171              	.L11:
 138:../Libraries/XMCLib/src/xmc_posif.c **** #endif
 172              	 .loc 2 138 0
 173 0018 4FF40070 	 mov r0,#512
 174 001c FFF7FEFF 	 bl XMC_SCU_RESET_AssertPeripheralReset
 141:../Libraries/XMCLib/src/xmc_posif.c **** #endif
 175              	 .loc 2 141 0
 176 0020 4FF40070 	 mov r0,#512
 177 0024 FFF7FEFF 	 bl XMC_SCU_CLOCK_GatePeripheralClock
 143:../Libraries/XMCLib/src/xmc_posif.c ****       
 178              	 .loc 2 143 0
 179 0028 08E0     	 b .L9
 180              	.L12:
 148:../Libraries/XMCLib/src/xmc_posif.c **** #endif
 181              	 .loc 2 148 0
 182 002a 4FF48060 	 mov r0,#1024
 183 002e FFF7FEFF 	 bl XMC_SCU_RESET_AssertPeripheralReset
 151:../Libraries/XMCLib/src/xmc_posif.c **** #endif
 184              	 .loc 2 151 0
 185 0032 4FF48060 	 mov r0,#1024
 186 0036 FFF7FEFF 	 bl XMC_SCU_CLOCK_GatePeripheralClock
 153:../Libraries/XMCLib/src/xmc_posif.c **** #endif
 187              	 .loc 2 153 0
 188 003a 00BF     	 nop
 189              	.L9:
 159:../Libraries/XMCLib/src/xmc_posif.c ****   }
 160:../Libraries/XMCLib/src/xmc_posif.c **** }
 190              	 .loc 2 160 0
 191 003c 0837     	 adds r7,r7,#8
 192              	.LCFI14:
 193              	 .cfi_def_cfa_offset 8
 194 003e BD46     	 mov sp,r7
 195              	.LCFI15:
 196              	 .cfi_def_cfa_register 13
 197              	 
 198 0040 80BD     	 pop {r7,pc}
 199              	.L15:
 200 0042 00BF     	 .align 2
 201              	.L14:
 202 0044 00800240 	 .word 1073905664
 203 0048 00C00240 	 .word 1073922048
 204              	 .cfi_endproc
 205              	.LFE191:
 207              	 .section .text.XMC_POSIF_Init,"ax",%progbits
 208              	 .align 2
 209              	 .global XMC_POSIF_Init
 210              	 .thumb
 211              	 .thumb_func
 213              	XMC_POSIF_Init:
 214              	.LFB192:
 161:../Libraries/XMCLib/src/xmc_posif.c **** 
 162:../Libraries/XMCLib/src/xmc_posif.c **** /* API to initialize POSIF global resources */
 163:../Libraries/XMCLib/src/xmc_posif.c **** void XMC_POSIF_Init(XMC_POSIF_t *const peripheral, const XMC_POSIF_CONFIG_t *const config)
 164:../Libraries/XMCLib/src/xmc_posif.c **** {
 215              	 .loc 2 164 0
 216              	 .cfi_startproc
 217              	 
 218              	 
 219 0000 80B5     	 push {r7,lr}
 220              	.LCFI16:
 221              	 .cfi_def_cfa_offset 8
 222              	 .cfi_offset 7,-8
 223              	 .cfi_offset 14,-4
 224 0002 82B0     	 sub sp,sp,#8
 225              	.LCFI17:
 226              	 .cfi_def_cfa_offset 16
 227 0004 00AF     	 add r7,sp,#0
 228              	.LCFI18:
 229              	 .cfi_def_cfa_register 7
 230 0006 7860     	 str r0,[r7,#4]
 231 0008 3960     	 str r1,[r7]
 165:../Libraries/XMCLib/src/xmc_posif.c ****   XMC_ASSERT("XMC_POSIF_Init:Invalid module pointer", XMC_POSIF_IsPeripheralValid(peripheral));
 166:../Libraries/XMCLib/src/xmc_posif.c ****   XMC_ASSERT("XMC_POSIF_Init:NULL Pointer", (config != (XMC_POSIF_CONFIG_t *)NULL) );
 167:../Libraries/XMCLib/src/xmc_posif.c **** 
 168:../Libraries/XMCLib/src/xmc_posif.c ****   /* Enable the POSIF module */
 169:../Libraries/XMCLib/src/xmc_posif.c ****   XMC_POSIF_Enable(peripheral);
 232              	 .loc 2 169 0
 233 000a 7868     	 ldr r0,[r7,#4]
 234 000c FFF7FEFF 	 bl XMC_POSIF_Enable
 170:../Libraries/XMCLib/src/xmc_posif.c **** 
 171:../Libraries/XMCLib/src/xmc_posif.c ****   /* Stop POSIF */
 172:../Libraries/XMCLib/src/xmc_posif.c ****   XMC_POSIF_Stop(peripheral);
 235              	 .loc 2 172 0
 236 0010 7868     	 ldr r0,[r7,#4]
 237 0012 FFF7FEFF 	 bl XMC_POSIF_Stop
 173:../Libraries/XMCLib/src/xmc_posif.c **** 
 174:../Libraries/XMCLib/src/xmc_posif.c ****   /* Program the operational mode, input selectors and debounce filter */
 175:../Libraries/XMCLib/src/xmc_posif.c ****   peripheral->PCONF = config->pconf;
 238              	 .loc 2 175 0
 239 0016 3B68     	 ldr r3,[r7]
 240 0018 1A68     	 ldr r2,[r3]
 241 001a 7B68     	 ldr r3,[r7,#4]
 242 001c 1A60     	 str r2,[r3]
 176:../Libraries/XMCLib/src/xmc_posif.c **** }
 243              	 .loc 2 176 0
 244 001e 0837     	 adds r7,r7,#8
 245              	.LCFI19:
 246              	 .cfi_def_cfa_offset 8
 247 0020 BD46     	 mov sp,r7
 248              	.LCFI20:
 249              	 .cfi_def_cfa_register 13
 250              	 
 251 0022 80BD     	 pop {r7,pc}
 252              	 .cfi_endproc
 253              	.LFE192:
 255              	 .section .text.XMC_POSIF_HSC_Init,"ax",%progbits
 256              	 .align 2
 257              	 .global XMC_POSIF_HSC_Init
 258              	 .thumb
 259              	 .thumb_func
 261              	XMC_POSIF_HSC_Init:
 262              	.LFB193:
 177:../Libraries/XMCLib/src/xmc_posif.c **** 
 178:../Libraries/XMCLib/src/xmc_posif.c **** /* API to initialize hall sensor interface */
 179:../Libraries/XMCLib/src/xmc_posif.c **** XMC_POSIF_STATUS_t XMC_POSIF_HSC_Init(XMC_POSIF_t *const peripheral, const XMC_POSIF_HSC_CONFIG_t *
 180:../Libraries/XMCLib/src/xmc_posif.c **** {
 263              	 .loc 2 180 0
 264              	 .cfi_startproc
 265              	 
 266              	 
 267              	 
 268 0000 80B4     	 push {r7}
 269              	.LCFI21:
 270              	 .cfi_def_cfa_offset 4
 271              	 .cfi_offset 7,-4
 272 0002 85B0     	 sub sp,sp,#20
 273              	.LCFI22:
 274              	 .cfi_def_cfa_offset 24
 275 0004 00AF     	 add r7,sp,#0
 276              	.LCFI23:
 277              	 .cfi_def_cfa_register 7
 278 0006 7860     	 str r0,[r7,#4]
 279 0008 3960     	 str r1,[r7]
 181:../Libraries/XMCLib/src/xmc_posif.c ****   XMC_POSIF_STATUS_t retval;
 182:../Libraries/XMCLib/src/xmc_posif.c ****   
 183:../Libraries/XMCLib/src/xmc_posif.c ****   XMC_ASSERT("XMC_POSIF_HSC_Init:Invalid module pointer\n", XMC_POSIF_IsPeripheralValid(peripheral)
 184:../Libraries/XMCLib/src/xmc_posif.c ****   XMC_ASSERT("XMC_POSIF_HSC_Init:NULL Pointer\n", (config != (XMC_POSIF_HSC_CONFIG_t *)NULL) );
 185:../Libraries/XMCLib/src/xmc_posif.c **** 
 186:../Libraries/XMCLib/src/xmc_posif.c ****   if (XMC_POSIF_MODE_HALL_SENSOR == (XMC_POSIF_MODE_t)((peripheral->PCONF) & (uint32_t)POSIF_PCONF_
 280              	 .loc 2 186 0
 281 000a 7B68     	 ldr r3,[r7,#4]
 282 000c 1B68     	 ldr r3,[r3]
 283 000e DBB2     	 uxtb r3,r3
 284 0010 03F00303 	 and r3,r3,#3
 285 0014 002B     	 cmp r3,#0
 286 0016 09D1     	 bne .L18
 187:../Libraries/XMCLib/src/xmc_posif.c ****   {
 188:../Libraries/XMCLib/src/xmc_posif.c ****     peripheral->PCONF |= config->hall_config;
 287              	 .loc 2 188 0
 288 0018 7B68     	 ldr r3,[r7,#4]
 289 001a 1A68     	 ldr r2,[r3]
 290 001c 3B68     	 ldr r3,[r7]
 291 001e 1B68     	 ldr r3,[r3]
 292 0020 1A43     	 orrs r2,r2,r3
 293 0022 7B68     	 ldr r3,[r7,#4]
 294 0024 1A60     	 str r2,[r3]
 189:../Libraries/XMCLib/src/xmc_posif.c ****     retval = XMC_POSIF_STATUS_OK;
 295              	 .loc 2 189 0
 296 0026 0023     	 movs r3,#0
 297 0028 FB73     	 strb r3,[r7,#15]
 298 002a 01E0     	 b .L19
 299              	.L18:
 190:../Libraries/XMCLib/src/xmc_posif.c ****   }
 191:../Libraries/XMCLib/src/xmc_posif.c ****   else
 192:../Libraries/XMCLib/src/xmc_posif.c ****   {
 193:../Libraries/XMCLib/src/xmc_posif.c ****     retval = XMC_POSIF_STATUS_ERROR;
 300              	 .loc 2 193 0
 301 002c 0123     	 movs r3,#1
 302 002e FB73     	 strb r3,[r7,#15]
 303              	.L19:
 194:../Libraries/XMCLib/src/xmc_posif.c ****   }
 195:../Libraries/XMCLib/src/xmc_posif.c ****   return retval;
 304              	 .loc 2 195 0
 305 0030 FB7B     	 ldrb r3,[r7,#15]
 196:../Libraries/XMCLib/src/xmc_posif.c **** }
 306              	 .loc 2 196 0
 307 0032 1846     	 mov r0,r3
 308 0034 1437     	 adds r7,r7,#20
 309              	.LCFI24:
 310              	 .cfi_def_cfa_offset 4
 311 0036 BD46     	 mov sp,r7
 312              	.LCFI25:
 313              	 .cfi_def_cfa_register 13
 314              	 
 315 0038 5DF8047B 	 ldr r7,[sp],#4
 316              	.LCFI26:
 317              	 .cfi_restore 7
 318              	 .cfi_def_cfa_offset 0
 319 003c 7047     	 bx lr
 320              	 .cfi_endproc
 321              	.LFE193:
 323 003e 00BF     	 .section .text.XMC_POSIF_QD_Init,"ax",%progbits
 324              	 .align 2
 325              	 .global XMC_POSIF_QD_Init
 326              	 .thumb
 327              	 .thumb_func
 329              	XMC_POSIF_QD_Init:
 330              	.LFB194:
 197:../Libraries/XMCLib/src/xmc_posif.c **** 
 198:../Libraries/XMCLib/src/xmc_posif.c **** /* API to initialize quadrature decoder interface */
 199:../Libraries/XMCLib/src/xmc_posif.c **** XMC_POSIF_STATUS_t XMC_POSIF_QD_Init(XMC_POSIF_t *const peripheral, const XMC_POSIF_QD_CONFIG_t * c
 200:../Libraries/XMCLib/src/xmc_posif.c **** {
 331              	 .loc 2 200 0
 332              	 .cfi_startproc
 333              	 
 334              	 
 335              	 
 336 0000 80B4     	 push {r7}
 337              	.LCFI27:
 338              	 .cfi_def_cfa_offset 4
 339              	 .cfi_offset 7,-4
 340 0002 85B0     	 sub sp,sp,#20
 341              	.LCFI28:
 342              	 .cfi_def_cfa_offset 24
 343 0004 00AF     	 add r7,sp,#0
 344              	.LCFI29:
 345              	 .cfi_def_cfa_register 7
 346 0006 7860     	 str r0,[r7,#4]
 347 0008 3960     	 str r1,[r7]
 201:../Libraries/XMCLib/src/xmc_posif.c ****   uint8_t reg;
 202:../Libraries/XMCLib/src/xmc_posif.c ****   XMC_POSIF_STATUS_t retval;
 203:../Libraries/XMCLib/src/xmc_posif.c ****   
 204:../Libraries/XMCLib/src/xmc_posif.c ****   XMC_ASSERT("XMC_POSIF_QD_Init:Invalid module pointer", XMC_POSIF_IsPeripheralValid(peripheral));
 205:../Libraries/XMCLib/src/xmc_posif.c ****   XMC_ASSERT("XMC_POSIF_QD_Init:NULL Pointer", (config != (XMC_POSIF_QD_CONFIG_t *)NULL) );
 206:../Libraries/XMCLib/src/xmc_posif.c **** 
 207:../Libraries/XMCLib/src/xmc_posif.c ****   reg = (uint8_t)((peripheral->PCONF) & (uint32_t)POSIF_PCONF_FSEL_Msk);
 348              	 .loc 2 207 0
 349 000a 7B68     	 ldr r3,[r7,#4]
 350 000c 1B68     	 ldr r3,[r3]
 351 000e DBB2     	 uxtb r3,r3
 352 0010 03F00303 	 and r3,r3,#3
 353 0014 BB73     	 strb r3,[r7,#14]
 208:../Libraries/XMCLib/src/xmc_posif.c ****   if (((uint32_t)XMC_POSIF_MODE_QD == reg) || ((uint32_t)XMC_POSIF_MODE_MCM_QD == reg))
 354              	 .loc 2 208 0
 355 0016 BB7B     	 ldrb r3,[r7,#14]
 356 0018 012B     	 cmp r3,#1
 357 001a 02D0     	 beq .L22
 358              	 .loc 2 208 0 is_stmt 0 discriminator 1
 359 001c BB7B     	 ldrb r3,[r7,#14]
 360 001e 032B     	 cmp r3,#3
 361 0020 0ED1     	 bne .L23
 362              	.L22:
 209:../Libraries/XMCLib/src/xmc_posif.c ****   {
 210:../Libraries/XMCLib/src/xmc_posif.c ****     /* Program the quadrature mode */
 211:../Libraries/XMCLib/src/xmc_posif.c ****     peripheral->PCONF |= (uint32_t)(config->mode) << POSIF_PCONF_QDCM_Pos;
 363              	 .loc 2 211 0 is_stmt 1
 364 0022 7B68     	 ldr r3,[r7,#4]
 365 0024 1A68     	 ldr r2,[r3]
 366 0026 3B68     	 ldr r3,[r7]
 367 0028 1B78     	 ldrb r3,[r3]
 368 002a 9B00     	 lsls r3,r3,#2
 369 002c 1A43     	 orrs r2,r2,r3
 370 002e 7B68     	 ldr r3,[r7,#4]
 371 0030 1A60     	 str r2,[r3]
 212:../Libraries/XMCLib/src/xmc_posif.c ****     peripheral->QDC = config->qdc;
 372              	 .loc 2 212 0
 373 0032 3B68     	 ldr r3,[r7]
 374 0034 5A68     	 ldr r2,[r3,#4]
 375 0036 7B68     	 ldr r3,[r7,#4]
 376 0038 1A66     	 str r2,[r3,#96]
 213:../Libraries/XMCLib/src/xmc_posif.c ****     retval = XMC_POSIF_STATUS_OK;
 377              	 .loc 2 213 0
 378 003a 0023     	 movs r3,#0
 379 003c FB73     	 strb r3,[r7,#15]
 380 003e 01E0     	 b .L24
 381              	.L23:
 214:../Libraries/XMCLib/src/xmc_posif.c ****   }
 215:../Libraries/XMCLib/src/xmc_posif.c ****   else
 216:../Libraries/XMCLib/src/xmc_posif.c ****   {
 217:../Libraries/XMCLib/src/xmc_posif.c ****     retval = XMC_POSIF_STATUS_ERROR;
 382              	 .loc 2 217 0
 383 0040 0123     	 movs r3,#1
 384 0042 FB73     	 strb r3,[r7,#15]
 385              	.L24:
 218:../Libraries/XMCLib/src/xmc_posif.c ****   }
 219:../Libraries/XMCLib/src/xmc_posif.c ****   
 220:../Libraries/XMCLib/src/xmc_posif.c ****   return retval;
 386              	 .loc 2 220 0
 387 0044 FB7B     	 ldrb r3,[r7,#15]
 221:../Libraries/XMCLib/src/xmc_posif.c **** }
 388              	 .loc 2 221 0
 389 0046 1846     	 mov r0,r3
 390 0048 1437     	 adds r7,r7,#20
 391              	.LCFI30:
 392              	 .cfi_def_cfa_offset 4
 393 004a BD46     	 mov sp,r7
 394              	.LCFI31:
 395              	 .cfi_def_cfa_register 13
 396              	 
 397 004c 5DF8047B 	 ldr r7,[sp],#4
 398              	.LCFI32:
 399              	 .cfi_restore 7
 400              	 .cfi_def_cfa_offset 0
 401 0050 7047     	 bx lr
 402              	 .cfi_endproc
 403              	.LFE194:
 405 0052 00BF     	 .section .text.XMC_POSIF_MCM_Init,"ax",%progbits
 406              	 .align 2
 407              	 .global XMC_POSIF_MCM_Init
 408              	 .thumb
 409              	 .thumb_func
 411              	XMC_POSIF_MCM_Init:
 412              	.LFB195:
 222:../Libraries/XMCLib/src/xmc_posif.c **** 
 223:../Libraries/XMCLib/src/xmc_posif.c **** /* API to initialize multi-channel mode.
 224:../Libraries/XMCLib/src/xmc_posif.c ****  * This is used in Hall mode, standalone multi-channel mode and quadrature with multi-channel mode
 225:../Libraries/XMCLib/src/xmc_posif.c ****  */
 226:../Libraries/XMCLib/src/xmc_posif.c **** XMC_POSIF_STATUS_t XMC_POSIF_MCM_Init(XMC_POSIF_t *const peripheral, const XMC_POSIF_MCM_CONFIG_t *
 227:../Libraries/XMCLib/src/xmc_posif.c **** {
 413              	 .loc 2 227 0
 414              	 .cfi_startproc
 415              	 
 416              	 
 417              	 
 418 0000 80B4     	 push {r7}
 419              	.LCFI33:
 420              	 .cfi_def_cfa_offset 4
 421              	 .cfi_offset 7,-4
 422 0002 85B0     	 sub sp,sp,#20
 423              	.LCFI34:
 424              	 .cfi_def_cfa_offset 24
 425 0004 00AF     	 add r7,sp,#0
 426              	.LCFI35:
 427              	 .cfi_def_cfa_register 7
 428 0006 7860     	 str r0,[r7,#4]
 429 0008 3960     	 str r1,[r7]
 228:../Libraries/XMCLib/src/xmc_posif.c ****   XMC_POSIF_STATUS_t retval;
 229:../Libraries/XMCLib/src/xmc_posif.c **** 
 230:../Libraries/XMCLib/src/xmc_posif.c ****   XMC_ASSERT("XMC_POSIF_MCM_Init:Invalid module pointer", XMC_POSIF_IsPeripheralValid(peripheral));
 231:../Libraries/XMCLib/src/xmc_posif.c ****   XMC_ASSERT("XMC_POSIF_MCM_Init:NULL Pointer", (config != (XMC_POSIF_MCM_CONFIG_t *)NULL) );
 232:../Libraries/XMCLib/src/xmc_posif.c **** 
 233:../Libraries/XMCLib/src/xmc_posif.c ****   if ((XMC_POSIF_MODE_t)((peripheral->PCONF) & (uint32_t)POSIF_PCONF_FSEL_Msk) != XMC_POSIF_MODE_QD
 430              	 .loc 2 233 0
 431 000a 7B68     	 ldr r3,[r7,#4]
 432 000c 1B68     	 ldr r3,[r3]
 433 000e DBB2     	 uxtb r3,r3
 434 0010 03F00303 	 and r3,r3,#3
 435 0014 012B     	 cmp r3,#1
 436 0016 09D0     	 beq .L27
 234:../Libraries/XMCLib/src/xmc_posif.c ****   {
 235:../Libraries/XMCLib/src/xmc_posif.c ****     peripheral->PCONF |= config->mcm_config;
 437              	 .loc 2 235 0
 438 0018 7B68     	 ldr r3,[r7,#4]
 439 001a 1A68     	 ldr r2,[r3]
 440 001c 3B68     	 ldr r3,[r7]
 441 001e 1B68     	 ldr r3,[r3]
 442 0020 1A43     	 orrs r2,r2,r3
 443 0022 7B68     	 ldr r3,[r7,#4]
 444 0024 1A60     	 str r2,[r3]
 236:../Libraries/XMCLib/src/xmc_posif.c ****     retval = XMC_POSIF_STATUS_OK;
 445              	 .loc 2 236 0
 446 0026 0023     	 movs r3,#0
 447 0028 FB73     	 strb r3,[r7,#15]
 448 002a 01E0     	 b .L28
 449              	.L27:
 237:../Libraries/XMCLib/src/xmc_posif.c ****   }
 238:../Libraries/XMCLib/src/xmc_posif.c ****   else
 239:../Libraries/XMCLib/src/xmc_posif.c ****   {
 240:../Libraries/XMCLib/src/xmc_posif.c ****     retval = XMC_POSIF_STATUS_ERROR;
 450              	 .loc 2 240 0
 451 002c 0123     	 movs r3,#1
 452 002e FB73     	 strb r3,[r7,#15]
 453              	.L28:
 241:../Libraries/XMCLib/src/xmc_posif.c ****   }
 242:../Libraries/XMCLib/src/xmc_posif.c ****   return retval;
 454              	 .loc 2 242 0
 455 0030 FB7B     	 ldrb r3,[r7,#15]
 243:../Libraries/XMCLib/src/xmc_posif.c **** }
 456              	 .loc 2 243 0
 457 0032 1846     	 mov r0,r3
 458 0034 1437     	 adds r7,r7,#20
 459              	.LCFI36:
 460              	 .cfi_def_cfa_offset 4
 461 0036 BD46     	 mov sp,r7
 462              	.LCFI37:
 463              	 .cfi_def_cfa_register 13
 464              	 
 465 0038 5DF8047B 	 ldr r7,[sp],#4
 466              	.LCFI38:
 467              	 .cfi_restore 7
 468              	 .cfi_def_cfa_offset 0
 469 003c 7047     	 bx lr
 470              	 .cfi_endproc
 471              	.LFE195:
 473 003e 00BF     	 .section .text.XMC_POSIF_SelectInputSource,"ax",%progbits
 474              	 .align 2
 475              	 .global XMC_POSIF_SelectInputSource
 476              	 .thumb
 477              	 .thumb_func
 479              	XMC_POSIF_SelectInputSource:
 480              	.LFB196:
 244:../Libraries/XMCLib/src/xmc_posif.c **** 
 245:../Libraries/XMCLib/src/xmc_posif.c **** /* API to configure input source */
 246:../Libraries/XMCLib/src/xmc_posif.c **** void XMC_POSIF_SelectInputSource (XMC_POSIF_t *const peripheral, const XMC_POSIF_INPUT_PORT_t input
 247:../Libraries/XMCLib/src/xmc_posif.c ****     const XMC_POSIF_INPUT_PORT_t input1, const XMC_POSIF_INPUT_PORT_t input2)
 248:../Libraries/XMCLib/src/xmc_posif.c **** {
 481              	 .loc 2 248 0
 482              	 .cfi_startproc
 483              	 
 484              	 
 485              	 
 486 0000 80B4     	 push {r7}
 487              	.LCFI39:
 488              	 .cfi_def_cfa_offset 4
 489              	 .cfi_offset 7,-4
 490 0002 85B0     	 sub sp,sp,#20
 491              	.LCFI40:
 492              	 .cfi_def_cfa_offset 24
 493 0004 00AF     	 add r7,sp,#0
 494              	.LCFI41:
 495              	 .cfi_def_cfa_register 7
 496 0006 7860     	 str r0,[r7,#4]
 497 0008 0846     	 mov r0,r1
 498 000a 1146     	 mov r1,r2
 499 000c 1A46     	 mov r2,r3
 500 000e 0346     	 mov r3,r0
 501 0010 FB70     	 strb r3,[r7,#3]
 502 0012 0B46     	 mov r3,r1
 503 0014 BB70     	 strb r3,[r7,#2]
 504 0016 1346     	 mov r3,r2
 505 0018 7B70     	 strb r3,[r7,#1]
 249:../Libraries/XMCLib/src/xmc_posif.c ****   uint32_t reg;
 250:../Libraries/XMCLib/src/xmc_posif.c ****   XMC_ASSERT("XMC_POSIF_SelectInputSource:Invalid module pointer", XMC_POSIF_IsPeripheralValid(peri
 251:../Libraries/XMCLib/src/xmc_posif.c ****   XMC_ASSERT("XMC_POSIF_SelectInputSource:Wrong input port input0", (input0 < XMC_POSIF_INSEL_MAX))
 252:../Libraries/XMCLib/src/xmc_posif.c ****   XMC_ASSERT("XMC_POSIF_SelectInputSource:Wrong input port input1", (input1 < XMC_POSIF_INSEL_MAX))
 253:../Libraries/XMCLib/src/xmc_posif.c ****   XMC_ASSERT("XMC_POSIF_SelectInputSource:Wrong input port input2", (input2 < XMC_POSIF_INSEL_MAX))
 254:../Libraries/XMCLib/src/xmc_posif.c **** 
 255:../Libraries/XMCLib/src/xmc_posif.c ****   reg = (uint32_t)((((uint32_t)input0 << POSIF_PCONF_INSEL0_Pos) & (uint32_t)POSIF_PCONF_INSEL0_Msk
 506              	 .loc 2 255 0
 507 001a FB78     	 ldrb r3,[r7,#3]
 508 001c 1B02     	 lsls r3,r3,#8
 509 001e 03F44072 	 and r2,r3,#768
 256:../Libraries/XMCLib/src/xmc_posif.c ****         (((uint32_t)input1 << POSIF_PCONF_INSEL1_Pos) & (uint32_t)POSIF_PCONF_INSEL1_Msk) |
 510              	 .loc 2 256 0
 511 0022 BB78     	 ldrb r3,[r7,#2]
 512 0024 9B02     	 lsls r3,r3,#10
 513 0026 03F44063 	 and r3,r3,#3072
 255:../Libraries/XMCLib/src/xmc_posif.c ****         (((uint32_t)input1 << POSIF_PCONF_INSEL1_Pos) & (uint32_t)POSIF_PCONF_INSEL1_Msk) |
 514              	 .loc 2 255 0
 515 002a 1A43     	 orrs r2,r2,r3
 257:../Libraries/XMCLib/src/xmc_posif.c ****         (((uint32_t)input2 << POSIF_PCONF_INSEL2_Pos) & (uint32_t)POSIF_PCONF_INSEL2_Msk));
 516              	 .loc 2 257 0
 517 002c 7B78     	 ldrb r3,[r7,#1]
 518 002e 1B03     	 lsls r3,r3,#12
 519 0030 03F44053 	 and r3,r3,#12288
 255:../Libraries/XMCLib/src/xmc_posif.c ****         (((uint32_t)input1 << POSIF_PCONF_INSEL1_Pos) & (uint32_t)POSIF_PCONF_INSEL1_Msk) |
 520              	 .loc 2 255 0
 521 0034 1343     	 orrs r3,r3,r2
 522 0036 FB60     	 str r3,[r7,#12]
 258:../Libraries/XMCLib/src/xmc_posif.c ****   peripheral->PCONF = ((peripheral->PCONF & ~(uint32_t)XMC_POSIF_PCONF_INSEL_Msk) | reg);
 523              	 .loc 2 258 0
 524 0038 7B68     	 ldr r3,[r7,#4]
 525 003a 1B68     	 ldr r3,[r3]
 526 003c 23F47C52 	 bic r2,r3,#16128
 527 0040 FB68     	 ldr r3,[r7,#12]
 528 0042 1A43     	 orrs r2,r2,r3
 529 0044 7B68     	 ldr r3,[r7,#4]
 530 0046 1A60     	 str r2,[r3]
 259:../Libraries/XMCLib/src/xmc_posif.c **** }
 531              	 .loc 2 259 0
 532 0048 1437     	 adds r7,r7,#20
 533              	.LCFI42:
 534              	 .cfi_def_cfa_offset 4
 535 004a BD46     	 mov sp,r7
 536              	.LCFI43:
 537              	 .cfi_def_cfa_register 13
 538              	 
 539 004c 5DF8047B 	 ldr r7,[sp],#4
 540              	.LCFI44:
 541              	 .cfi_restore 7
 542              	 .cfi_def_cfa_offset 0
 543 0050 7047     	 bx lr
 544              	 .cfi_endproc
 545              	.LFE196:
 547 0052 00BF     	 .section .text.XMC_POSIF_SetInterruptNode,"ax",%progbits
 548              	 .align 2
 549              	 .global XMC_POSIF_SetInterruptNode
 550              	 .thumb
 551              	 .thumb_func
 553              	XMC_POSIF_SetInterruptNode:
 554              	.LFB197:
 260:../Libraries/XMCLib/src/xmc_posif.c **** 
 261:../Libraries/XMCLib/src/xmc_posif.c **** /* API to select an interrupt node */
 262:../Libraries/XMCLib/src/xmc_posif.c **** void XMC_POSIF_SetInterruptNode(XMC_POSIF_t *const peripheral, const XMC_POSIF_IRQ_EVENT_t event, c
 263:../Libraries/XMCLib/src/xmc_posif.c **** {
 555              	 .loc 2 263 0
 556              	 .cfi_startproc
 557              	 
 558              	 
 559              	 
 560 0000 80B4     	 push {r7}
 561              	.LCFI45:
 562              	 .cfi_def_cfa_offset 4
 563              	 .cfi_offset 7,-4
 564 0002 85B0     	 sub sp,sp,#20
 565              	.LCFI46:
 566              	 .cfi_def_cfa_offset 24
 567 0004 00AF     	 add r7,sp,#0
 568              	.LCFI47:
 569              	 .cfi_def_cfa_register 7
 570 0006 7860     	 str r0,[r7,#4]
 571 0008 0B46     	 mov r3,r1
 572 000a FB70     	 strb r3,[r7,#3]
 573 000c 1346     	 mov r3,r2
 574 000e BB70     	 strb r3,[r7,#2]
 264:../Libraries/XMCLib/src/xmc_posif.c ****   uint32_t reg;
 265:../Libraries/XMCLib/src/xmc_posif.c ****   
 266:../Libraries/XMCLib/src/xmc_posif.c ****   XMC_ASSERT("XMC_POSIF_SetInterruptNode:Invalid module pointer", XMC_POSIF_IsPeripheralValid(perip
 267:../Libraries/XMCLib/src/xmc_posif.c ****   XMC_ASSERT("XMC_POSIF_SetInterruptNode:Wrong IRQ event", (event <= XMC_POSIF_IRQ_EVENT_PCLK) );
 268:../Libraries/XMCLib/src/xmc_posif.c ****   XMC_ASSERT("XMC_POSIF_SetInterruptNode:Wrong SR ID", (sr <= XMC_POSIF_SR_ID_1) );
 269:../Libraries/XMCLib/src/xmc_posif.c ****   
 270:../Libraries/XMCLib/src/xmc_posif.c ****   reg = peripheral->PFLGE;
 575              	 .loc 2 270 0
 576 0010 7B68     	 ldr r3,[r7,#4]
 577 0012 5B6F     	 ldr r3,[r3,#116]
 578 0014 FB60     	 str r3,[r7,#12]
 271:../Libraries/XMCLib/src/xmc_posif.c ****   reg &= ~((uint32_t)1 << ((uint32_t)event + (uint32_t)POSIF_PFLGE_CHESEL_Pos));
 579              	 .loc 2 271 0
 580 0016 FB78     	 ldrb r3,[r7,#3]
 581 0018 1033     	 adds r3,r3,#16
 582 001a 1A46     	 mov r2,r3
 583 001c 0123     	 movs r3,#1
 584 001e 9340     	 lsls r3,r3,r2
 585 0020 DB43     	 mvns r3,r3
 586 0022 FA68     	 ldr r2,[r7,#12]
 587 0024 1340     	 ands r3,r3,r2
 588 0026 FB60     	 str r3,[r7,#12]
 272:../Libraries/XMCLib/src/xmc_posif.c ****   reg |= (uint32_t)sr << ((uint32_t)event + (uint32_t)POSIF_PFLGE_CHESEL_Pos);
 589              	 .loc 2 272 0
 590 0028 BB78     	 ldrb r3,[r7,#2]
 591 002a FA78     	 ldrb r2,[r7,#3]
 592 002c 1032     	 adds r2,r2,#16
 593 002e 9340     	 lsls r3,r3,r2
 594 0030 FA68     	 ldr r2,[r7,#12]
 595 0032 1343     	 orrs r3,r3,r2
 596 0034 FB60     	 str r3,[r7,#12]
 273:../Libraries/XMCLib/src/xmc_posif.c ****   peripheral->PFLGE = reg;
 597              	 .loc 2 273 0
 598 0036 7B68     	 ldr r3,[r7,#4]
 599 0038 FA68     	 ldr r2,[r7,#12]
 600 003a 5A67     	 str r2,[r3,#116]
 274:../Libraries/XMCLib/src/xmc_posif.c **** }
 601              	 .loc 2 274 0
 602 003c 1437     	 adds r7,r7,#20
 603              	.LCFI48:
 604              	 .cfi_def_cfa_offset 4
 605 003e BD46     	 mov sp,r7
 606              	.LCFI49:
 607              	 .cfi_def_cfa_register 13
 608              	 
 609 0040 5DF8047B 	 ldr r7,[sp],#4
 610              	.LCFI50:
 611              	 .cfi_restore 7
 612              	 .cfi_def_cfa_offset 0
 613 0044 7047     	 bx lr
 614              	 .cfi_endproc
 615              	.LFE197:
 617 0046 00BF     	 .text
 618              	.Letext0:
 619              	 .file 3 "c:\\program files\\dave-ide-4.4.2-64bit\\eclipse\\arm-gcc-49\\arm-none-eabi\\include\\machine\\_default_types.h"
 620              	 .file 4 "c:\\program files\\dave-ide-4.4.2-64bit\\eclipse\\arm-gcc-49\\arm-none-eabi\\include\\stdint.h"
 621              	 .file 5 "C:/src/bakalarka_workspace/ETHCAT_FWUPDATE_BOOTLOADER_XMC48/Libraries/CMSIS/Infineon/XMC4800_series/Include/XMC4800.h"
 622              	 .file 6 "C:/src/bakalarka_workspace/ETHCAT_FWUPDATE_BOOTLOADER_XMC48/Libraries/XMCLib/inc/xmc4_scu.h"
 623              	 .file 7 "C:/src/bakalarka_workspace/ETHCAT_FWUPDATE_BOOTLOADER_XMC48/Libraries/CMSIS/Include/core_cm4.h"
 624              	 .file 8 "C:/src/bakalarka_workspace/ETHCAT_FWUPDATE_BOOTLOADER_XMC48/Libraries/CMSIS/Infineon/XMC4800_series/Include/system_XMC4800.h"